

Microchip MPLAB XC8 Assembler V2.40 build 20220703182018 
                                                                                               Thu Aug 18 14:29:12 2022

Microchip MPLAB XC8 C Compiler v2.40 (Free license) build 20220703182018 Og1 
     1                           	processor	18F25K42
     2                           	fnconf	rparam,??,?,0
     3                           	pagewidth 120
     4                           	opt	flic
     5                           	psect	idataCOMRAM,global,class=CODE,delta=1,noexec
     6                           	psect	smallconst,global,reloc=2,class=SMALLCONST,delta=1,noexec
     7                           	psect	cinit,global,reloc=2,class=CODE,delta=1
     8                           	psect	bssCOMRAM,global,class=COMRAM,space=1,delta=1,lowdata,noexec
     9                           	psect	dataCOMRAM,global,class=COMRAM,space=1,delta=1,lowdata,noexec
    10                           	psect	cstackCOMRAM,global,class=COMRAM,space=1,delta=1,lowdata,noexec
    11                           	psect	text0,global,reloc=2,class=CODE,delta=1
    12                           	psect	text1,global,reloc=2,class=CODE,delta=1
    13                           	psect	text2,global,reloc=2,class=CODE,delta=1
    14                           	psect	text3,global,reloc=2,class=CODE,delta=1
    15                           	psect	text4,global,reloc=2,class=CODE,delta=1
    16                           	psect	text5,global,reloc=2,class=CODE,delta=1
    17                           	psect	text6,global,reloc=2,class=CODE,delta=1
    18                           	psect	text7,global,reloc=2,class=CODE,delta=1
    19                           	psect	text8,global,reloc=2,class=CODE,delta=1
    20                           	psect	text9,global,reloc=2,class=CODE,delta=1
    21                           	psect	text10,global,reloc=2,class=CODE,delta=1
    22                           	psect	text11,global,reloc=2,class=CODE,delta=1
    23                           	psect	text12,global,reloc=2,class=CODE,delta=1
    24                           	psect	text13,global,reloc=2,class=CODE,delta=1
    25                           	psect	text14,global,reloc=2,class=CODE,delta=1
    26                           	psect	text15,global,reloc=2,class=CODE,delta=1
    27                           	psect	text16,global,reloc=2,class=CODE,delta=1
    28                           	psect	text17,global,reloc=2,class=CODE,delta=1
    29                           	psect	text18,global,reloc=2,class=CODE,delta=1
    30                           	psect	text19,global,reloc=2,class=CODE,delta=1
    31                           	psect	text20,global,reloc=2,class=CODE,delta=1
    32                           	psect	text21,global,reloc=2,class=CODE,delta=1
    33                           	psect	text22,global,reloc=2,class=CODE,delta=1
    34                           	psect	text23,global,reloc=2,class=CODE,delta=1
    35                           	psect	text24,global,reloc=2,class=CODE,delta=1
    36                           	psect	text25,global,reloc=2,class=CODE,delta=1
    37                           	psect	text26,global,reloc=2,class=CODE,delta=1
    38                           	psect	text27,global,reloc=2,class=CODE,delta=1
    39                           	psect	text28,global,reloc=2,class=CODE,delta=1
    40                           	psect	text29,global,reloc=2,class=CODE,delta=1
    41                           	psect	text30,global,reloc=2,class=CODE,delta=1
    42                           	psect	text31,global,reloc=2,class=CODE,delta=1
    43                           	psect	text32,global,reloc=2,class=CODE,delta=1
    44                           	psect	text33,global,reloc=2,class=CODE,delta=1
    45                           	psect	text34,global,reloc=2,class=CODE,delta=1
    46                           	psect	text35,global,reloc=2,class=CODE,delta=1
    47                           	psect	text36,global,reloc=2,class=CODE,delta=1
    48                           	psect	text37,global,reloc=2,class=CODE,delta=1
    49                           	psect	text38,global,reloc=2,class=CODE,delta=1
    50                           	psect	text39,global,reloc=2,class=CODE,delta=1
    51                           	psect	text40,global,reloc=2,class=CODE,delta=1
    52                           	psect	text41,global,reloc=2,class=CODE,delta=1
    53                           	psect	text42,global,reloc=2,class=CODE,delta=1
    54                           	psect	text43,global,reloc=2,class=CODE,delta=1
    55                           	psect	text44,global,reloc=2,class=CODE,delta=1
    56                           	psect	text45,global,reloc=2,class=CODE,delta=1
    57                           	psect	text46,global,reloc=2,class=CODE,delta=1
    58                           	psect	text47,global,reloc=2,class=CODE,delta=1
    59                           	psect	text48,global,reloc=2,class=CODE,delta=1
    60                           	psect	text49,global,reloc=2,class=CODE,delta=1
    61                           	psect	text50,global,reloc=2,class=CODE,delta=1
    62                           	psect	text51,global,reloc=2,class=CODE,delta=1
    63                           	psect	intsave_regs,global,class=BIGRAM,space=1,delta=1,noexec
    64                           	psect	text52,global,reloc=2,class=CODE,delta=1
    65                           	psect	rparam,global,class=COMRAM,space=1,delta=1,noexec
    66                           	psect	idloc,global,abs,ovrld,class=IDLOC,space=5,delta=1,noexec
    67                           	psect	config,global,abs,ovrld,class=CONFIG,space=4,delta=1,noexec
    68   000000                     
    69                           ; Version 2.40
    70                           ; Generated 17/11/2021 GMT
    71                           ; 
    72                           ; Copyright © 2021, Microchip Technology Inc. and its subsidiaries ("Microchip")
    73                           ; All rights reserved.
    74                           ; 
    75                           ; This software is developed by Microchip Technology Inc. and its subsidiaries ("Microch
      +                          ip").
    76                           ; 
    77                           ; Redistribution and use in source and binary forms, with or without modification, are
    78                           ; permitted provided that the following conditions are met:
    79                           ; 
    80                           ;     1. Redistributions of source code must retain the above copyright notice, this lis
      +                          t of
    81                           ;        conditions and the following disclaimer.
    82                           ; 
    83                           ;     2. Redistributions in binary form must reproduce the above copyright notice, this 
      +                          list
    84                           ;        of conditions and the following disclaimer in the documentation and/or other
    85                           ;        materials provided with the distribution. Publication is not required when
    86                           ;        this file is used in an embedded application.
    87                           ; 
    88                           ;     3. Microchip's name may not be used to endorse or promote products derived from th
      +                          is
    89                           ;        software without specific prior written permission.
    90                           ; 
    91                           ; THIS SOFTWARE IS PROVIDED BY MICROCHIP "AS IS" AND ANY EXPRESS OR IMPLIED WARRANTIES,
    92                           ; INCLUDING, BUT NOT LIMITED TO, THE IMPLIED WARRANTIES OF MERCHANTABILITY AND FITNESS F
      +                          OR
    93                           ; PURPOSE ARE DISCLAIMED.  IN NO EVENT SHALL MICROCHIP BE LIABLE FOR ANY DIRECT, INDIREC
      +                          T,
    94                           ; INCIDENTAL, SPECIAL, EXEMPLARY, OR CONSEQUENTIAL DAMAGES (INCLUDING BUT NOT LIMITED TO
    95                           ; PROCUREMENT OF SUBSTITUTE GOODS OR SERVICES; LOSS OF USE, DATA OR PROFITS; OR BUSINESS
    96                           ; INTERRUPTION) HOWSOEVER CAUSED AND ON ANY THEORY OF LIABILITY, WHETHER IN CONTRACT, ST
      +                          RICT
    97                           ; LIABILITY, OR TORT (INCLUDING NEGLIGENCE OR OTHERWISE) ARISING IN ANY WAY OUT OF THE U
      +                          SE OF
    98                           ; THIS SOFTWARE, EVEN IF ADVISED OF THE POSSIBILITY OF SUCH DAMAGE.
    99                           ; 
   100                           ; 
   101                           ; Code-generator required, PIC18F25K42 Definitions
   102                           ; 
   103                           ; SFR Addresses
   104   000000                     
   105 ;; Function _UART2_DefaultFramingErrorHandler is unused but had its address taken
   106   000000                     
   107 ;; Function _UART2_DefaultOverrunErrorHandler is unused but had its address taken
   108   000000                     
   109 ;; Function _UART2_DefaultErrorHandler is unused but had its address taken
   110   000000                     
   111                           	psect	idataCOMRAM
   112   0014B4                     __pidataCOMRAM:
   113                           	callstack 0
   114                           
   115                           ;initializer for _notenum
   116   0014B4  FF                 	db	255
   117                           
   118                           	psect	smallconst
   119   000800                     __psmallconst:
   120                           	callstack 0
   121   000800  00                 	db	0
   122   000801                     _spi1_configuration:
   123                           	callstack 0
   124   000801  02                 	db	2
   125   000802  00                 	db	0
   126   000803  02                 	db	2
   127   000804  01                 	db	1
   128   000805  00                 	db	0
   129   000806                     __end_of_spi1_configuration:
   130                           	callstack 0
   131   000806                     _sensval:
   132                           	callstack 0
   133   000806  0019               	dw	25
   134   000808                     __end_of_sensval:
   135                           	callstack 0
   136   000808  0018               	dw	24
   137   00080A                     __end_of_notebits:
   138                           	callstack 0
   139   00080A                     _cashint:
   140                           	callstack 0
   141   00080A  000C               	dw	12
   142   00080C                     __end_of_cashint:
   143                           	callstack 0
   144   00080C                     _vendstore:
   145                           	callstack 0
   146   00080C  0004               	dw	4
   147   00080E                     __end_of_vendstore:
   148                           	callstack 0
   149   00080E                     _cashinv:
   150                           	callstack 0
   151   00080E  0002               	dw	2
   152   000810                     __end_of_cashinv:
   153                           	callstack 0
   154   000810  0002               	dw	2
   155   000812                     __end_of_venderrors:
   156                           	callstack 0
   157   000812  0001               	dw	1
   158   000814                     __end_of_pricestore:
   159                           	callstack 0
   160   000814  0000               	dw	0
   161   000816                     __end_of_credmem:
   162                           	callstack 0
   163   000816                     _secondadd:
   164                           	callstack 0
   165   000816  1E46               	dw	7750
   166   000818                     __end_of_secondadd:
   167                           	callstack 0
   168   000818                     _second_5:
   169                           	callstack 0
   170   000818  0F23               	dw	3875
   171   00081A                     __end_of_second_5:
   172                           	callstack 0
   173   00081A                     _second1:
   174                           	callstack 0
   175   00081A  F0DD               	dw	61661
   176   00081C                     __end_of_second1:
   177                           	callstack 0
   178   00081C                     _theft_attempt:
   179                           	callstack 0
   180   00081C  0C                 	db	12
   181   00081D                     __end_of_theft_attempt:
   182                           	callstack 0
   183   00081D                     _note_rejected:
   184                           	callstack 0
   185   00081D  0B                 	db	11
   186   00081E                     __end_of_note_rejected:
   187                           	callstack 0
   188   00081E                     _invalid_escrow:
   189                           	callstack 0
   190   00081E  0A                 	db	10
   191   00081F                     __end_of_invalid_escrow:
   192                           	callstack 0
   193   00081F                     _acept_disabled:
   194                           	callstack 0
   195   00081F  09                 	db	9
   196   000820                     __end_of_acept_disabled:
   197                           	callstack 0
   198   000820                     _cashbox_err:
   199                           	callstack 0
   200   000820  08                 	db	8
   201   000821                     __end_of_cashbox_err:
   202                           	callstack 0
   203   000821                     _note_removed:
   204                           	callstack 0
   205   000821  07                 	db	7
   206   000822                     __end_of_note_removed:
   207                           	callstack 0
   208   000822  06                 	db	6
   209   000823                     __end_of_just_reset:
   210                           	callstack 0
   211   000823                     _jammed_err:
   212                           	callstack 0
   213   000823  05                 	db	5
   214   000824                     __end_of_jammed_err:
   215                           	callstack 0
   216   000824                     _rom_error:
   217                           	callstack 0
   218   000824  04                 	db	4
   219   000825                     __end_of_rom_error:
   220                           	callstack 0
   221   000825                     _just_busy:
   222                           	callstack 0
   223   000825  03                 	db	3
   224   000826                     __end_of_just_busy:
   225                           	callstack 0
   226   000826                     _sens_error:
   227                           	callstack 0
   228   000826  02                 	db	2
   229   000827                     __end_of_sens_error:
   230                           	callstack 0
   231   000827                     _motr_error:
   232                           	callstack 0
   233   000827  01                 	db	1
   234   000828                     __end_of_motr_error:
   235                           	callstack 0
   236   000828                     _note_features:
   237                           	callstack 0
   238   000828  33                 	db	51
   239   000829                     __end_of_note_features:
   240                           	callstack 0
   241   000829                     _note_stacker:
   242                           	callstack 0
   243   000829  36                 	db	54
   244   00082A                     __end_of_note_stacker:
   245                           	callstack 0
   246   00082A                     _note_escrow:
   247                           	callstack 0
   248   00082A  35                 	db	53
   249   00082B                     __end_of_note_escrow:
   250                           	callstack 0
   251   00082B  34                 	db	52
   252   00082C                     __end_of_note_type:
   253                           	callstack 0
   254   00082C  33                 	db	51
   255   00082D                     __end_of_note_poll:
   256                           	callstack 0
   257   00082D  32                 	db	50
   258   00082E                     __end_of_note_security:
   259                           	callstack 0
   260   00082E                     _note_setup:
   261                           	callstack 0
   262   00082E  31                 	db	49
   263   00082F                     __end_of_note_setup:
   264                           	callstack 0
   265   00082F  30                 	db	48
   266   000830                     __end_of_note_reset:
   267                           	callstack 0
   268   000830  0003               	dw	3
   269   000832                     __end_of_mototime:
   270                           	callstack 0
   271   000000                     _PIR3bits	set	14755
   272   000000                     _T5CON	set	16282
   273   000000                     _T3CON	set	16294
   274   000000                     _T1CON	set	16306
   275   000000                     _OSCTUNE	set	14814
   276   000000                     _OSCFRQ	set	14815
   277   000000                     _U2ERRIRbits	set	15841
   278   000000                     _U2CON0bits	set	15834
   279   000000                     _U1ERRIRbits	set	15865
   280   000000                     _U1CON0bits	set	15858
   281   000000                     _SPI1CON0bits	set	15636
   282   000000                     _CM1CON0bits	set	16060
   283   000000                     _LATBbits	set	16315
   284   000000                     _LATAbits	set	16314
   285   000000                     _LATCbits	set	16316
   286   000000                     _TRISBbits	set	16323
   287   000000                     _T5GCONbits	set	16283
   288   000000                     _T5CONbits	set	16282
   289   000000                     _T3GCONbits	set	16295
   290   000000                     _T3CONbits	set	16294
   291   000000                     _T1GCONbits	set	16307
   292   000000                     _T1CONbits	set	16306
   293   000000                     _PIR0bits	set	14752
   294   000000                     _NVMADRL	set	14816
   295   000000                     _NVMCON1bits	set	14821
   296   000000                     _RB1PPS	set	14857
   297   000000                     _ANSELA	set	14912
   298   000000                     _ANSELB	set	14928
   299   000000                     _ANSELC	set	14944
   300   000000                     _DAC1CON1	set	16028
   301   000000                     _DAC1CON0	set	16030
   302   000000                     _CM1CON0	set	16060
   303   000000                     _LATA	set	16314
   304   000000                     _TRISA	set	16322
   305   000000                     _LATC	set	16316
   306   000000                     _LATB	set	16315
   307   000000                     _PORTAbits	set	16330
   308   000000                     _INTCON0bits	set	16338
   309   000000                     _TABLAT	set	16373
   310   000000                     _TBLPTRL	set	16374
   311   000000                     _TBLPTRH	set	16375
   312   000000                     _TBLPTRU	set	16376
   313   000000                     _TRISC	set	16324
   314   000000                     _TRISB	set	16323
   315   000000                     _INLVLC	set	14948
   316   000000                     _SLRCONC	set	14947
   317   000000                     _ODCONC	set	14946
   318   000000                     _RC3I2C	set	14954
   319   000000                     _WPUC	set	14945
   320   000000                     _WPUE	set	14977
   321   000000                     _INLVLB	set	14932
   322   000000                     _SLRCONB	set	14931
   323   000000                     _ODCONB	set	14930
   324   000000                     _RB1I2C	set	14938
   325   000000                     _WPUB	set	14929
   326   000000                     _INLVLA	set	14916
   327   000000                     _SLRCONA	set	14915
   328   000000                     _ODCONA	set	14914
   329   000000                     _WPUA	set	14913
   330   000000                     _INLVLE	set	14980
   331   000000                     _RB2I2C	set	14939
   332   000000                     _RC4I2C	set	14955
   333   000000                     _SPI1SCKPPS	set	15070
   334   000000                     _U2RXPPS	set	15080
   335   000000                     _SPI1RXB	set	15632
   336   000000                     _SPI1TXB	set	15633
   337   000000                     _SPI1TCNTL	set	15634
   338   000000                     _SPI1CON0	set	15636
   339   000000                     _SPI1SDIPPS	set	15071
   340   000000                     _U1RXPPS	set	15077
   341   000000                     _RB4PPS	set	14860
   342   000000                     _RB5PPS	set	14861
   343   000000                     _RC1PPS	set	14865
   344   000000                     _CMOUT	set	16064
   345   000000                     _TMR5L	set	16280
   346   000000                     _TMR5H	set	16281
   347   000000                     _T5GCON	set	16283
   348   000000                     _TMR3L	set	16292
   349   000000                     _TMR3H	set	16293
   350   000000                     _T3GCON	set	16295
   351   000000                     _TMR1L	set	16304
   352   000000                     _TMR1H	set	16305
   353   000000                     _T1GCON	set	16307
   354   000000                     _CM1PCH	set	16063
   355   000000                     _CM1NCH	set	16062
   356   000000                     _CM1CON1	set	16061
   357   000000                     _NVMCON2	set	14822
   358   000000                     _PCON0	set	16368
   359   000000                     _NVMDAT	set	14819
   360   000000                     _PIR2bits	set	14754
   361   000000                     _PIR4bits	set	14756
   362   000000                     _PMD0	set	14784
   363   000000                     _OSCCON1	set	14809
   364   000000                     _OSCCON3	set	14811
   365   000000                     _OSCEN	set	14813
   366   000000                     _PMD7	set	14791
   367   000000                     _PMD6	set	14790
   368   000000                     _PMD5	set	14789
   369   000000                     _PMD4	set	14788
   370   000000                     _PMD3	set	14787
   371   000000                     _PMD2	set	14786
   372   000000                     _PMD1	set	14785
   373   000000                     _T1CLK	set	16309
   374   000000                     _T1GATE	set	16308
   375   000000                     _PIR6bits	set	14758
   376   000000                     _T3CLK	set	16297
   377   000000                     _T3GATE	set	16296
   378   000000                     _PIR8bits	set	14760
   379   000000                     _T5CLK	set	16285
   380   000000                     _T5GATE	set	16284
   381   000000                     _SPI1BAUD	set	15641
   382   000000                     _SPI1CLK	set	15644
   383   000000                     _SPI1CON2	set	15638
   384   000000                     _SPI1CON1	set	15637
   385   000000                     _U2RXB	set	15824
   386   000000                     _U2P1L	set	15828
   387   000000                     _U1RXB	set	15848
   388   000000                     _U1P1L	set	15852
   389   000000                     _U1ERRIE	set	15866
   390   000000                     _U1ERRIR	set	15865
   391   000000                     _U1UIR	set	15864
   392   000000                     _U1FIFO	set	15863
   393   000000                     _U1BRGH	set	15862
   394   000000                     _U1BRGL	set	15861
   395   000000                     _U1CON2	set	15860
   396   000000                     _U1CON1	set	15859
   397   000000                     _U1CON0	set	15858
   398   000000                     _U1P3H	set	15857
   399   000000                     _U1P3L	set	15856
   400   000000                     _U1P2H	set	15855
   401   000000                     _U1P2L	set	15854
   402   000000                     _U1P1H	set	15853
   403   000000                     _U1TXB	set	15850
   404   000000                     _U2P2L	set	15830
   405   000000                     _U2P3L	set	15832
   406   000000                     _U2CON0	set	15834
   407   000000                     _U2ERRIE	set	15842
   408   000000                     _U2ERRIR	set	15841
   409   000000                     _U2UIR	set	15840
   410   000000                     _U2FIFO	set	15839
   411   000000                     _U2BRGH	set	15838
   412   000000                     _U2BRGL	set	15837
   413   000000                     _U2CON2	set	15836
   414   000000                     _U2CON1	set	15835
   415   000000                     _U2TXB	set	15826
   416   000000                     _PCON1bits	set	16369
   417   000832  00                 	db	0	; dummy byte at the end
   418   000000                     
   419                           ; #config settings
   420                           
   421                           	psect	cinit
   422   0012D6                     __pcinit:
   423                           	callstack 0
   424   0012D6                     start_initialization:
   425                           	callstack 0
   426   0012D6                     __initialization:
   427                           	callstack 0
   428                           
   429                           ; Initialize objects allocated to COMRAM (1 bytes)
   430                           ; load TBLPTR registers with __pidataCOMRAM
   431   0012D6  0EB4               	movlw	low __pidataCOMRAM
   432   0012D8  6EF6               	movwf	tblptrl,c
   433   0012DA  0E14               	movlw	high __pidataCOMRAM
   434   0012DC  6EF7               	movwf	tblptrh,c
   435   0012DE  0E00               	movlw	low (__pidataCOMRAM shr (0+16))
   436   0012E0  6EF8               	movwf	tblptru,c
   437   0012E2  0009               	tblrd		*+	;fetch initializer
   438   0012E4  006F FFD4  F05A    	movff	tablat,__pdataCOMRAM
   439                           
   440                           ; Clear objects allocated to COMRAM (72 bytes)
   441   0012EA  EE00  F001         	lfsr	0,__pbssCOMRAM
   442   0012EE  0E48               	movlw	72
   443   0012F0                     clear_0:
   444   0012F0  6AEE               	clrf	postinc0,c
   445   0012F2  06E8               	decf	wreg,f,c
   446   0012F4  E1FD               	bnz	clear_0
   447   0012F6                     end_of_initialization:
   448                           	callstack 0
   449   0012F6                     __end_of__initialization:
   450                           	callstack 0
   451   0012F6  0E00               	movlw	low (__Lmediumconst shr (0+16))
   452   0012F8  6EF8               	movwf	tblptru,c
   453   0012FA  0100               	movlb	0
   454   0012FC  EF1A  F004         	goto	_main	;jump to C main() function
   455                           
   456                           	psect	bssCOMRAM
   457   000001                     __pbssCOMRAM:
   458                           	callstack 0
   459   000001                     _mdbdata:
   460                           	callstack 0
   461   000001                     	ds	33
   462   000022                     _dbcount:
   463                           	callstack 0
   464   000022                     	ds	2
   465   000024                     _venflags:
   466                           	callstack 0
   467   000024                     	ds	2
   468   000026                     _UART2_ErrorHandler:
   469                           	callstack 0
   470   000026                     	ds	2
   471   000028                     _UART2_OverrunErrorHandler:
   472                           	callstack 0
   473   000028                     	ds	2
   474   00002A                     _UART2_FramingErrorHandler:
   475                           	callstack 0
   476   00002A                     	ds	2
   477   00002C                     _UART1_ErrorHandler:
   478                           	callstack 0
   479   00002C                     	ds	2
   480   00002E                     _UART1_OverrunErrorHandler:
   481                           	callstack 0
   482   00002E                     	ds	2
   483   000030                     _UART1_FramingErrorHandler:
   484                           	callstack 0
   485   000030                     	ds	2
   486   000032                     _timer5ReloadVal:
   487                           	callstack 0
   488   000032                     	ds	2
   489   000034                     _timer3ReloadVal:
   490                           	callstack 0
   491   000034                     	ds	2
   492   000036                     _timer1ReloadVal:
   493                           	callstack 0
   494   000036                     	ds	2
   495   000038                     _mdbtxbyte:
   496                           	callstack 0
   497   000038                     	ds	1
   498   000039                     _errorflags:
   499                           	callstack 0
   500   000039                     	ds	1
   501   00003A                     _noteen_byte:
   502                           	callstack 0
   503   00003A                     	ds	1
   504   00003B                     _noteen:
   505                           	callstack 0
   506   00003B                     	ds	1
   507   00003C                     _mdbflags:
   508                           	callstack 0
   509   00003C                     	ds	1
   510   00003D                     _chkbyte:
   511                           	callstack 0
   512   00003D                     	ds	1
   513   00003E                     _notebyte:
   514                           	callstack 0
   515   00003E                     	ds	1
   516   00003F                     _mcount:
   517                           	callstack 0
   518   00003F                     	ds	1
   519   000040                     _slvadd:
   520                           	callstack 0
   521   000040                     	ds	1
   522   000041                     _vendprice:
   523                           	callstack 0
   524   000041                     	ds	1
   525   000042                     _buttons:
   526                           	callstack 0
   527   000042                     	ds	1
   528   000043                     _cash:
   529                           	callstack 0
   530   000043                     	ds	1
   531   000044                     _credit:
   532                           	callstack 0
   533   000044                     	ds	1
   534   000045                     _uart2RxLastError:
   535                           	callstack 0
   536   000045                     	ds	1
   537   000046                     _uart1RxLastError:
   538                           	callstack 0
   539   000046                     	ds	1
   540   000047                     _timeout:
   541                           	callstack 0
   542   000047                     	ds	2
   543                           
   544                           	psect	dataCOMRAM
   545   00005A                     __pdataCOMRAM:
   546                           	callstack 0
   547   00005A                     _notenum:
   548                           	callstack 0
   549   00005A                     	ds	1
   550                           
   551                           	psect	cstackCOMRAM
   552   000049                     __pcstackCOMRAM:
   553                           	callstack 0
   554   000049                     ??_TMR3_Initialize:
   555   000049                     ??_TMR5_Initialize:
   556   000049                     ??_TMR1_Initialize:
   557   000049                     ??_switch_read:
   558   000049                     ?_TMR1_ReadTimer:
   559                           	callstack 0
   560   000049                     DATAEE_WriteByte@bData:
   561                           	callstack 0
   562   000049                     DATAEE_ReadByte@bAdd:
   563                           	callstack 0
   564   000049                     UART1_Write@txData:
   565                           	callstack 0
   566   000049                     UART1_SetAddresstoTransmit@txAddress:
   567                           	callstack 0
   568   000049                     init_mdbdata@initdata:
   569                           	callstack 0
   570   000049                     TMR1_WriteTimer@timerVal:
   571                           	callstack 0
   572   000049                     UART1_SetFramingErrorHandler@interruptHandler:
   573                           	callstack 0
   574   000049                     UART1_SetOverrunErrorHandler@interruptHandler:
   575                           	callstack 0
   576   000049                     UART1_SetErrorHandler@interruptHandler:
   577                           	callstack 0
   578   000049                     UART2_SetFramingErrorHandler@interruptHandler:
   579                           	callstack 0
   580   000049                     UART2_SetOverrunErrorHandler@interruptHandler:
   581                           	callstack 0
   582   000049                     UART2_SetErrorHandler@interruptHandler:
   583                           	callstack 0
   584                           
   585                           ; 2 bytes @ 0x0
   586   000049                     	ds	1
   587   00004A                     ??_vend_init:
   588   00004A                     DATAEE_WriteByte@bAdd:
   589                           	callstack 0
   590   00004A                     init_mdbdata@i:
   591                           	callstack 0
   592   00004A                     mdb_transmit@txbyte:
   593                           	callstack 0
   594                           
   595                           ; 1 bytes @ 0x1
   596   00004A                     	ds	1
   597   00004B                     ??_button_flash:
   598   00004B                     ??_TMR1_ReadTimer:
   599   00004B                     DATAEE_WriteByte@GIEBitValue:
   600                           	callstack 0
   601   00004B                     mdb_comm@mcount:
   602                           	callstack 0
   603                           
   604                           ; 1 bytes @ 0x2
   605   00004B                     	ds	1
   606   00004C                     credit_add@credit:
   607                           	callstack 0
   608   00004C                     credit_subtract@credit:
   609                           	callstack 0
   610   00004C                     mdb_comm@slvadd:
   611                           	callstack 0
   612   00004C                     vend_init@timeval:
   613                           	callstack 0
   614                           
   615                           ; 2 bytes @ 0x3
   616   00004C                     	ds	1
   617   00004D                     ??_coin_in:
   618   00004D                     mdb_comm@i:
   619                           	callstack 0
   620   00004D                     TMR1_ReadTimer@readVal:
   621                           	callstack 0
   622                           
   623                           ; 2 bytes @ 0x4
   624   00004D                     	ds	1
   625   00004E                     
   626                           ; 1 bytes @ 0x5
   627   00004E                     	ds	1
   628   00004F                     TMR1_ReadTimer@readValHigh:
   629                           	callstack 0
   630   00004F                     mdb_reset@i_2155:
   631                           	callstack 0
   632                           
   633                           ; 1 bytes @ 0x6
   634   00004F                     	ds	1
   635   000050                     ??_mdb_init:
   636   000050                     TMR1_ReadTimer@readValLow:
   637                           	callstack 0
   638                           
   639                           ; 1 bytes @ 0x7
   640   000050                     	ds	1
   641   000051                     Set_Timeout@readValLow:
   642                           	callstack 0
   643                           
   644                           ; 1 bytes @ 0x8
   645   000051                     	ds	1
   646   000052                     Set_Timeout@readValHigh:
   647                           	callstack 0
   648                           
   649                           ; 1 bytes @ 0x9
   650   000052                     	ds	1
   651   000053                     Set_Timeout@timeval:
   652                           	callstack 0
   653                           
   654                           ; 2 bytes @ 0xA
   655   000053                     	ds	2
   656   000055                     ??_enter_service:
   657                           
   658                           ; 1 bytes @ 0xC
   659   000055                     	ds	2
   660   000057                     ??_main:
   661                           
   662                           ; 1 bytes @ 0xE
   663   000057                     	ds	3
   664                           
   665 ;;
   666 ;;Main: autosize = 0, tempsize = 3, incstack = 0, save=0
   667 ;;
   668 ;; *************** function _main *****************
   669 ;; Defined at:
   670 ;;		line 55 in file "main.c"
   671 ;; Parameters:    Size  Location     Type
   672 ;;		None
   673 ;; Auto vars:     Size  Location     Type
   674 ;;		None
   675 ;; Return value:  Size  Location     Type
   676 ;;                  1    wreg      void 
   677 ;; Registers used:
   678 ;;		wreg, fsr2l, fsr2h, status,2, status,0, pcl, pclath, pclatu, tosl, cstack
   679 ;; Tracked objects:
   680 ;;		On entry : 0/0
   681 ;;		On exit  : 0/0
   682 ;;		Unchanged: 0/0
   683 ;; Data sizes:     COMRAM   BANK0   BANK1   BANK2   BANK3   BANK4   BANK5   BANK6   BANK7
   684 ;;      Params:         0       0       0       0       0       0       0       0       0
   685 ;;      Locals:         0       0       0       0       0       0       0       0       0
   686 ;;      Temps:          3       0       0       0       0       0       0       0       0
   687 ;;      Totals:         3       0       0       0       0       0       0       0       0
   688 ;;Total ram usage:        3 bytes
   689 ;; Hardware stack levels required when called: 5
   690 ;; This function calls:
   691 ;;		_CMP1_GetOutputStatus
   692 ;;		_DATAEE_WriteByte
   693 ;;		_SYSTEM_Initialize
   694 ;;		_button_flash
   695 ;;		_coin_in
   696 ;;		_credit_check
   697 ;;		_dispense
   698 ;;		_enter_service
   699 ;;		_mdb_init
   700 ;;		_vend_init
   701 ;; This function is called by:
   702 ;;		Startup code after reset
   703 ;; This function uses a non-reentrant model
   704 ;;
   705                           
   706                           	psect	text0
   707   000834                     __ptext0:
   708                           	callstack 0
   709   000834                     _main:
   710                           	callstack 26
   711   000834                     
   712                           ;main.c: 59:     if((PCON0 == 0x3C | 0x3D) & PCON1bits.MEMV)
   713   000834  0E3C               	movlw	60
   714   000836  18F0               	xorwf	240,w,c	;volatile
   715   000838  B4D8               	btfsc	status,2,c
   716   00083A  EF21  F004         	goto	u1301
   717   00083E  EF24  F004         	goto	u1300
   718   000842                     u1301:
   719   000842  0E01               	movlw	1
   720   000844  EF25  F004         	goto	u1310
   721   000848                     u1300:
   722   000848  0E00               	movlw	0
   723   00084A                     u1310:
   724   00084A  6E57               	movwf	??_main^0,c
   725   00084C  6A58               	clrf	(??_main+1)^0,c
   726   00084E  0E3D               	movlw	61
   727   000850  1257               	iorwf	??_main^0,f,c
   728   000852  0E00               	movlw	0
   729   000854  1258               	iorwf	(??_main+1)^0,f,c
   730   000856  B2F1               	btfsc	241,1,c	;volatile
   731   000858  EF30  F004         	goto	u1321
   732   00085C  EF34  F004         	goto	u1320
   733   000860                     u1321:
   734   000860  6A59               	clrf	(??_main+2)^0,c
   735   000862  2A59               	incf	(??_main+2)^0,f,c
   736   000864  EF35  F004         	goto	u1328
   737   000868                     u1320:
   738   000868  6A59               	clrf	(??_main+2)^0,c
   739   00086A                     u1328:
   740   00086A  5059               	movf	(??_main+2)^0,w,c
   741   00086C  1657               	andwf	??_main^0,f,c
   742   00086E  0E00               	movlw	0
   743   000870  1658               	andwf	(??_main+1)^0,f,c
   744   000872  5057               	movf	??_main^0,w,c
   745   000874  1058               	iorwf	(??_main+1)^0,w,c
   746   000876  B4D8               	btfsc	status,2,c
   747   000878  EF40  F004         	goto	u1331
   748   00087C  EF42  F004         	goto	u1330
   749   000880                     u1331:
   750   000880  EF4C  F004         	goto	l3231
   751   000884                     u1330:
   752   000884  0E00               	movlw	0
   753   000886  6E49               	movwf	DATAEE_WriteByte@bData^0,c
   754   000888  0E02               	movlw	2
   755   00088A  EC69  F008         	call	_DATAEE_WriteByte
   756   00088E  0E00               	movlw	0
   757   000890  6E49               	movwf	DATAEE_WriteByte@bData^0,c
   758   000892  0E00               	movlw	0
   759   000894  EC69  F008         	call	_DATAEE_WriteByte
   760   000898                     l3231:
   761                           
   762                           ;main.c: 64:     SYSTEM_Initialize();
   763   000898  EC28  F009         	call	_SYSTEM_Initialize	;wreg free
   764   00089C  8CBC               	bsf	188,6,c	;volatile
   765   00089E                     
   766                           ;main.c: 66:     vend_init();
   767   00089E  EC8C  F006         	call	_vend_init	;wreg free
   768   0008A2  8ABC               	bsf	188,5,c	;volatile
   769   0008A4                     
   770                           ;main.c: 68:     mdb_init();
   771   0008A4  EC8C  F008         	call	_mdb_init	;wreg free
   772   0008A8  9CBC               	bcf	188,6,c	;volatile
   773   0008AA  9ABC               	bcf	188,5,c	;volatile
   774   0008AC                     l3245:
   775                           
   776                           ;main.c: 83:     {;main.c: 84:         if(!PORTAbits.RA3)
   777   0008AC  B6CA               	btfsc	202,3,c	;volatile
   778   0008AE  EF5B  F004         	goto	u1341
   779   0008B2  EF5D  F004         	goto	u1340
   780   0008B6                     u1341:
   781   0008B6  EF7D  F004         	goto	l3255
   782   0008BA                     u1340:
   783   0008BA                     
   784                           ;main.c: 85:         {;main.c: 86:             enter_service();
   785   0008BA  EC89  F005         	call	_enter_service	;wreg free
   786   0008BE  EF7D  F004         	goto	l3255
   787   0008C2                     l805:
   788   0008C2  9ABC               	bcf	188,5,c	;volatile
   789   0008C4  8CBC               	bsf	188,6,c	;volatile
   790   0008C6                     
   791                           ;main.c: 93:             _delay((unsigned long)((100)*(12000000/4000.0)));
   792   0008C6  0E02               	movlw	2
   793   0008C8  6E58               	movwf	(??_main+1)^0,c
   794   0008CA  0E86               	movlw	134
   795   0008CC  6E57               	movwf	??_main^0,c
   796   0008CE  0E99               	movlw	153
   797   0008D0                     u1477:
   798   0008D0  2EE8               	decfsz	wreg,f,c
   799   0008D2  D7FE               	bra	u1477
   800   0008D4  2E57               	decfsz	??_main^0,f,c
   801   0008D6  D7FC               	bra	u1477
   802   0008D8  2E58               	decfsz	(??_main+1)^0,f,c
   803   0008DA  D7FA               	bra	u1477
   804   0008DC  F000               	nop	
   805   0008DE  8ABC               	bsf	188,5,c	;volatile
   806   0008E0  9CBC               	bcf	188,6,c	;volatile
   807   0008E2                     
   808                           ;main.c: 96:             _delay((unsigned long)((100)*(12000000/4000.0)));
   809   0008E2  0E02               	movlw	2
   810   0008E4  6E58               	movwf	(??_main+1)^0,c
   811   0008E6  0E86               	movlw	134
   812   0008E8  6E57               	movwf	??_main^0,c
   813   0008EA  0E99               	movlw	153
   814   0008EC                     u1487:
   815   0008EC  2EE8               	decfsz	wreg,f,c
   816   0008EE  D7FE               	bra	u1487
   817   0008F0  2E57               	decfsz	??_main^0,f,c
   818   0008F2  D7FC               	bra	u1487
   819   0008F4  2E58               	decfsz	(??_main+1)^0,f,c
   820   0008F6  D7FA               	bra	u1487
   821   0008F8  F000               	nop	
   822   0008FA                     l3255:
   823                           
   824                           ;main.c: 89:         while(!CMP1_GetOutputStatus())
   825   0008FA  ECEC  F009         	call	_CMP1_GetOutputStatus	;wreg free
   826   0008FE  0900               	iorlw	0
   827   000900  B4D8               	btfsc	status,2,c
   828   000902  EF85  F004         	goto	u1351
   829   000906  EF87  F004         	goto	u1350
   830   00090A                     u1351:
   831   00090A  EF61  F004         	goto	l805
   832   00090E                     u1350:
   833   00090E                     
   834                           ;main.c: 99:         if(venflags.error)
   835   00090E  A224               	btfss	_venflags^0,1,c
   836   000910  EF8C  F004         	goto	u1361
   837   000914  EF8E  F004         	goto	u1360
   838   000918                     u1361:
   839   000918  EF91  F004         	goto	l818
   840   00091C                     u1360:
   841   00091C  98BA               	bcf	186,4,c	;volatile
   842   00091E  EF92  F004         	goto	l817
   843   000922                     l818:
   844   000922  88BA               	bsf	186,4,c	;volatile
   845   000924                     l817:
   846                           
   847                           ;main.c: 108:         if(!PORTAbits.RA5)
   848   000924  BACA               	btfsc	202,5,c	;volatile
   849   000926  EF97  F004         	goto	u1371
   850   00092A  EF99  F004         	goto	u1370
   851   00092E                     u1371:
   852   00092E  EF9B  F004         	goto	l3259
   853   000932                     u1370:
   854   000932                     
   855                           ;main.c: 109:         {;main.c: 110:             coin_in();
   856   000932  EC41  F008         	call	_coin_in	;wreg free
   857   000936                     l3259:
   858                           
   859                           ;main.c: 113:         if(venflags.error)
   860   000936  A224               	btfss	_venflags^0,1,c
   861   000938  EFA0  F004         	goto	u1381
   862   00093C  EFA2  F004         	goto	u1380
   863   000940                     u1381:
   864   000940  EFA4  F004         	goto	l821
   865   000944                     u1380:
   866   000944                     
   867                           ;main.c: 114:         {;main.c: 115:             button_flash();
   868   000944  EC19  F008         	call	_button_flash	;wreg free
   869   000948                     l821:
   870                           
   871                           ;main.c: 118:         if(credit_check() >= vendprice)
   872   000948  EC23  F00A         	call	_credit_check	;wreg free
   873   00094C  6E57               	movwf	??_main^0,c
   874   00094E  5041               	movf	_vendprice^0,w,c	;volatile
   875   000950  5C57               	subwf	??_main^0,w,c
   876   000952  A0D8               	btfss	status,0,c
   877   000954  EFAE  F004         	goto	u1391
   878   000958  EFB0  F004         	goto	u1390
   879   00095C                     u1391:
   880   00095C  EFB3  F004         	goto	l822
   881   000960                     u1390:
   882   000960                     
   883                           ;main.c: 119:         {;main.c: 120:             venflags.crednuff = 1;
   884   000960  8425               	bsf	(_venflags+1)^0,2,c
   885                           
   886                           ;main.c: 121:         }
   887   000962  EFB4  F004         	goto	l823
   888   000966                     l822:
   889                           
   890                           ;main.c: 123:         {;main.c: 124:             venflags.crednuff = 0;
   891   000966  9425               	bcf	(_venflags+1)^0,2,c
   892   000968                     l823:
   893                           
   894                           ;main.c: 127:         if(PIR8bits.TMR5IF)
   895   000968  0139               	movlb	57	; () banked
   896   00096A  ADA8               	btfss	168,6,b	;volatile
   897   00096C  EFBA  F004         	goto	u1401
   898   000970  EFBC  F004         	goto	u1400
   899   000974                     u1401:
   900   000974  EFBD  F004         	goto	l824
   901   000978                     u1400:
   902   000978                     
   903                           ; BSR set to: 57
   904                           ;main.c: 128:         {;main.c: 129:             venflags.t5time = 1;
   905   000978  8625               	bsf	(_venflags+1)^0,3,c
   906   00097A                     l824:
   907                           
   908                           ; BSR set to: 57
   909                           ;main.c: 132:         if(venflags.crednuff && venflags.t5time)
   910   00097A  A425               	btfss	(_venflags+1)^0,2,c
   911   00097C  EFC2  F004         	goto	u1411
   912   000980  EFC4  F004         	goto	u1410
   913   000984                     u1411:
   914   000984  EF56  F004         	goto	l3245
   915   000988                     u1410:
   916   000988                     
   917                           ; BSR set to: 57
   918   000988  A625               	btfss	(_venflags+1)^0,3,c
   919   00098A  EFC9  F004         	goto	u1421
   920   00098E  EFCB  F004         	goto	u1420
   921   000992                     u1421:
   922   000992  EF56  F004         	goto	l3245
   923   000996                     u1420:
   924   000996                     
   925                           ; BSR set to: 57
   926                           ;main.c: 133:         {;main.c: 134:             if(!venflags.error)
   927   000996  B224               	btfsc	_venflags^0,1,c
   928   000998  EFD0  F004         	goto	u1431
   929   00099C  EFD2  F004         	goto	u1430
   930   0009A0                     u1431:
   931   0009A0  EFD4  F004         	goto	l826
   932   0009A4                     u1430:
   933   0009A4                     
   934                           ; BSR set to: 57
   935   0009A4  98BA               	bcf	186,4,c	;volatile
   936   0009A6                     
   937                           ; BSR set to: 57
   938   0009A6  8CBC               	bsf	188,6,c	;volatile
   939   0009A8                     l826:
   940                           
   941                           ; BSR set to: 57
   942                           ;main.c: 139:             if(!PORTAbits.RA6 && !venflags.error)
   943   0009A8  BCCA               	btfsc	202,6,c	;volatile
   944   0009AA  EFD9  F004         	goto	u1441
   945   0009AE  EFDB  F004         	goto	u1440
   946   0009B2                     u1441:
   947   0009B2  EF56  F004         	goto	l3245
   948   0009B6                     u1440:
   949   0009B6                     
   950                           ; BSR set to: 57
   951   0009B6  B224               	btfsc	_venflags^0,1,c
   952   0009B8  EFE0  F004         	goto	u1451
   953   0009BC  EFE2  F004         	goto	u1450
   954   0009C0                     u1451:
   955   0009C0  EF56  F004         	goto	l3245
   956   0009C4                     u1450:
   957   0009C4                     
   958                           ; BSR set to: 57
   959                           ;main.c: 140:             {;main.c: 141:                 dispense();
   960   0009C4  EC52  F007         	call	_dispense	;wreg free
   961   0009C8  EF56  F004         	goto	l3245
   962   0009CC  EFFE  F03F         	goto	start
   963   0009D0                     __end_of_main:
   964                           	callstack 0
   965                           
   966 ;; *************** function _vend_init *****************
   967 ;; Defined at:
   968 ;;		line 9 in file "vend.c"
   969 ;; Parameters:    Size  Location     Type
   970 ;;		None
   971 ;; Auto vars:     Size  Location     Type
   972 ;;  timeval         2    3[COMRAM] PTR unsigned char 
   973 ;;		 -> timeout(2), 
   974 ;; Return value:  Size  Location     Type
   975 ;;                  1    wreg      void 
   976 ;; Registers used:
   977 ;;		wreg, fsr2l, fsr2h, status,2, status,0, cstack
   978 ;; Tracked objects:
   979 ;;		On entry : 0/0
   980 ;;		On exit  : 0/0
   981 ;;		Unchanged: 0/0
   982 ;; Data sizes:     COMRAM   BANK0   BANK1   BANK2   BANK3   BANK4   BANK5   BANK6   BANK7
   983 ;;      Params:         0       0       0       0       0       0       0       0       0
   984 ;;      Locals:         2       0       0       0       0       0       0       0       0
   985 ;;      Temps:          2       0       0       0       0       0       0       0       0
   986 ;;      Totals:         4       0       0       0       0       0       0       0       0
   987 ;;Total ram usage:        4 bytes
   988 ;; Hardware stack levels used: 1
   989 ;; Hardware stack levels required when called: 1
   990 ;; This function calls:
   991 ;;		_DATAEE_ReadByte
   992 ;; This function is called by:
   993 ;;		_main
   994 ;; This function uses a non-reentrant model
   995 ;;
   996                           
   997                           	psect	text1
   998   000D18                     __ptext1:
   999                           	callstack 0
  1000   000D18                     _vend_init:
  1001                           	callstack 29
  1002   000D18                     
  1003                           ;vend.c: 11:     venflags.bflash = 0;
  1004   000D18  9225               	bcf	(_venflags+1)^0,1,c
  1005                           
  1006                           ;vend.c: 12:     venflags.priceset = 0;
  1007   000D1A  9824               	bcf	_venflags^0,4,c
  1008   000D1C  8CBC               	bsf	188,6,c	;volatile
  1009   000D1E                     
  1010                           ;vend.c: 14:     uint8_t *timeval = &timeout;
  1011   000D1E  0E47               	movlw	low _timeout
  1012   000D20  6E4C               	movwf	vend_init@timeval^0,c
  1013   000D22  0E00               	movlw	high _timeout
  1014   000D24  6E4D               	movwf	(vend_init@timeval+1)^0,c
  1015   000D26  0E03               	movlw	3
  1016   000D28  ECC6  F009         	call	_DATAEE_ReadByte
  1017   000D2C  0060  F133  FFD9   	movff	vend_init@timeval,fsr2l
  1018   000D32  0060  F137  FFDA   	movff	vend_init@timeval+1,fsr2h
  1019   000D38  6EDF               	movwf	indf2,c
  1020   000D3A  EE20 F001          	lfsr	2,1
  1021   000D3E  504C               	movf	vend_init@timeval^0,w,c
  1022   000D40  26D9               	addwf	fsr2l,f,c
  1023   000D42  504D               	movf	(vend_init@timeval+1)^0,w,c
  1024   000D44  22DA               	addwfc	fsr2h,f,c
  1025   000D46  0E04               	movlw	4
  1026   000D48  ECC6  F009         	call	_DATAEE_ReadByte
  1027   000D4C  6EDF               	movwf	indf2,c
  1028   000D4E  0E01               	movlw	1
  1029   000D50  ECC6  F009         	call	_DATAEE_ReadByte
  1030   000D54  6E41               	movwf	_vendprice^0,c	;volatile
  1031   000D56  0E00               	movlw	0
  1032   000D58  ECC6  F009         	call	_DATAEE_ReadByte
  1033   000D5C  6E44               	movwf	_credit^0,c	;volatile
  1034                           
  1035                           ;vend.c: 19:     DAC1CON1 = 0x0C;
  1036   000D5E  0E0C               	movlw	12
  1037   000D60  013E               	movlb	62	; () banked
  1038   000D62  6F9C               	movwf	156,b	;volatile
  1039   000D64                     
  1040                           ; BSR set to: 62
  1041                           ;vend.c: 20:     _delay((unsigned long)((250)*(12000000/4000.0)));
  1042   000D64  0E04               	movlw	4
  1043   000D66  6E4B               	movwf	(??_vend_init+1)^0,c
  1044   000D68  0ECF               	movlw	207
  1045   000D6A  6E4A               	movwf	??_vend_init^0,c
  1046   000D6C  0E02               	movlw	2
  1047   000D6E                     u1497:
  1048   000D6E  2EE8               	decfsz	wreg,f,c
  1049   000D70  D7FE               	bra	u1497
  1050   000D72  2E4A               	decfsz	??_vend_init^0,f,c
  1051   000D74  D7FC               	bra	u1497
  1052   000D76  2E4B               	decfsz	(??_vend_init+1)^0,f,c
  1053   000D78  D7FA               	bra	u1497
  1054   000D7A  0E02               	movlw	2
  1055   000D7C  ECC6  F009         	call	_DATAEE_ReadByte
  1056   000D80  0900               	iorlw	0
  1057   000D82  B4D8               	btfsc	status,2,c
  1058   000D84  EFC6  F006         	goto	u431
  1059   000D88  EFC8  F006         	goto	u430
  1060   000D8C                     u431:
  1061   000D8C  EFCC  F006         	goto	l915
  1062   000D90                     u430:
  1063   000D90  98BA               	bcf	186,4,c	;volatile
  1064   000D92                     
  1065                           ;vend.c: 24:         venflags.error = 1;
  1066   000D92  8224               	bsf	_venflags^0,1,c
  1067                           
  1068                           ;vend.c: 25:     }
  1069   000D94  EFCE  F006         	goto	l917
  1070   000D98                     l915:
  1071   000D98  88BA               	bsf	186,4,c	;volatile
  1072   000D9A                     
  1073                           ;vend.c: 29:         venflags.error = 0;
  1074   000D9A  9224               	bcf	_venflags^0,1,c
  1075   000D9C                     l917:
  1076   000D9C  0012               	return		;funcret
  1077   000D9E                     __end_of_vend_init:
  1078                           	callstack 0
  1079                           
  1080 ;; *************** function _mdb_init *****************
  1081 ;; Defined at:
  1082 ;;		line 21 in file "mdb.c"
  1083 ;; Parameters:    Size  Location     Type
  1084 ;;		None
  1085 ;; Auto vars:     Size  Location     Type
  1086 ;;  i               1    0        unsigned char 
  1087 ;; Return value:  Size  Location     Type
  1088 ;;                  1    wreg      void 
  1089 ;; Registers used:
  1090 ;;		wreg, fsr2l, fsr2h, status,2, status,0, pcl, pclath, pclatu, tosl, cstack
  1091 ;; Tracked objects:
  1092 ;;		On entry : 0/0
  1093 ;;		On exit  : 0/0
  1094 ;;		Unchanged: 0/0
  1095 ;; Data sizes:     COMRAM   BANK0   BANK1   BANK2   BANK3   BANK4   BANK5   BANK6   BANK7
  1096 ;;      Params:         0       0       0       0       0       0       0       0       0
  1097 ;;      Locals:         0       0       0       0       0       0       0       0       0
  1098 ;;      Temps:          2       0       0       0       0       0       0       0       0
  1099 ;;      Totals:         2       0       0       0       0       0       0       0       0
  1100 ;;Total ram usage:        2 bytes
  1101 ;; Hardware stack levels used: 1
  1102 ;; Hardware stack levels required when called: 4
  1103 ;; This function calls:
  1104 ;;		_UART1_Initialize
  1105 ;;		_mdb_comm
  1106 ;;		_mdb_noten
  1107 ;;		_mdb_reset
  1108 ;;		_mdb_security
  1109 ;; This function is called by:
  1110 ;;		_main
  1111 ;; This function uses a non-reentrant model
  1112 ;;
  1113                           
  1114                           	psect	text2
  1115   001118                     __ptext2:
  1116                           	callstack 0
  1117   001118                     _mdb_init:
  1118                           	callstack 26
  1119   001118                     
  1120                           ;mdb.c: 23:     _delay((unsigned long)((250)*(12000000/4000.0)));
  1121   001118  0E04               	movlw	4
  1122   00111A  6E51               	movwf	(??_mdb_init+1)^0,c
  1123   00111C  0ECF               	movlw	207
  1124   00111E  6E50               	movwf	??_mdb_init^0,c
  1125   001120  0E02               	movlw	2
  1126   001122                     u1507:
  1127   001122  2EE8               	decfsz	wreg,f,c
  1128   001124  D7FE               	bra	u1507
  1129   001126  2E50               	decfsz	??_mdb_init^0,f,c
  1130   001128  D7FC               	bra	u1507
  1131   00112A  2E51               	decfsz	(??_mdb_init+1)^0,f,c
  1132   00112C  D7FA               	bra	u1507
  1133   00112E                     
  1134                           ;mdb.c: 25:     ((uint8_t*) &noteen)[0] = noteen_byte;
  1135   00112E  C03A  F03B         	movff	_noteen_byte,_noteen	;volatile
  1136   001132                     
  1137                           ;mdb.c: 26:     UART1_Initialize();
  1138   001132  EC8B  F007         	call	_UART1_Initialize	;wreg free
  1139   001136                     
  1140                           ;mdb.c: 27:     mdbflags.noteerr = 0;
  1141   001136  923C               	bcf	_mdbflags^0,1,c
  1142   001138                     
  1143                           ;mdb.c: 28:     mdbflags.isdata = 0;
  1144   001138  903C               	bcf	_mdbflags^0,0,c
  1145   00113A                     
  1146                           ;mdb.c: 29:     mdb_reset();
  1147   00113A  ECED  F007         	call	_mdb_reset	;wreg free
  1148   00113E                     
  1149                           ;mdb.c: 30:     mdb_noten();
  1150   00113E  EC80  F009         	call	_mdb_noten	;wreg free
  1151   001142                     
  1152                           ;mdb.c: 31:     mdb_security();
  1153   001142  EC01  F00A         	call	_mdb_security	;wreg free
  1154   001146  0E00               	movlw	0
  1155   001148  6E4B               	movwf	mdb_comm@mcount^0,c
  1156   00114A  0E33               	movlw	51
  1157   00114C  ECE8  F004         	call	_mdb_comm
  1158   001150  0012               	return		;funcret
  1159   001152                     __end_of_mdb_init:
  1160                           	callstack 0
  1161                           
  1162 ;; *************** function _mdb_security *****************
  1163 ;; Defined at:
  1164 ;;		line 153 in file "mdb.c"
  1165 ;; Parameters:    Size  Location     Type
  1166 ;;		None
  1167 ;; Auto vars:     Size  Location     Type
  1168 ;;		None
  1169 ;; Return value:  Size  Location     Type
  1170 ;;                  1    wreg      void 
  1171 ;; Registers used:
  1172 ;;		wreg, fsr2l, fsr2h, status,2, status,0, pcl, pclath, pclatu, tosl, cstack
  1173 ;; Tracked objects:
  1174 ;;		On entry : 0/0
  1175 ;;		On exit  : 0/0
  1176 ;;		Unchanged: 0/0
  1177 ;; Data sizes:     COMRAM   BANK0   BANK1   BANK2   BANK3   BANK4   BANK5   BANK6   BANK7
  1178 ;;      Params:         0       0       0       0       0       0       0       0       0
  1179 ;;      Locals:         0       0       0       0       0       0       0       0       0
  1180 ;;      Temps:          0       0       0       0       0       0       0       0       0
  1181 ;;      Totals:         0       0       0       0       0       0       0       0       0
  1182 ;;Total ram usage:        0 bytes
  1183 ;; Hardware stack levels used: 1
  1184 ;; Hardware stack levels required when called: 3
  1185 ;; This function calls:
  1186 ;;		_init_mdbdata
  1187 ;;		_mdb_comm
  1188 ;; This function is called by:
  1189 ;;		_mdb_init
  1190 ;; This function uses a non-reentrant model
  1191 ;;
  1192                           
  1193                           	psect	text3
  1194   001402                     __ptext3:
  1195                           	callstack 0
  1196   001402                     _mdb_security:
  1197                           	callstack 26
  1198   001402                     
  1199                           ;mdb.c: 155:     init_mdbdata(0x00);
  1200   001402  0E00               	movlw	0
  1201   001404  EC3F  F009         	call	_init_mdbdata
  1202   001408  0E01               	movlw	1
  1203   00140A  6E4B               	movwf	mdb_comm@mcount^0,c
  1204   00140C  0E32               	movlw	50
  1205   00140E  ECE8  F004         	call	_mdb_comm
  1206   001412  0012               	return		;funcret
  1207   001414                     __end_of_mdb_security:
  1208                           	callstack 0
  1209                           
  1210 ;; *************** function _mdb_reset *****************
  1211 ;; Defined at:
  1212 ;;		line 36 in file "mdb.c"
  1213 ;; Parameters:    Size  Location     Type
  1214 ;;		None
  1215 ;; Auto vars:     Size  Location     Type
  1216 ;;  i               1    0        unsigned char 
  1217 ;;  i               1    6[COMRAM] unsigned char 
  1218 ;; Return value:  Size  Location     Type
  1219 ;;                  1    wreg      unsigned char 
  1220 ;; Registers used:
  1221 ;;		wreg, fsr2l, fsr2h, status,2, status,0, pcl, pclath, pclatu, tosl, cstack
  1222 ;; Tracked objects:
  1223 ;;		On entry : 0/0
  1224 ;;		On exit  : 0/0
  1225 ;;		Unchanged: 0/0
  1226 ;; Data sizes:     COMRAM   BANK0   BANK1   BANK2   BANK3   BANK4   BANK5   BANK6   BANK7
  1227 ;;      Params:         0       0       0       0       0       0       0       0       0
  1228 ;;      Locals:         1       0       0       0       0       0       0       0       0
  1229 ;;      Temps:          1       0       0       0       0       0       0       0       0
  1230 ;;      Totals:         2       0       0       0       0       0       0       0       0
  1231 ;;Total ram usage:        2 bytes
  1232 ;; Hardware stack levels used: 1
  1233 ;; Hardware stack levels required when called: 3
  1234 ;; This function calls:
  1235 ;;		_mdb_comm
  1236 ;; This function is called by:
  1237 ;;		_mdb_init
  1238 ;; This function uses a non-reentrant model
  1239 ;;
  1240                           
  1241                           	psect	text4
  1242   000FDA                     __ptext4:
  1243                           	callstack 0
  1244   000FDA                     _mdb_reset:
  1245                           	callstack 26
  1246   000FDA                     
  1247                           ;mdb.c: 41:     mdbflags.timeout = 1;
  1248   000FDA  863C               	bsf	_mdbflags^0,3,c
  1249                           
  1250                           ;mdb.c: 42:     while(mdbflags.timeout)
  1251   000FDC  EFF5  F007         	goto	l3107
  1252   000FE0                     l3105:
  1253   000FE0  0E00               	movlw	0
  1254   000FE2  6E4B               	movwf	mdb_comm@mcount^0,c
  1255   000FE4  0E30               	movlw	48
  1256   000FE6  ECE8  F004         	call	_mdb_comm
  1257   000FEA                     l3107:
  1258                           
  1259                           ;mdb.c: 42:     while(mdbflags.timeout)
  1260   000FEA  B63C               	btfsc	_mdbflags^0,3,c
  1261   000FEC  EFFA  F007         	goto	u1151
  1262   000FF0  EFFC  F007         	goto	u1150
  1263   000FF4                     u1151:
  1264   000FF4  EFF0  F007         	goto	l3105
  1265   000FF8                     u1150:
  1266   000FF8  F000               	nop		;# 
  1267   000FFA  0E00               	movlw	0
  1268   000FFC  6E4B               	movwf	mdb_comm@mcount^0,c
  1269   000FFE  0E33               	movlw	51
  1270   001000  ECE8  F004         	call	_mdb_comm
  1271   001004  6E4F               	movwf	mdb_reset@i_2155^0,c
  1272   001006  064F               	decf	mdb_reset@i_2155^0,f,c
  1273   001008  0E01               	movlw	low _mdbdata
  1274   00100A  244F               	addwf	mdb_reset@i_2155^0,w,c
  1275   00100C  6ED9               	movwf	fsr2l,c
  1276   00100E  6ADA               	clrf	fsr2h,c
  1277   001010  0E00               	movlw	high _mdbdata
  1278   001012  22DA               	addwfc	fsr2h,f,c
  1279   001014  0E06               	movlw	6
  1280   001016  18DE               	xorwf	postinc2,w,c
  1281   001018  A4D8               	btfss	status,2,c
  1282   00101A  EF11  F008         	goto	u1161
  1283   00101E  EF13  F008         	goto	u1160
  1284   001022                     u1161:
  1285   001022  EF18  F008         	goto	l1159
  1286   001026                     u1160:
  1287   001026  0E00               	movlw	0
  1288   001028  6E4B               	movwf	mdb_comm@mcount^0,c
  1289   00102A  0E33               	movlw	51
  1290   00102C  ECE8  F004         	call	_mdb_comm
  1291   001030                     l1159:
  1292   001030  0012               	return		;funcret
  1293   001032                     __end_of_mdb_reset:
  1294                           	callstack 0
  1295                           
  1296 ;; *************** function _mdb_noten *****************
  1297 ;; Defined at:
  1298 ;;		line 137 in file "mdb.c"
  1299 ;; Parameters:    Size  Location     Type
  1300 ;;		None
  1301 ;; Auto vars:     Size  Location     Type
  1302 ;;		None
  1303 ;; Return value:  Size  Location     Type
  1304 ;;                  1    wreg      void 
  1305 ;; Registers used:
  1306 ;;		wreg, fsr2l, fsr2h, status,2, status,0, pcl, pclath, pclatu, tosl, cstack
  1307 ;; Tracked objects:
  1308 ;;		On entry : 0/0
  1309 ;;		On exit  : 0/0
  1310 ;;		Unchanged: 0/0
  1311 ;; Data sizes:     COMRAM   BANK0   BANK1   BANK2   BANK3   BANK4   BANK5   BANK6   BANK7
  1312 ;;      Params:         0       0       0       0       0       0       0       0       0
  1313 ;;      Locals:         0       0       0       0       0       0       0       0       0
  1314 ;;      Temps:          0       0       0       0       0       0       0       0       0
  1315 ;;      Totals:         0       0       0       0       0       0       0       0       0
  1316 ;;Total ram usage:        0 bytes
  1317 ;; Hardware stack levels used: 1
  1318 ;; Hardware stack levels required when called: 3
  1319 ;; This function calls:
  1320 ;;		_init_mdbdata
  1321 ;;		_mdb_comm
  1322 ;; This function is called by:
  1323 ;;		_mdb_init
  1324 ;;		_note_disable
  1325 ;; This function uses a non-reentrant model
  1326 ;;
  1327                           
  1328                           	psect	text5
  1329   001300                     __ptext5:
  1330                           	callstack 0
  1331   001300                     _mdb_noten:
  1332                           	callstack 26
  1333   001300                     
  1334                           ;mdb.c: 140:     init_mdbdata(0x00);
  1335   001300  0E00               	movlw	0
  1336   001302  EC3F  F009         	call	_init_mdbdata
  1337   001306                     
  1338                           ;mdb.c: 142:     mcount = 3;
  1339   001306  0E03               	movlw	3
  1340   001308  6E3F               	movwf	_mcount^0,c
  1341   00130A                     
  1342                           ;mdb.c: 144:     mdbdata[0] = 0x00;
  1343   00130A  0E00               	movlw	0
  1344   00130C  6E01               	movwf	_mdbdata^0,c
  1345   00130E                     
  1346                           ;mdb.c: 145:     mdbdata[1] = 0x00;
  1347   00130E  0E00               	movlw	0
  1348   001310  6E02               	movwf	(_mdbdata+1)^0,c
  1349   001312                     
  1350                           ;mdb.c: 147:     mdbdata[2] = noteen_byte;
  1351   001312  C03A  F003         	movff	_noteen_byte,_mdbdata+2	;volatile
  1352   001316                     
  1353                           ;mdb.c: 149:     mdbdata[3] = 0x00;
  1354   001316  0E00               	movlw	0
  1355   001318  6E04               	movwf	(_mdbdata+3)^0,c
  1356   00131A  C03F  F04B         	movff	_mcount,mdb_comm@mcount
  1357   00131E  0E34               	movlw	52
  1358   001320  ECE8  F004         	call	_mdb_comm
  1359   001324  6E3F               	movwf	_mcount^0,c
  1360   001326                     
  1361                           ;mdb.c: 151:     mdbflags.vending = 0;
  1362   001326  983C               	bcf	_mdbflags^0,4,c
  1363   001328  0012               	return		;funcret
  1364   00132A                     __end_of_mdb_noten:
  1365                           	callstack 0
  1366                           
  1367 ;; *************** function _mdb_comm *****************
  1368 ;; Defined at:
  1369 ;;		line 239 in file "mdb.c"
  1370 ;; Parameters:    Size  Location     Type
  1371 ;;  slvadd          1    wreg     unsigned char 
  1372 ;;  mcount          1    2[COMRAM] unsigned char 
  1373 ;; Auto vars:     Size  Location     Type
  1374 ;;  slvadd          1    3[COMRAM] unsigned char 
  1375 ;;  i               1    4[COMRAM] unsigned char 
  1376 ;; Return value:  Size  Location     Type
  1377 ;;                  1    wreg      unsigned char 
  1378 ;; Registers used:
  1379 ;;		wreg, fsr2l, fsr2h, status,2, status,0, pcl, pclath, pclatu, tosl, cstack
  1380 ;; Tracked objects:
  1381 ;;		On entry : 0/0
  1382 ;;		On exit  : 0/0
  1383 ;;		Unchanged: 0/0
  1384 ;; Data sizes:     COMRAM   BANK0   BANK1   BANK2   BANK3   BANK4   BANK5   BANK6   BANK7
  1385 ;;      Params:         1       0       0       0       0       0       0       0       0
  1386 ;;      Locals:         2       0       0       0       0       0       0       0       0
  1387 ;;      Temps:          0       0       0       0       0       0       0       0       0
  1388 ;;      Totals:         3       0       0       0       0       0       0       0       0
  1389 ;;Total ram usage:        3 bytes
  1390 ;; Hardware stack levels used: 1
  1391 ;; Hardware stack levels required when called: 2
  1392 ;; This function calls:
  1393 ;;		_TMR1_Initialize
  1394 ;;		_UART1_Read
  1395 ;;		_UART1_SetAddresstoTransmit
  1396 ;;		_init_mdbdata
  1397 ;;		_mdb_on
  1398 ;;		_mdb_transmit
  1399 ;;		_mdb_waitr
  1400 ;; This function is called by:
  1401 ;;		_mdb_init
  1402 ;;		_mdb_reset
  1403 ;;		_mdb_noten
  1404 ;;		_mdb_security
  1405 ;;		_mdb_poll
  1406 ;; This function uses a non-reentrant model
  1407 ;;
  1408                           
  1409                           	psect	text6
  1410   0009D0                     __ptext6:
  1411                           	callstack 0
  1412   0009D0                     _mdb_comm:
  1413                           	callstack 26
  1414                           
  1415                           ;incstack = 0
  1416                           ;mdb_comm@slvadd stored from wreg
  1417   0009D0  6E4C               	movwf	mdb_comm@slvadd^0,c
  1418   0009D2                     
  1419                           ;mdb.c: 249:     UART1_SetAddresstoTransmit(slvadd);
  1420   0009D2  504C               	movf	mdb_comm@slvadd^0,w,c
  1421   0009D4  EC2F  F00A         	call	_UART1_SetAddresstoTransmit
  1422   0009D8                     
  1423                           ;mdb.c: 254:     mdb_transmit(slvadd);
  1424   0009D8  504C               	movf	mdb_comm@slvadd^0,w,c
  1425   0009DA  EC1C  F00A         	call	_mdb_transmit
  1426   0009DE                     
  1427                           ;mdb.c: 255:     U1ERRIRbits.PERIF = 0;
  1428   0009DE  013D               	movlb	61	; () banked
  1429   0009E0  9DF9               	bcf	249,6,b	;volatile
  1430   0009E2                     
  1431                           ; BSR set to: 61
  1432                           ;mdb.c: 259:     chkbyte = slvadd;
  1433   0009E2  C04C  F03D         	movff	mdb_comm@slvadd,_chkbyte
  1434   0009E6                     
  1435                           ; BSR set to: 61
  1436                           ;mdb.c: 260:     if(mcount != 0)
  1437   0009E6  504B               	movf	mdb_comm@mcount^0,w,c
  1438   0009E8  B4D8               	btfsc	status,2,c
  1439   0009EA  EFF9  F004         	goto	u1001
  1440   0009EE  EFFB  F004         	goto	u1000
  1441   0009F2                     u1001:
  1442   0009F2  EF1B  F005         	goto	l2979
  1443   0009F6                     u1000:
  1444   0009F6                     
  1445                           ; BSR set to: 61
  1446                           ;mdb.c: 261:     {;mdb.c: 262:         i = mcount + 1;
  1447   0009F6  284B               	incf	mdb_comm@mcount^0,w,c
  1448   0009F8  6E4D               	movwf	mdb_comm@i^0,c
  1449                           
  1450                           ;mdb.c: 263:         while(i != 0)
  1451   0009FA  EF13  F005         	goto	l2977
  1452   0009FE                     l2969:
  1453                           
  1454                           ;mdb.c: 264:         {;mdb.c: 265:             mdb_transmit(mdbdata[mcount]);
  1455   0009FE  0E01               	movlw	low _mdbdata
  1456   000A00  244B               	addwf	mdb_comm@mcount^0,w,c
  1457   000A02  6ED9               	movwf	fsr2l,c
  1458   000A04  6ADA               	clrf	fsr2h,c
  1459   000A06  0E00               	movlw	high _mdbdata
  1460   000A08  22DA               	addwfc	fsr2h,f,c
  1461   000A0A  50DF               	movf	indf2,w,c
  1462   000A0C  EC1C  F00A         	call	_mdb_transmit
  1463   000A10                     
  1464                           ;mdb.c: 268:             chkbyte = chkbyte + mdbdata[mcount];
  1465   000A10  0E01               	movlw	low _mdbdata
  1466   000A12  244B               	addwf	mdb_comm@mcount^0,w,c
  1467   000A14  6ED9               	movwf	fsr2l,c
  1468   000A16  6ADA               	clrf	fsr2h,c
  1469   000A18  0E00               	movlw	high _mdbdata
  1470   000A1A  22DA               	addwfc	fsr2h,f,c
  1471   000A1C  50DF               	movf	indf2,w,c
  1472   000A1E  243D               	addwf	_chkbyte^0,w,c
  1473   000A20  6E3D               	movwf	_chkbyte^0,c
  1474   000A22                     
  1475                           ;mdb.c: 269:             i--;
  1476   000A22  064D               	decf	mdb_comm@i^0,f,c
  1477   000A24                     
  1478                           ;mdb.c: 270:             mcount--;
  1479   000A24  064B               	decf	mdb_comm@mcount^0,f,c
  1480   000A26                     l2977:
  1481                           
  1482                           ;mdb.c: 263:         while(i != 0)
  1483   000A26  504D               	movf	mdb_comm@i^0,w,c
  1484   000A28  A4D8               	btfss	status,2,c
  1485   000A2A  EF19  F005         	goto	u1011
  1486   000A2E  EF1B  F005         	goto	u1010
  1487   000A32                     u1011:
  1488   000A32  EFFF  F004         	goto	l2969
  1489   000A36                     u1010:
  1490   000A36                     l2979:
  1491                           
  1492                           ;mdb.c: 273:     mdb_transmit(chkbyte);
  1493   000A36  503D               	movf	_chkbyte^0,w,c
  1494   000A38  EC1C  F00A         	call	_mdb_transmit
  1495   000A3C                     
  1496                           ;mdb.c: 280:     init_mdbdata(0xFF);
  1497   000A3C  0EFF               	movlw	255
  1498   000A3E  EC3F  F009         	call	_init_mdbdata
  1499   000A42                     
  1500                           ;mdb.c: 281:     TMR1_Initialize();
  1501   000A42  ECDF  F008         	call	_TMR1_Initialize	;wreg free
  1502   000A46                     
  1503                           ;mdb.c: 282:     dbcount = 0;
  1504   000A46  0E00               	movlw	0
  1505   000A48  6E23               	movwf	(_dbcount+1)^0,c
  1506   000A4A  0E00               	movlw	0
  1507   000A4C  6E22               	movwf	_dbcount^0,c
  1508   000A4E                     
  1509                           ;mdb.c: 283:     mdbflags.isdata = 0;
  1510   000A4E  903C               	bcf	_mdbflags^0,0,c
  1511   000A50                     
  1512                           ;mdb.c: 284:     i = 0;
  1513   000A50  0E00               	movlw	0
  1514   000A52  6E4D               	movwf	mdb_comm@i^0,c
  1515                           
  1516                           ;mdb.c: 286:     while(!PIR4bits.TMR1IF && !mdbflags.isdata)
  1517   000A54  EF54  F005         	goto	l1207
  1518   000A58                     l2991:
  1519                           
  1520                           ; BSR set to: 57
  1521                           ;mdb.c: 287:     {;mdb.c: 289:         dbcount++;
  1522   000A58  4A22               	infsnz	_dbcount^0,f,c
  1523   000A5A  2A23               	incf	(_dbcount+1)^0,f,c
  1524   000A5C                     
  1525                           ; BSR set to: 57
  1526                           ;mdb.c: 290:         mdbflags.isdata = 0;
  1527   000A5C  903C               	bcf	_mdbflags^0,0,c
  1528                           
  1529                           ;mdb.c: 293:         while(PIR3bits.U1RXIF && !mdbflags.isdata)
  1530   000A5E  EF45  F005         	goto	l3005
  1531   000A62                     l2995:
  1532                           
  1533                           ; BSR set to: 57
  1534                           ;mdb.c: 294:         {;mdb.c: 297:             mdbdata[i] = UART1_Read();
  1535   000A62  0E01               	movlw	low _mdbdata
  1536   000A64  244D               	addwf	mdb_comm@i^0,w,c
  1537   000A66  6ED9               	movwf	fsr2l,c
  1538   000A68  6ADA               	clrf	fsr2h,c
  1539   000A6A  0E00               	movlw	high _mdbdata
  1540   000A6C  22DA               	addwfc	fsr2h,f,c
  1541   000A6E  ECF7  F005         	call	_UART1_Read	;wreg free
  1542   000A72  6EDF               	movwf	indf2,c
  1543   000A74                     
  1544                           ;mdb.c: 298:             mdb_waitr();
  1545   000A74  EC0A  F00A         	call	_mdb_waitr	;wreg free
  1546   000A78                     
  1547                           ;mdb.c: 300:             mdbflags.isdata = U1ERRIRbits.PERIF;
  1548   000A78  013D               	movlb	61	; () banked
  1549   000A7A  ADF9               	btfss	249,6,b	;volatile
  1550   000A7C  D002               	bra	u1025
  1551   000A7E  803C               	bsf	_mdbflags^0,0,c
  1552   000A80  D001               	bra	u1027
  1553   000A82                     u1025:
  1554   000A82  903C               	bcf	_mdbflags^0,0,c
  1555   000A84                     u1027:
  1556   000A84                     
  1557                           ;mdb.c: 301:             TMR1_Initialize();
  1558   000A84  ECDF  F008         	call	_TMR1_Initialize	;wreg free
  1559   000A88                     
  1560                           ;mdb.c: 302:             i++;
  1561   000A88  2A4D               	incf	mdb_comm@i^0,f,c
  1562   000A8A                     l3005:
  1563                           
  1564                           ;mdb.c: 293:         while(PIR3bits.U1RXIF && !mdbflags.isdata)
  1565   000A8A  0139               	movlb	57	; () banked
  1566   000A8C  A7A3               	btfss	163,3,b	;volatile
  1567   000A8E  EF4B  F005         	goto	u1031
  1568   000A92  EF4D  F005         	goto	u1030
  1569   000A96                     u1031:
  1570   000A96  EF54  F005         	goto	l1207
  1571   000A9A                     u1030:
  1572   000A9A                     
  1573                           ; BSR set to: 57
  1574   000A9A  A03C               	btfss	_mdbflags^0,0,c
  1575   000A9C  EF52  F005         	goto	u1041
  1576   000AA0  EF54  F005         	goto	u1040
  1577   000AA4                     u1041:
  1578   000AA4  EF31  F005         	goto	l2995
  1579   000AA8                     u1040:
  1580   000AA8                     l1207:
  1581                           
  1582                           ;mdb.c: 286:     while(!PIR4bits.TMR1IF && !mdbflags.isdata)
  1583   000AA8  0139               	movlb	57	; () banked
  1584   000AAA  B1A4               	btfsc	164,0,b	;volatile
  1585   000AAC  EF5A  F005         	goto	u1051
  1586   000AB0  EF5C  F005         	goto	u1050
  1587   000AB4                     u1051:
  1588   000AB4  EF63  F005         	goto	l3011
  1589   000AB8                     u1050:
  1590   000AB8                     
  1591                           ; BSR set to: 57
  1592   000AB8  A03C               	btfss	_mdbflags^0,0,c
  1593   000ABA  EF61  F005         	goto	u1061
  1594   000ABE  EF63  F005         	goto	u1060
  1595   000AC2                     u1061:
  1596   000AC2  EF2C  F005         	goto	l2991
  1597   000AC6                     u1060:
  1598   000AC6                     l3011:
  1599                           
  1600                           ; BSR set to: 57
  1601                           ;mdb.c: 308:     i--;
  1602   000AC6  064D               	decf	mdb_comm@i^0,f,c
  1603   000AC8                     
  1604                           ; BSR set to: 57
  1605                           ;mdb.c: 310:     mdbflags.timeout = PIR4bits.TMR1IF;
  1606   000AC8  A1A4               	btfss	164,0,b	;volatile
  1607   000ACA  D002               	bra	u1075
  1608   000ACC  863C               	bsf	_mdbflags^0,3,c
  1609   000ACE  D001               	bra	u1077
  1610   000AD0                     u1075:
  1611   000AD0  963C               	bcf	_mdbflags^0,3,c
  1612   000AD2                     u1077:
  1613   000AD2                     
  1614                           ;mdb.c: 312:     if(mdbflags.isdata == 1 && mdbdata[i] != 0x00)
  1615   000AD2  A03C               	btfss	_mdbflags^0,0,c
  1616   000AD4  EF6E  F005         	goto	u1081
  1617   000AD8  EF70  F005         	goto	u1080
  1618   000ADC                     u1081:
  1619   000ADC  EF85  F005         	goto	l3025
  1620   000AE0                     u1080:
  1621   000AE0  0E01               	movlw	low _mdbdata
  1622   000AE2  244D               	addwf	mdb_comm@i^0,w,c
  1623   000AE4  6ED9               	movwf	fsr2l,c
  1624   000AE6  6ADA               	clrf	fsr2h,c
  1625   000AE8  0E00               	movlw	high _mdbdata
  1626   000AEA  22DA               	addwfc	fsr2h,f,c
  1627   000AEC  50DF               	movf	indf2,w,c
  1628   000AEE  B4D8               	btfsc	status,2,c
  1629   000AF0  EF7C  F005         	goto	u1091
  1630   000AF4  EF7E  F005         	goto	u1090
  1631   000AF8                     u1091:
  1632   000AF8  EF85  F005         	goto	l3025
  1633   000AFC                     u1090:
  1634   000AFC                     
  1635                           ;mdb.c: 313:     {;mdb.c: 314:         U1ERRIRbits.PERIF = 1;
  1636   000AFC  013D               	movlb	61	; () banked
  1637   000AFE  8DF9               	bsf	249,6,b	;volatile
  1638   000B00                     
  1639                           ; BSR set to: 61
  1640                           ;mdb.c: 315:         mdb_on();
  1641   000B00  EC56  F00A         	call	_mdb_on	;wreg free
  1642   000B04                     
  1643                           ;mdb.c: 316:         mdb_transmit(0x00);
  1644   000B04  0E00               	movlw	0
  1645   000B06  EC1C  F00A         	call	_mdb_transmit
  1646   000B0A                     l3025:
  1647                           
  1648                           ;mdb.c: 320:     mdb_on();
  1649   000B0A  EC56  F00A         	call	_mdb_on	;wreg free
  1650   000B0E                     
  1651                           ;mdb.c: 322:     return(i);
  1652   000B0E  504D               	movf	mdb_comm@i^0,w,c
  1653   000B10  0012               	return		;funcret
  1654   000B12                     __end_of_mdb_comm:
  1655                           	callstack 0
  1656                           
  1657 ;; *************** function _mdb_waitr *****************
  1658 ;; Defined at:
  1659 ;;		line 346 in file "mdb.c"
  1660 ;; Parameters:    Size  Location     Type
  1661 ;;		None
  1662 ;; Auto vars:     Size  Location     Type
  1663 ;;		None
  1664 ;; Return value:  Size  Location     Type
  1665 ;;                  1    wreg      void 
  1666 ;; Registers used:
  1667 ;;		None
  1668 ;; Tracked objects:
  1669 ;;		On entry : 0/0
  1670 ;;		On exit  : 0/0
  1671 ;;		Unchanged: 0/0
  1672 ;; Data sizes:     COMRAM   BANK0   BANK1   BANK2   BANK3   BANK4   BANK5   BANK6   BANK7
  1673 ;;      Params:         0       0       0       0       0       0       0       0       0
  1674 ;;      Locals:         0       0       0       0       0       0       0       0       0
  1675 ;;      Temps:          0       0       0       0       0       0       0       0       0
  1676 ;;      Totals:         0       0       0       0       0       0       0       0       0
  1677 ;;Total ram usage:        0 bytes
  1678 ;; Hardware stack levels used: 1
  1679 ;; This function calls:
  1680 ;;		Nothing
  1681 ;; This function is called by:
  1682 ;;		_mdb_comm
  1683 ;; This function uses a non-reentrant model
  1684 ;;
  1685                           
  1686                           	psect	text7
  1687   001414                     __ptext7:
  1688                           	callstack 0
  1689   001414                     _mdb_waitr:
  1690                           	callstack 27
  1691   001414                     l1230:
  1692                           
  1693                           ;mdb.c: 348:     while(!PIR3bits.U1RXIF)
  1694   001414  0139               	movlb	57	; () banked
  1695   001416  A7A3               	btfss	163,3,b	;volatile
  1696   001418  EF10  F00A         	goto	u111
  1697   00141C  EF12  F00A         	goto	u110
  1698   001420                     u111:
  1699   001420  EF0A  F00A         	goto	l1230
  1700   001424                     u110:
  1701   001424                     
  1702                           ; BSR set to: 57
  1703   001424  0012               	return		;funcret
  1704   001426                     __end_of_mdb_waitr:
  1705                           	callstack 0
  1706                           
  1707 ;; *************** function _mdb_transmit *****************
  1708 ;; Defined at:
  1709 ;;		line 443 in file "mdb.c"
  1710 ;; Parameters:    Size  Location     Type
  1711 ;;  txbyte          1    wreg     unsigned char 
  1712 ;; Auto vars:     Size  Location     Type
  1713 ;;  txbyte          1    1[COMRAM] unsigned char 
  1714 ;; Return value:  Size  Location     Type
  1715 ;;                  1    wreg      void 
  1716 ;; Registers used:
  1717 ;;		wreg, status,2, cstack
  1718 ;; Tracked objects:
  1719 ;;		On entry : 0/0
  1720 ;;		On exit  : 0/0
  1721 ;;		Unchanged: 0/0
  1722 ;; Data sizes:     COMRAM   BANK0   BANK1   BANK2   BANK3   BANK4   BANK5   BANK6   BANK7
  1723 ;;      Params:         0       0       0       0       0       0       0       0       0
  1724 ;;      Locals:         1       0       0       0       0       0       0       0       0
  1725 ;;      Temps:          0       0       0       0       0       0       0       0       0
  1726 ;;      Totals:         1       0       0       0       0       0       0       0       0
  1727 ;;Total ram usage:        1 bytes
  1728 ;; Hardware stack levels used: 1
  1729 ;; Hardware stack levels required when called: 1
  1730 ;; This function calls:
  1731 ;;		_UART1_Write
  1732 ;;		_mdb_waitx
  1733 ;; This function is called by:
  1734 ;;		_mdb_comm
  1735 ;;		_mdb_test
  1736 ;; This function uses a non-reentrant model
  1737 ;;
  1738                           
  1739                           	psect	text8
  1740   001438                     __ptext8:
  1741                           	callstack 0
  1742   001438                     _mdb_transmit:
  1743                           	callstack 26
  1744                           
  1745                           ; BSR set to: 57
  1746                           ;incstack = 0
  1747                           ;mdb_transmit@txbyte stored from wreg
  1748   001438  6E4A               	movwf	mdb_transmit@txbyte^0,c
  1749   00143A                     
  1750                           ;mdb.c: 443: void mdb_transmit(uint8_t txbyte);mdb.c: 444: {;mdb.c: 445:     UART1_Write
      +                          (txbyte);
  1751   00143A  504A               	movf	mdb_transmit@txbyte^0,w,c
  1752   00143C  ECB9  F009         	call	_UART1_Write
  1753   001440                     
  1754                           ;mdb.c: 446:     mdb_waitx();
  1755   001440  EC13  F00A         	call	_mdb_waitx	;wreg free
  1756   001444  0012               	return		;funcret
  1757   001446                     __end_of_mdb_transmit:
  1758                           	callstack 0
  1759                           
  1760 ;; *************** function _mdb_waitx *****************
  1761 ;; Defined at:
  1762 ;;		line 338 in file "mdb.c"
  1763 ;; Parameters:    Size  Location     Type
  1764 ;;		None
  1765 ;; Auto vars:     Size  Location     Type
  1766 ;;		None
  1767 ;; Return value:  Size  Location     Type
  1768 ;;                  1    wreg      void 
  1769 ;; Registers used:
  1770 ;;		None
  1771 ;; Tracked objects:
  1772 ;;		On entry : 0/0
  1773 ;;		On exit  : 0/0
  1774 ;;		Unchanged: 0/0
  1775 ;; Data sizes:     COMRAM   BANK0   BANK1   BANK2   BANK3   BANK4   BANK5   BANK6   BANK7
  1776 ;;      Params:         0       0       0       0       0       0       0       0       0
  1777 ;;      Locals:         0       0       0       0       0       0       0       0       0
  1778 ;;      Temps:          0       0       0       0       0       0       0       0       0
  1779 ;;      Totals:         0       0       0       0       0       0       0       0       0
  1780 ;;Total ram usage:        0 bytes
  1781 ;; Hardware stack levels used: 1
  1782 ;; This function calls:
  1783 ;;		Nothing
  1784 ;; This function is called by:
  1785 ;;		_mdb_transmit
  1786 ;; This function uses a non-reentrant model
  1787 ;;
  1788                           
  1789                           	psect	text9
  1790   001426                     __ptext9:
  1791                           	callstack 0
  1792   001426                     _mdb_waitx:
  1793                           	callstack 26
  1794   001426                     l1224:
  1795                           
  1796                           ;mdb.c: 340:     while(!U1ERRIRbits.TXMTIF)
  1797   001426  013D               	movlb	61	; () banked
  1798   001428  AFF9               	btfss	249,7,b	;volatile
  1799   00142A  EF19  F00A         	goto	u21
  1800   00142E  EF1B  F00A         	goto	u20
  1801   001432                     u21:
  1802   001432  EF13  F00A         	goto	l1224
  1803   001436                     u20:
  1804   001436                     
  1805                           ; BSR set to: 61
  1806   001436  0012               	return		;funcret
  1807   001438                     __end_of_mdb_waitx:
  1808                           	callstack 0
  1809                           
  1810 ;; *************** function _UART1_Write *****************
  1811 ;; Defined at:
  1812 ;;		line 170 in file "mcc_generated_files/uart1.c"
  1813 ;; Parameters:    Size  Location     Type
  1814 ;;  txData          1    wreg     unsigned char 
  1815 ;; Auto vars:     Size  Location     Type
  1816 ;;  txData          1    0[COMRAM] unsigned char 
  1817 ;; Return value:  Size  Location     Type
  1818 ;;                  1    wreg      void 
  1819 ;; Registers used:
  1820 ;;		wreg
  1821 ;; Tracked objects:
  1822 ;;		On entry : 0/0
  1823 ;;		On exit  : 0/0
  1824 ;;		Unchanged: 0/0
  1825 ;; Data sizes:     COMRAM   BANK0   BANK1   BANK2   BANK3   BANK4   BANK5   BANK6   BANK7
  1826 ;;      Params:         0       0       0       0       0       0       0       0       0
  1827 ;;      Locals:         1       0       0       0       0       0       0       0       0
  1828 ;;      Temps:          0       0       0       0       0       0       0       0       0
  1829 ;;      Totals:         1       0       0       0       0       0       0       0       0
  1830 ;;Total ram usage:        1 bytes
  1831 ;; Hardware stack levels used: 1
  1832 ;; This function calls:
  1833 ;;		Nothing
  1834 ;; This function is called by:
  1835 ;;		_mdb_transmit
  1836 ;; This function uses a non-reentrant model
  1837 ;;
  1838                           
  1839                           	psect	text10
  1840   001372                     __ptext10:
  1841                           	callstack 0
  1842   001372                     _UART1_Write:
  1843                           	callstack 26
  1844                           
  1845                           ; BSR set to: 61
  1846                           ;incstack = 0
  1847                           ;UART1_Write@txData stored from wreg
  1848   001372  6E49               	movwf	UART1_Write@txData^0,c
  1849   001374                     l525:
  1850                           
  1851                           ;mcc_generated_files/uart1.c: 172:     while(0 == PIR3bits.U1TXIF)
  1852   001374  0139               	movlb	57	; () banked
  1853   001376  A9A3               	btfss	163,4,b	;volatile
  1854   001378  EFC0  F009         	goto	u11
  1855   00137C  EFC2  F009         	goto	u10
  1856   001380                     u11:
  1857   001380  EFBA  F009         	goto	l525
  1858   001384                     u10:
  1859   001384                     
  1860                           ; BSR set to: 57
  1861                           ;mcc_generated_files/uart1.c: 176:     U1TXB = txData;
  1862   001384  0060  F127  FDEA   	movff	UART1_Write@txData,15850	;volatile
  1863   00138A                     
  1864                           ; BSR set to: 57
  1865   00138A  0012               	return		;funcret
  1866   00138C                     __end_of_UART1_Write:
  1867                           	callstack 0
  1868                           
  1869 ;; *************** function _mdb_on *****************
  1870 ;; Defined at:
  1871 ;;		line 325 in file "mdb.c"
  1872 ;; Parameters:    Size  Location     Type
  1873 ;;		None
  1874 ;; Auto vars:     Size  Location     Type
  1875 ;;		None
  1876 ;; Return value:  Size  Location     Type
  1877 ;;                  1    wreg      void 
  1878 ;; Registers used:
  1879 ;;		None
  1880 ;; Tracked objects:
  1881 ;;		On entry : 0/0
  1882 ;;		On exit  : 0/0
  1883 ;;		Unchanged: 0/0
  1884 ;; Data sizes:     COMRAM   BANK0   BANK1   BANK2   BANK3   BANK4   BANK5   BANK6   BANK7
  1885 ;;      Params:         0       0       0       0       0       0       0       0       0
  1886 ;;      Locals:         0       0       0       0       0       0       0       0       0
  1887 ;;      Temps:          0       0       0       0       0       0       0       0       0
  1888 ;;      Totals:         0       0       0       0       0       0       0       0       0
  1889 ;;Total ram usage:        0 bytes
  1890 ;; Hardware stack levels used: 1
  1891 ;; This function calls:
  1892 ;;		Nothing
  1893 ;; This function is called by:
  1894 ;;		_mdb_comm
  1895 ;;		_mdb_test
  1896 ;; This function uses a non-reentrant model
  1897 ;;
  1898                           
  1899                           	psect	text11
  1900   0014AC                     __ptext11:
  1901                           	callstack 0
  1902   0014AC                     _mdb_on:
  1903                           	callstack 27
  1904   0014AC  0012               	return		;funcret
  1905   0014AE                     __end_of_mdb_on:
  1906                           	callstack 0
  1907                           
  1908 ;; *************** function _init_mdbdata *****************
  1909 ;; Defined at:
  1910 ;;		line 13 in file "mdb.c"
  1911 ;; Parameters:    Size  Location     Type
  1912 ;;  initdata        1    wreg     unsigned char 
  1913 ;; Auto vars:     Size  Location     Type
  1914 ;;  initdata        1    0[COMRAM] unsigned char 
  1915 ;;  i               1    1[COMRAM] unsigned char 
  1916 ;; Return value:  Size  Location     Type
  1917 ;;                  1    wreg      void 
  1918 ;; Registers used:
  1919 ;;		wreg, fsr2l, fsr2h, status,2, status,0
  1920 ;; Tracked objects:
  1921 ;;		On entry : 0/0
  1922 ;;		On exit  : 0/0
  1923 ;;		Unchanged: 0/0
  1924 ;; Data sizes:     COMRAM   BANK0   BANK1   BANK2   BANK3   BANK4   BANK5   BANK6   BANK7
  1925 ;;      Params:         0       0       0       0       0       0       0       0       0
  1926 ;;      Locals:         2       0       0       0       0       0       0       0       0
  1927 ;;      Temps:          0       0       0       0       0       0       0       0       0
  1928 ;;      Totals:         2       0       0       0       0       0       0       0       0
  1929 ;;Total ram usage:        2 bytes
  1930 ;; Hardware stack levels used: 1
  1931 ;; This function calls:
  1932 ;;		Nothing
  1933 ;; This function is called by:
  1934 ;;		_mdb_noten
  1935 ;;		_mdb_security
  1936 ;;		_mdb_comm
  1937 ;; This function uses a non-reentrant model
  1938 ;;
  1939                           
  1940                           	psect	text12
  1941   00127E                     __ptext12:
  1942                           	callstack 0
  1943   00127E                     _init_mdbdata:
  1944                           	callstack 27
  1945                           
  1946                           ;incstack = 0
  1947                           ;init_mdbdata@initdata stored from wreg
  1948   00127E  6E49               	movwf	init_mdbdata@initdata^0,c
  1949   001280                     
  1950                           ;mdb.c: 13: void init_mdbdata(uint8_t initdata);mdb.c: 14: {;mdb.c: 15:     for(uint8_t 
      +                          i = 0;i < 33; i++)
  1951   001280  0E00               	movlw	0
  1952   001282  6E4A               	movwf	init_mdbdata@i^0,c
  1953   001284                     l1997:
  1954                           
  1955                           ;mdb.c: 16:     {;mdb.c: 17:         mdbdata[i] = initdata;
  1956   001284  0E01               	movlw	low _mdbdata
  1957   001286  244A               	addwf	init_mdbdata@i^0,w,c
  1958   001288  6ED9               	movwf	fsr2l,c
  1959   00128A  6ADA               	clrf	fsr2h,c
  1960   00128C  0E00               	movlw	high _mdbdata
  1961   00128E  22DA               	addwfc	fsr2h,f,c
  1962   001290  0060  F127  FFDF   	movff	init_mdbdata@initdata,indf2
  1963   001296                     
  1964                           ;mdb.c: 18:     }
  1965   001296  2A4A               	incf	init_mdbdata@i^0,f,c
  1966   001298  0E20               	movlw	32
  1967   00129A  644A               	cpfsgt	init_mdbdata@i^0,c
  1968   00129C  EF52  F009         	goto	u101
  1969   0012A0  EF54  F009         	goto	u100
  1970   0012A4                     u101:
  1971   0012A4  EF42  F009         	goto	l1997
  1972   0012A8                     u100:
  1973   0012A8  0012               	return		;funcret
  1974   0012AA                     __end_of_init_mdbdata:
  1975                           	callstack 0
  1976                           
  1977 ;; *************** function _UART1_SetAddresstoTransmit *****************
  1978 ;; Defined at:
  1979 ;;		line 179 in file "mcc_generated_files/uart1.c"
  1980 ;; Parameters:    Size  Location     Type
  1981 ;;  txAddress       1    wreg     unsigned char 
  1982 ;; Auto vars:     Size  Location     Type
  1983 ;;  txAddress       1    0[COMRAM] unsigned char 
  1984 ;; Return value:  Size  Location     Type
  1985 ;;                  1    wreg      void 
  1986 ;; Registers used:
  1987 ;;		wreg
  1988 ;; Tracked objects:
  1989 ;;		On entry : 0/0
  1990 ;;		On exit  : 0/0
  1991 ;;		Unchanged: 0/0
  1992 ;; Data sizes:     COMRAM   BANK0   BANK1   BANK2   BANK3   BANK4   BANK5   BANK6   BANK7
  1993 ;;      Params:         0       0       0       0       0       0       0       0       0
  1994 ;;      Locals:         1       0       0       0       0       0       0       0       0
  1995 ;;      Temps:          0       0       0       0       0       0       0       0       0
  1996 ;;      Totals:         1       0       0       0       0       0       0       0       0
  1997 ;;Total ram usage:        1 bytes
  1998 ;; Hardware stack levels used: 1
  1999 ;; This function calls:
  2000 ;;		Nothing
  2001 ;; This function is called by:
  2002 ;;		_mdb_comm
  2003 ;; This function uses a non-reentrant model
  2004 ;;
  2005                           
  2006                           	psect	text13
  2007   00145E                     __ptext13:
  2008                           	callstack 0
  2009   00145E                     _UART1_SetAddresstoTransmit:
  2010                           	callstack 27
  2011                           
  2012                           ;incstack = 0
  2013                           ;UART1_SetAddresstoTransmit@txAddress stored from wreg
  2014   00145E  6E49               	movwf	UART1_SetAddresstoTransmit@txAddress^0,c
  2015   001460                     
  2016                           ;mcc_generated_files/uart1.c: 179: void UART1_SetAddresstoTransmit(uint8_t txAddress);mc
      +                          c_generated_files/uart1.c: 180: {;mcc_generated_files/uart1.c: 181:     U1P1L = txAddres
      +                          s;
  2017   001460  0060  F127  FDEC   	movff	UART1_SetAddresstoTransmit@txAddress,15852	;volatile
  2018   001466  0012               	return		;funcret
  2019   001468                     __end_of_UART1_SetAddresstoTransmit:
  2020                           	callstack 0
  2021                           
  2022 ;; *************** function _UART1_Read *****************
  2023 ;; Defined at:
  2024 ;;		line 145 in file "mcc_generated_files/uart1.c"
  2025 ;; Parameters:    Size  Location     Type
  2026 ;;		None
  2027 ;; Auto vars:     Size  Location     Type
  2028 ;;		None
  2029 ;; Return value:  Size  Location     Type
  2030 ;;                  1    wreg      unsigned char 
  2031 ;; Registers used:
  2032 ;;		wreg, status,2, pcl, pclath, pclatu, tosl, cstack
  2033 ;; Tracked objects:
  2034 ;;		On entry : 0/0
  2035 ;;		On exit  : 0/0
  2036 ;;		Unchanged: 0/0
  2037 ;; Data sizes:     COMRAM   BANK0   BANK1   BANK2   BANK3   BANK4   BANK5   BANK6   BANK7
  2038 ;;      Params:         0       0       0       0       0       0       0       0       0
  2039 ;;      Locals:         0       0       0       0       0       0       0       0       0
  2040 ;;      Temps:          0       0       0       0       0       0       0       0       0
  2041 ;;      Totals:         0       0       0       0       0       0       0       0       0
  2042 ;;Total ram usage:        0 bytes
  2043 ;; Hardware stack levels used: 1
  2044 ;; Hardware stack levels required when called: 1
  2045 ;; This function calls:
  2046 ;;		Absolute function
  2047 ;;		_UART1_DefaultErrorHandler
  2048 ;;		_UART1_DefaultFramingErrorHandler
  2049 ;;		_UART1_DefaultOverrunErrorHandler
  2050 ;; This function is called by:
  2051 ;;		_mdb_comm
  2052 ;; This function uses a non-reentrant model
  2053 ;;
  2054                           
  2055                           	psect	text14
  2056   000BEE                     __ptext14:
  2057                           	callstack 0
  2058   000BEE                     _UART1_Read:
  2059                           	callstack 26
  2060   000BEE                     l516:
  2061                           
  2062                           ;mcc_generated_files/uart1.c: 147:     while(!PIR3bits.U1RXIF)
  2063   000BEE  0139               	movlb	57	; () banked
  2064   000BF0  A7A3               	btfss	163,3,b	;volatile
  2065   000BF2  EFFD  F005         	goto	u31
  2066   000BF6  EFFF  F005         	goto	u30
  2067   000BFA                     u31:
  2068   000BFA  EFF7  F005         	goto	l516
  2069   000BFE                     u30:
  2070   000BFE                     
  2071                           ; BSR set to: 57
  2072                           ;mcc_generated_files/uart1.c: 151:     uart1RxLastError.status = 0;
  2073   000BFE  0E00               	movlw	0
  2074   000C00  6E46               	movwf	_uart1RxLastError^0,c	;volatile
  2075   000C02                     
  2076                           ; BSR set to: 57
  2077                           ;mcc_generated_files/uart1.c: 153:     if(U1ERRIRbits.FERIF){
  2078   000C02  013D               	movlb	61	; () banked
  2079   000C04  A7F9               	btfss	249,3,b	;volatile
  2080   000C06  EF07  F006         	goto	u41
  2081   000C0A  EF09  F006         	goto	u40
  2082   000C0E                     u41:
  2083   000C0E  EF17  F006         	goto	l1975
  2084   000C12                     u40:
  2085   000C12                     
  2086                           ; BSR set to: 61
  2087                           ;mcc_generated_files/uart1.c: 154:         uart1RxLastError.ferr = 1;
  2088   000C12  8246               	bsf	_uart1RxLastError^0,1,c	;volatile
  2089   000C14                     
  2090                           ; BSR set to: 61
  2091                           ;mcc_generated_files/uart1.c: 155:         UART1_FramingErrorHandler();
  2092   000C14  D802               	call	u58
  2093   000C16  EF17  F006         	goto	u59
  2094   000C1A                     u58:
  2095   000C1A  0005               	push	
  2096   000C1C  6EFA               	movwf	pclath,c
  2097   000C1E  5030               	movf	_UART1_FramingErrorHandler^0,w,c
  2098   000C20  6EFD               	movwf	tosl,c
  2099   000C22  5031               	movf	(_UART1_FramingErrorHandler+1)^0,w,c
  2100   000C24  6EFE               	movwf	tosh,c
  2101   000C26  50F8               	movf	tblptru,w,c
  2102   000C28  6EFF               	movwf	tosu,c
  2103   000C2A  50FA               	movf	pclath,w,c
  2104   000C2C  0012               	return		;indir
  2105   000C2E                     u59:
  2106   000C2E                     l1975:
  2107                           
  2108                           ;mcc_generated_files/uart1.c: 158:     if(U1ERRIRbits.RXFOIF){
  2109   000C2E  013D               	movlb	61	; () banked
  2110   000C30  A3F9               	btfss	249,1,b	;volatile
  2111   000C32  EF1D  F006         	goto	u61
  2112   000C36  EF1F  F006         	goto	u60
  2113   000C3A                     u61:
  2114   000C3A  EF2D  F006         	goto	l1981
  2115   000C3E                     u60:
  2116   000C3E                     
  2117                           ; BSR set to: 61
  2118                           ;mcc_generated_files/uart1.c: 159:         uart1RxLastError.oerr = 1;
  2119   000C3E  8446               	bsf	_uart1RxLastError^0,2,c	;volatile
  2120   000C40                     
  2121                           ; BSR set to: 61
  2122                           ;mcc_generated_files/uart1.c: 160:         UART1_OverrunErrorHandler();
  2123   000C40  D802               	call	u78
  2124   000C42  EF2D  F006         	goto	u79
  2125   000C46                     u78:
  2126   000C46  0005               	push	
  2127   000C48  6EFA               	movwf	pclath,c
  2128   000C4A  502E               	movf	_UART1_OverrunErrorHandler^0,w,c
  2129   000C4C  6EFD               	movwf	tosl,c
  2130   000C4E  502F               	movf	(_UART1_OverrunErrorHandler+1)^0,w,c
  2131   000C50  6EFE               	movwf	tosh,c
  2132   000C52  50F8               	movf	tblptru,w,c
  2133   000C54  6EFF               	movwf	tosu,c
  2134   000C56  50FA               	movf	pclath,w,c
  2135   000C58  0012               	return		;indir
  2136   000C5A                     u79:
  2137   000C5A                     l1981:
  2138                           
  2139                           ;mcc_generated_files/uart1.c: 163:     if(uart1RxLastError.status){
  2140   000C5A  5046               	movf	_uart1RxLastError^0,w,c	;volatile
  2141   000C5C  B4D8               	btfsc	status,2,c
  2142   000C5E  EF33  F006         	goto	u81
  2143   000C62  EF35  F006         	goto	u80
  2144   000C66                     u81:
  2145   000C66  EF42  F006         	goto	l1985
  2146   000C6A                     u80:
  2147   000C6A                     
  2148                           ;mcc_generated_files/uart1.c: 164:         UART1_ErrorHandler();
  2149   000C6A  D802               	call	u98
  2150   000C6C  EF42  F006         	goto	u99
  2151   000C70                     u98:
  2152   000C70  0005               	push	
  2153   000C72  6EFA               	movwf	pclath,c
  2154   000C74  502C               	movf	_UART1_ErrorHandler^0,w,c
  2155   000C76  6EFD               	movwf	tosl,c
  2156   000C78  502D               	movf	(_UART1_ErrorHandler+1)^0,w,c
  2157   000C7A  6EFE               	movwf	tosh,c
  2158   000C7C  50F8               	movf	tblptru,w,c
  2159   000C7E  6EFF               	movwf	tosu,c
  2160   000C80  50FA               	movf	pclath,w,c
  2161   000C82  0012               	return		;indir
  2162   000C84                     u99:
  2163   000C84                     l1985:
  2164                           
  2165                           ;mcc_generated_files/uart1.c: 167:     return U1RXB;
  2166   000C84  013D               	movlb	61	; () banked
  2167   000C86  51E8               	movf	232,w,b	;volatile
  2168   000C88                     
  2169                           ; BSR set to: 61
  2170   000C88  0012               	return		;funcret
  2171   000C8A                     __end_of_UART1_Read:
  2172                           	callstack 0
  2173                           
  2174 ;; *************** function _UART1_DefaultOverrunErrorHandler *****************
  2175 ;; Defined at:
  2176 ;;		line 190 in file "mcc_generated_files/uart1.c"
  2177 ;; Parameters:    Size  Location     Type
  2178 ;;		None
  2179 ;; Auto vars:     Size  Location     Type
  2180 ;;		None
  2181 ;; Return value:  Size  Location     Type
  2182 ;;                  1    wreg      void 
  2183 ;; Registers used:
  2184 ;;		None
  2185 ;; Tracked objects:
  2186 ;;		On entry : 0/0
  2187 ;;		On exit  : 0/0
  2188 ;;		Unchanged: 0/0
  2189 ;; Data sizes:     COMRAM   BANK0   BANK1   BANK2   BANK3   BANK4   BANK5   BANK6   BANK7
  2190 ;;      Params:         0       0       0       0       0       0       0       0       0
  2191 ;;      Locals:         0       0       0       0       0       0       0       0       0
  2192 ;;      Temps:          0       0       0       0       0       0       0       0       0
  2193 ;;      Totals:         0       0       0       0       0       0       0       0       0
  2194 ;;Total ram usage:        0 bytes
  2195 ;; Hardware stack levels used: 1
  2196 ;; This function calls:
  2197 ;;		Nothing
  2198 ;; This function is called by:
  2199 ;;		_UART1_Initialize
  2200 ;;		_UART1_Read
  2201 ;; This function uses a non-reentrant model
  2202 ;;
  2203                           
  2204                           	psect	text15
  2205   0014AE                     __ptext15:
  2206                           	callstack 0
  2207   0014AE                     _UART1_DefaultOverrunErrorHandler:
  2208                           	callstack 26
  2209   0014AE  0012               	return		;funcret
  2210   0014B0                     __end_of_UART1_DefaultOverrunErrorHandler:
  2211                           	callstack 0
  2212                           
  2213 ;; *************** function _UART1_DefaultFramingErrorHandler *****************
  2214 ;; Defined at:
  2215 ;;		line 188 in file "mcc_generated_files/uart1.c"
  2216 ;; Parameters:    Size  Location     Type
  2217 ;;		None
  2218 ;; Auto vars:     Size  Location     Type
  2219 ;;		None
  2220 ;; Return value:  Size  Location     Type
  2221 ;;                  1    wreg      void 
  2222 ;; Registers used:
  2223 ;;		None
  2224 ;; Tracked objects:
  2225 ;;		On entry : 0/0
  2226 ;;		On exit  : 0/0
  2227 ;;		Unchanged: 0/0
  2228 ;; Data sizes:     COMRAM   BANK0   BANK1   BANK2   BANK3   BANK4   BANK5   BANK6   BANK7
  2229 ;;      Params:         0       0       0       0       0       0       0       0       0
  2230 ;;      Locals:         0       0       0       0       0       0       0       0       0
  2231 ;;      Temps:          0       0       0       0       0       0       0       0       0
  2232 ;;      Totals:         0       0       0       0       0       0       0       0       0
  2233 ;;Total ram usage:        0 bytes
  2234 ;; Hardware stack levels used: 1
  2235 ;; This function calls:
  2236 ;;		Nothing
  2237 ;; This function is called by:
  2238 ;;		_UART1_Initialize
  2239 ;;		_UART1_Read
  2240 ;; This function uses a non-reentrant model
  2241 ;;
  2242                           
  2243                           	psect	text16
  2244   0014B0                     __ptext16:
  2245                           	callstack 0
  2246   0014B0                     _UART1_DefaultFramingErrorHandler:
  2247                           	callstack 26
  2248   0014B0  0012               	return		;funcret
  2249   0014B2                     __end_of_UART1_DefaultFramingErrorHandler:
  2250                           	callstack 0
  2251                           
  2252 ;; *************** function _UART1_DefaultErrorHandler *****************
  2253 ;; Defined at:
  2254 ;;		line 192 in file "mcc_generated_files/uart1.c"
  2255 ;; Parameters:    Size  Location     Type
  2256 ;;		None
  2257 ;; Auto vars:     Size  Location     Type
  2258 ;;		None
  2259 ;; Return value:  Size  Location     Type
  2260 ;;                  1    wreg      void 
  2261 ;; Registers used:
  2262 ;;		None
  2263 ;; Tracked objects:
  2264 ;;		On entry : 0/0
  2265 ;;		On exit  : 0/0
  2266 ;;		Unchanged: 0/0
  2267 ;; Data sizes:     COMRAM   BANK0   BANK1   BANK2   BANK3   BANK4   BANK5   BANK6   BANK7
  2268 ;;      Params:         0       0       0       0       0       0       0       0       0
  2269 ;;      Locals:         0       0       0       0       0       0       0       0       0
  2270 ;;      Temps:          0       0       0       0       0       0       0       0       0
  2271 ;;      Totals:         0       0       0       0       0       0       0       0       0
  2272 ;;Total ram usage:        0 bytes
  2273 ;; Hardware stack levels used: 1
  2274 ;; This function calls:
  2275 ;;		Nothing
  2276 ;; This function is called by:
  2277 ;;		_UART1_Initialize
  2278 ;;		_UART1_Read
  2279 ;; This function uses a non-reentrant model
  2280 ;;
  2281                           
  2282                           	psect	text17
  2283   0014B2                     __ptext17:
  2284                           	callstack 0
  2285   0014B2                     _UART1_DefaultErrorHandler:
  2286                           	callstack 26
  2287   0014B2  0012               	return		;funcret
  2288   0014B4                     __end_of_UART1_DefaultErrorHandler:
  2289                           	callstack 0
  2290                           
  2291 ;; *************** function _enter_service *****************
  2292 ;; Defined at:
  2293 ;;		line 131 in file "vend.c"
  2294 ;; Parameters:    Size  Location     Type
  2295 ;;		None
  2296 ;; Auto vars:     Size  Location     Type
  2297 ;;		None
  2298 ;; Return value:  Size  Location     Type
  2299 ;;                  1    wreg      void 
  2300 ;; Registers used:
  2301 ;;		wreg, fsr2l, fsr2h, status,2, status,0, cstack
  2302 ;; Tracked objects:
  2303 ;;		On entry : 0/0
  2304 ;;		On exit  : 0/0
  2305 ;;		Unchanged: 0/0
  2306 ;; Data sizes:     COMRAM   BANK0   BANK1   BANK2   BANK3   BANK4   BANK5   BANK6   BANK7
  2307 ;;      Params:         0       0       0       0       0       0       0       0       0
  2308 ;;      Locals:         0       0       0       0       0       0       0       0       0
  2309 ;;      Temps:          2       0       0       0       0       0       0       0       0
  2310 ;;      Totals:         2       0       0       0       0       0       0       0       0
  2311 ;;Total ram usage:        2 bytes
  2312 ;; Hardware stack levels used: 1
  2313 ;; Hardware stack levels required when called: 2
  2314 ;; This function calls:
  2315 ;;		_DATAEE_WriteByte
  2316 ;;		_Set_Timeout
  2317 ;;		_button_flash
  2318 ;;		_switch_read
  2319 ;; This function is called by:
  2320 ;;		_main
  2321 ;; This function uses a non-reentrant model
  2322 ;;
  2323                           
  2324                           	psect	text18
  2325   000B12                     __ptext18:
  2326                           	callstack 0
  2327   000B12                     _enter_service:
  2328                           	callstack 28
  2329   000B12  0E00               	movlw	0
  2330   000B14  6E49               	movwf	DATAEE_WriteByte@bData^0,c
  2331   000B16  0E02               	movlw	2
  2332   000B18  EC69  F008         	call	_DATAEE_WriteByte
  2333   000B1C  0E00               	movlw	0
  2334   000B1E  6E49               	movwf	DATAEE_WriteByte@bData^0,c
  2335   000B20  0E00               	movlw	0
  2336   000B22  EC69  F008         	call	_DATAEE_WriteByte
  2337   000B26                     
  2338                           ;vend.c: 136:     credit = 0x00;
  2339   000B26  0E00               	movlw	0
  2340   000B28  6E44               	movwf	_credit^0,c	;volatile
  2341   000B2A                     
  2342                           ;vend.c: 137:     venflags.priceset = 0;
  2343   000B2A  9824               	bcf	_venflags^0,4,c
  2344   000B2C  88BA               	bsf	186,4,c	;volatile
  2345   000B2E                     l969:
  2346   000B2E  A6CA               	btfss	202,3,c	;volatile
  2347   000B30  EF9C  F005         	goto	u1171
  2348   000B34  EF9E  F005         	goto	u1170
  2349   000B38                     u1171:
  2350   000B38  EF97  F005         	goto	l969
  2351   000B3C                     u1170:
  2352   000B3C                     
  2353                           ;vend.c: 140:     _delay((unsigned long)((500)*(12000000/4000.0)));
  2354   000B3C  0E08               	movlw	8
  2355   000B3E  6E56               	movwf	(??_enter_service+1)^0,c
  2356   000B40  0E9D               	movlw	157
  2357   000B42  6E55               	movwf	??_enter_service^0,c
  2358   000B44  0E06               	movlw	6
  2359   000B46                     u1517:
  2360   000B46  2EE8               	decfsz	wreg,f,c
  2361   000B48  D7FE               	bra	u1517
  2362   000B4A  2E55               	decfsz	??_enter_service^0,f,c
  2363   000B4C  D7FC               	bra	u1517
  2364   000B4E  2E56               	decfsz	(??_enter_service+1)^0,f,c
  2365   000B50  D7FA               	bra	u1517
  2366                           
  2367                           ;vend.c: 141:     while(PORTAbits.RA3)
  2368   000B52  EFD6  F005         	goto	l3189
  2369   000B56                     l3173:
  2370                           
  2371                           ;vend.c: 142:     {;vend.c: 143:         button_flash();
  2372   000B56  EC19  F008         	call	_button_flash	;wreg free
  2373   000B5A                     
  2374                           ;vend.c: 144:         if(!PORTAbits.RA6 && !venflags.priceset)
  2375   000B5A  BCCA               	btfsc	202,6,c	;volatile
  2376   000B5C  EFB2  F005         	goto	u1181
  2377   000B60  EFB4  F005         	goto	u1180
  2378   000B64                     u1181:
  2379   000B64  EFBF  F005         	goto	l3181
  2380   000B68                     u1180:
  2381   000B68  B824               	btfsc	_venflags^0,4,c
  2382   000B6A  EFB9  F005         	goto	u1191
  2383   000B6E  EFBB  F005         	goto	u1190
  2384   000B72                     u1191:
  2385   000B72  EFBF  F005         	goto	l3181
  2386   000B76                     u1190:
  2387   000B76  98BA               	bcf	186,4,c	;volatile
  2388   000B78                     
  2389                           ;vend.c: 147:             Set_Timeout();
  2390   000B78  EC45  F006         	call	_Set_Timeout	;wreg free
  2391   000B7C  00FF               	reset		;# 
  2392   000B7E                     l3181:
  2393                           
  2394                           ;vend.c: 150:         if(switch_read())
  2395   000B7E  EC11  F007         	call	_switch_read	;wreg free
  2396   000B82  0900               	iorlw	0
  2397   000B84  B4D8               	btfsc	status,2,c
  2398   000B86  EFC7  F005         	goto	u1201
  2399   000B8A  EFC9  F005         	goto	u1200
  2400   000B8E                     u1201:
  2401   000B8E  EFD6  F005         	goto	l3189
  2402   000B92                     u1200:
  2403   000B92                     
  2404                           ;vend.c: 151:         {;vend.c: 152:             venflags.priceset = 1;
  2405   000B92  8824               	bsf	_venflags^0,4,c
  2406   000B94                     l3185:
  2407   000B94  EC11  F007         	call	_switch_read	;wreg free
  2408   000B98  0900               	iorlw	0
  2409   000B9A  A4D8               	btfss	status,2,c
  2410   000B9C  EFD2  F005         	goto	u1211
  2411   000BA0  EFD4  F005         	goto	u1210
  2412   000BA4                     u1211:
  2413   000BA4  EFCA  F005         	goto	l3185
  2414   000BA8                     u1210:
  2415   000BA8                     
  2416                           ;vend.c: 154:             credit++;
  2417   000BA8  2A44               	incf	_credit^0,f,c	;volatile
  2418   000BAA  F000               	nop		;# 
  2419   000BAC                     l3189:
  2420                           
  2421                           ;vend.c: 141:     while(PORTAbits.RA3)
  2422   000BAC  B6CA               	btfsc	202,3,c	;volatile
  2423   000BAE  EFDB  F005         	goto	u1221
  2424   000BB2  EFDD  F005         	goto	u1220
  2425   000BB6                     u1221:
  2426   000BB6  EFAB  F005         	goto	l3173
  2427   000BBA                     u1220:
  2428   000BBA                     
  2429                           ;vend.c: 158:     if(venflags.priceset)
  2430   000BBA  A824               	btfss	_venflags^0,4,c
  2431   000BBC  EFE2  F005         	goto	u1231
  2432   000BC0  EFE4  F005         	goto	u1230
  2433   000BC4                     u1231:
  2434   000BC4  EFE9  F005         	goto	l3193
  2435   000BC8                     u1230:
  2436   000BC8  C044  F049         	movff	_credit,DATAEE_WriteByte@bData	;volatile
  2437   000BCC  0E01               	movlw	1
  2438   000BCE  EC69  F008         	call	_DATAEE_WriteByte
  2439   000BD2                     l3193:
  2440   000BD2  9CBC               	bcf	188,6,c	;volatile
  2441   000BD4                     
  2442                           ;vend.c: 164:     _delay((unsigned long)((1000)*(12000000/4000.0)));
  2443   000BD4  0E10               	movlw	16
  2444   000BD6  6E56               	movwf	(??_enter_service+1)^0,c
  2445   000BD8  0E39               	movlw	57
  2446   000BDA  6E55               	movwf	??_enter_service^0,c
  2447   000BDC  0E0E               	movlw	14
  2448   000BDE                     u1527:
  2449   000BDE  2EE8               	decfsz	wreg,f,c
  2450   000BE0  D7FE               	bra	u1527
  2451   000BE2  2E55               	decfsz	??_enter_service^0,f,c
  2452   000BE4  D7FC               	bra	u1527
  2453   000BE6  2E56               	decfsz	(??_enter_service+1)^0,f,c
  2454   000BE8  D7FA               	bra	u1527
  2455   000BEA  00FF               	reset		;# 
  2456   000BEC  0012               	return		;funcret
  2457   000BEE                     __end_of_enter_service:
  2458                           	callstack 0
  2459                           
  2460 ;; *************** function _button_flash *****************
  2461 ;; Defined at:
  2462 ;;		line 116 in file "vend.c"
  2463 ;; Parameters:    Size  Location     Type
  2464 ;;		None
  2465 ;; Auto vars:     Size  Location     Type
  2466 ;;		None
  2467 ;; Return value:  Size  Location     Type
  2468 ;;                  1    wreg      void 
  2469 ;; Registers used:
  2470 ;;		wreg, status,2, status,0, cstack
  2471 ;; Tracked objects:
  2472 ;;		On entry : 0/0
  2473 ;;		On exit  : 0/0
  2474 ;;		Unchanged: 0/0
  2475 ;; Data sizes:     COMRAM   BANK0   BANK1   BANK2   BANK3   BANK4   BANK5   BANK6   BANK7
  2476 ;;      Params:         0       0       0       0       0       0       0       0       0
  2477 ;;      Locals:         0       0       0       0       0       0       0       0       0
  2478 ;;      Temps:          1       0       0       0       0       0       0       0       0
  2479 ;;      Totals:         1       0       0       0       0       0       0       0       0
  2480 ;;Total ram usage:        1 bytes
  2481 ;; Hardware stack levels used: 1
  2482 ;; Hardware stack levels required when called: 1
  2483 ;; This function calls:
  2484 ;;		_TMR3_Initialize
  2485 ;; This function is called by:
  2486 ;;		_main
  2487 ;;		_enter_service
  2488 ;; This function uses a non-reentrant model
  2489 ;;
  2490                           
  2491                           	psect	text19
  2492   001032                     __ptext19:
  2493                           	callstack 0
  2494   001032                     _button_flash:
  2495                           	callstack 28
  2496   001032                     
  2497                           ;vend.c: 118:     if(!venflags.bflash)
  2498   001032  B225               	btfsc	(_venflags+1)^0,1,c
  2499   001034  EF1E  F008         	goto	u251
  2500   001038  EF20  F008         	goto	u250
  2501   00103C                     u251:
  2502   00103C  EF24  F008         	goto	l2225
  2503   001040                     u250:
  2504   001040                     
  2505                           ;vend.c: 119:     {;vend.c: 120:         venflags.bflash = 1;
  2506   001040  8225               	bsf	(_venflags+1)^0,1,c
  2507   001042                     
  2508                           ;vend.c: 121:         TMR3_Initialize();
  2509   001042  ECC4  F008         	call	_TMR3_Initialize	;wreg free
  2510   001046  8CBC               	bsf	188,6,c	;volatile
  2511   001048                     l2225:
  2512                           
  2513                           ;vend.c: 124:     if(PIR6bits.TMR3IF)
  2514   001048  0139               	movlb	57	; () banked
  2515   00104A  ADA6               	btfss	166,6,b	;volatile
  2516   00104C  EF2A  F008         	goto	u261
  2517   001050  EF2C  F008         	goto	u260
  2518   001054                     u261:
  2519   001054  EF40  F008         	goto	l964
  2520   001058                     u260:
  2521   001058                     
  2522                           ; BSR set to: 57
  2523                           ;vend.c: 125:     {;vend.c: 126:         LATCbits.LC2 = ~LATCbits.LC2;
  2524   001058  B4BC               	btfsc	188,2,c	;volatile
  2525   00105A  EF31  F008         	goto	u271
  2526   00105E  EF34  F008         	goto	u270
  2527   001062                     u271:
  2528   001062  0E01               	movlw	1
  2529   001064  EF35  F008         	goto	u276
  2530   001068                     u270:
  2531   001068  0E00               	movlw	0
  2532   00106A                     u276:
  2533   00106A  0AFF               	xorlw	255
  2534   00106C  6E4B               	movwf	??_button_flash^0,c
  2535   00106E  464B               	rlncf	??_button_flash^0,f,c
  2536   001070  464B               	rlncf	??_button_flash^0,f,c
  2537   001072  50BC               	movf	188,w,c	;volatile
  2538   001074  184B               	xorwf	??_button_flash^0,w,c
  2539   001076  0BFB               	andlw	-5
  2540   001078  184B               	xorwf	??_button_flash^0,w,c
  2541   00107A  6EBC               	movwf	188,c	;volatile
  2542   00107C                     
  2543                           ; BSR set to: 57
  2544                           ;vend.c: 127:         TMR3_Initialize();
  2545   00107C  ECC4  F008         	call	_TMR3_Initialize	;wreg free
  2546   001080                     l964:
  2547   001080  0012               	return		;funcret
  2548   001082                     __end_of_button_flash:
  2549                           	callstack 0
  2550                           
  2551 ;; *************** function _Set_Timeout *****************
  2552 ;; Defined at:
  2553 ;;		line 168 in file "vend.c"
  2554 ;; Parameters:    Size  Location     Type
  2555 ;;		None
  2556 ;; Auto vars:     Size  Location     Type
  2557 ;;  timeval         2   10[COMRAM] PTR unsigned char 
  2558 ;;		 -> timeout(2), 
  2559 ;;  readValHigh     1    9[COMRAM] unsigned char 
  2560 ;;  readValLow      1    8[COMRAM] unsigned char 
  2561 ;; Return value:  Size  Location     Type
  2562 ;;                  1    wreg      void 
  2563 ;; Registers used:
  2564 ;;		wreg, fsr2l, fsr2h, status,2, status,0, cstack
  2565 ;; Tracked objects:
  2566 ;;		On entry : 0/0
  2567 ;;		On exit  : 0/0
  2568 ;;		Unchanged: 0/0
  2569 ;; Data sizes:     COMRAM   BANK0   BANK1   BANK2   BANK3   BANK4   BANK5   BANK6   BANK7
  2570 ;;      Params:         0       0       0       0       0       0       0       0       0
  2571 ;;      Locals:         4       0       0       0       0       0       0       0       0
  2572 ;;      Temps:          0       0       0       0       0       0       0       0       0
  2573 ;;      Totals:         4       0       0       0       0       0       0       0       0
  2574 ;;Total ram usage:        4 bytes
  2575 ;; Hardware stack levels used: 1
  2576 ;; Hardware stack levels required when called: 1
  2577 ;; This function calls:
  2578 ;;		_DATAEE_WriteByte
  2579 ;;		_TMR1_Initialize
  2580 ;;		_TMR1_ReadTimer
  2581 ;;		_TMR1_StopTimer
  2582 ;; This function is called by:
  2583 ;;		_enter_service
  2584 ;; This function uses a non-reentrant model
  2585 ;;
  2586                           
  2587                           	psect	text20
  2588   000C8A                     __ptext20:
  2589                           	callstack 0
  2590   000C8A                     _Set_Timeout:
  2591                           	callstack 28
  2592   000C8A                     
  2593                           ;vend.c: 170:     TMR1_Initialize();
  2594   000C8A  ECDF  F008         	call	_TMR1_Initialize	;wreg free
  2595                           
  2596                           ;vend.c: 171:     while(!PIR4bits.TMR1IF)
  2597   000C8E  EF83  F006         	goto	l988
  2598   000C92                     l990:
  2599                           
  2600                           ; BSR set to: 57
  2601   000C92  80BB               	bsf	187,0,c	;volatile
  2602   000C94                     
  2603                           ; BSR set to: 57
  2604                           ;vend.c: 174:         if(!CM1CON0bits.C1OUT)
  2605   000C94  013E               	movlb	62	; () banked
  2606   000C96  BDBC               	btfsc	188,6,b	;volatile
  2607   000C98  EF50  F006         	goto	u1131
  2608   000C9C  EF52  F006         	goto	u1130
  2609   000CA0                     u1131:
  2610   000CA0  EF83  F006         	goto	l988
  2611   000CA4                     u1130:
  2612   000CA4                     
  2613                           ; BSR set to: 62
  2614   000CA4  90BB               	bcf	187,0,c	;volatile
  2615   000CA6                     
  2616                           ; BSR set to: 62
  2617                           ;vend.c: 177:             TMR1_StopTimer();
  2618   000CA6  EC52  F00A         	call	_TMR1_StopTimer	;wreg free
  2619   000CAA                     
  2620                           ;vend.c: 178:             timeout = TMR1_ReadTimer();
  2621   000CAA  EC95  F009         	call	_TMR1_ReadTimer	;wreg free
  2622   000CAE  C049  F047         	movff	?_TMR1_ReadTimer,_timeout	;volatile
  2623   000CB2  C04A  F048         	movff	?_TMR1_ReadTimer+1,_timeout+1	;volatile
  2624   000CB6                     
  2625                           ;vend.c: 179:             timeout = 0x00 - timeout;
  2626   000CB6  5047               	movf	_timeout^0,w,c	;volatile
  2627   000CB8  0800               	sublw	0
  2628   000CBA  6E47               	movwf	_timeout^0,c	;volatile
  2629   000CBC  5048               	movf	(_timeout+1)^0,w,c	;volatile
  2630   000CBE  A0D8               	btfss	status,0,c
  2631   000CC0  2AE8               	incf	wreg,f,c
  2632   000CC2  0800               	sublw	0
  2633   000CC4  6E48               	movwf	(_timeout+1)^0,c	;volatile
  2634   000CC6                     
  2635                           ;vend.c: 180:             uint8_t *timeval = &timeout;
  2636   000CC6  0E47               	movlw	low _timeout
  2637   000CC8  6E53               	movwf	Set_Timeout@timeval^0,c
  2638   000CCA  0E00               	movlw	high _timeout
  2639   000CCC  6E54               	movwf	(Set_Timeout@timeval+1)^0,c
  2640   000CCE                     
  2641                           ;vend.c: 181:             uint8_t readValLow = timeval[0];
  2642   000CCE  0060  F14F  FFD9   	movff	Set_Timeout@timeval,fsr2l
  2643   000CD4  0060  F153  FFDA   	movff	Set_Timeout@timeval+1,fsr2h
  2644   000CDA  50DF               	movf	indf2,w,c
  2645   000CDC  6E51               	movwf	Set_Timeout@readValLow^0,c
  2646   000CDE                     
  2647                           ;vend.c: 182:             uint8_t readValHigh = timeval[1];
  2648   000CDE  EE20 F001          	lfsr	2,1
  2649   000CE2  5053               	movf	Set_Timeout@timeval^0,w,c
  2650   000CE4  26D9               	addwf	fsr2l,f,c
  2651   000CE6  5054               	movf	(Set_Timeout@timeval+1)^0,w,c
  2652   000CE8  22DA               	addwfc	fsr2h,f,c
  2653   000CEA  50DF               	movf	indf2,w,c
  2654   000CEC  6E52               	movwf	Set_Timeout@readValHigh^0,c
  2655   000CEE  C051  F049         	movff	Set_Timeout@readValLow,DATAEE_WriteByte@bData
  2656   000CF2  0E03               	movlw	3
  2657   000CF4  EC69  F008         	call	_DATAEE_WriteByte
  2658   000CF8  C052  F049         	movff	Set_Timeout@readValHigh,DATAEE_WriteByte@bData
  2659   000CFC  0E04               	movlw	4
  2660   000CFE  EC69  F008         	call	_DATAEE_WriteByte
  2661                           
  2662                           ;vend.c: 185:             break;
  2663   000D02  EF8B  F006         	goto	l996
  2664   000D06                     l988:
  2665                           
  2666                           ;vend.c: 171:     while(!PIR4bits.TMR1IF)
  2667   000D06  0139               	movlb	57	; () banked
  2668   000D08  A1A4               	btfss	164,0,b	;volatile
  2669   000D0A  EF89  F006         	goto	u1141
  2670   000D0E  EF8B  F006         	goto	u1140
  2671   000D12                     u1141:
  2672   000D12  EF49  F006         	goto	l990
  2673   000D16                     u1140:
  2674   000D16                     l996:
  2675   000D16  0012               	return		;funcret
  2676   000D18                     __end_of_Set_Timeout:
  2677                           	callstack 0
  2678                           
  2679 ;; *************** function _TMR1_ReadTimer *****************
  2680 ;; Defined at:
  2681 ;;		line 104 in file "mcc_generated_files/tmr1.c"
  2682 ;; Parameters:    Size  Location     Type
  2683 ;;		None
  2684 ;; Auto vars:     Size  Location     Type
  2685 ;;  readVal         2    4[COMRAM] unsigned short 
  2686 ;;  readValLow      1    7[COMRAM] unsigned char 
  2687 ;;  readValHigh     1    6[COMRAM] unsigned char 
  2688 ;; Return value:  Size  Location     Type
  2689 ;;                  2    0[COMRAM] unsigned short 
  2690 ;; Registers used:
  2691 ;;		wreg, status,2
  2692 ;; Tracked objects:
  2693 ;;		On entry : 0/0
  2694 ;;		On exit  : 0/0
  2695 ;;		Unchanged: 0/0
  2696 ;; Data sizes:     COMRAM   BANK0   BANK1   BANK2   BANK3   BANK4   BANK5   BANK6   BANK7
  2697 ;;      Params:         2       0       0       0       0       0       0       0       0
  2698 ;;      Locals:         4       0       0       0       0       0       0       0       0
  2699 ;;      Temps:          2       0       0       0       0       0       0       0       0
  2700 ;;      Totals:         8       0       0       0       0       0       0       0       0
  2701 ;;Total ram usage:        8 bytes
  2702 ;; Hardware stack levels used: 1
  2703 ;; This function calls:
  2704 ;;		Nothing
  2705 ;; This function is called by:
  2706 ;;		_Set_Timeout
  2707 ;; This function uses a non-reentrant model
  2708 ;;
  2709                           
  2710                           	psect	text21
  2711   00132A                     __ptext21:
  2712                           	callstack 0
  2713   00132A                     _TMR1_ReadTimer:
  2714                           	callstack 28
  2715   00132A                     
  2716                           ;mcc_generated_files/tmr1.c: 106:     uint16_t readVal;;mcc_generated_files/tmr1.c: 107:
      +                               uint8_t readValHigh;;mcc_generated_files/tmr1.c: 108:     uint8_t readValLow;;mcc_g
      +                          enerated_files/tmr1.c: 110:     T1CONbits.T1RD16 = 1;
  2717   00132A  82B2               	bsf	178,1,c	;volatile
  2718                           
  2719                           ;mcc_generated_files/tmr1.c: 112:     readValLow = TMR1L;
  2720   00132C  006F FEC0  F050    	movff	16304,TMR1_ReadTimer@readValLow	;volatile
  2721                           
  2722                           ;mcc_generated_files/tmr1.c: 113:     readValHigh = TMR1H;
  2723   001332  006F FEC4  F04F    	movff	16305,TMR1_ReadTimer@readValHigh	;volatile
  2724   001338                     
  2725                           ;mcc_generated_files/tmr1.c: 115:     readVal = ((uint16_t)readValHigh << 8) | readValLo
      +                          w;
  2726   001338  504F               	movf	TMR1_ReadTimer@readValHigh^0,w,c
  2727   00133A  6E4B               	movwf	??_TMR1_ReadTimer^0,c
  2728   00133C  5050               	movf	TMR1_ReadTimer@readValLow^0,w,c
  2729   00133E  6E4D               	movwf	TMR1_ReadTimer@readVal^0,c
  2730   001340  C04B  F04E         	movff	??_TMR1_ReadTimer,TMR1_ReadTimer@readVal+1
  2731   001344                     
  2732                           ;mcc_generated_files/tmr1.c: 117:     return readVal;
  2733   001344  C04D  F049         	movff	TMR1_ReadTimer@readVal,?_TMR1_ReadTimer
  2734   001348  C04E  F04A         	movff	TMR1_ReadTimer@readVal+1,?_TMR1_ReadTimer+1
  2735   00134C  0012               	return		;funcret
  2736   00134E                     __end_of_TMR1_ReadTimer:
  2737                           	callstack 0
  2738                           
  2739 ;; *************** function _dispense *****************
  2740 ;; Defined at:
  2741 ;;		line 81 in file "vend.c"
  2742 ;; Parameters:    Size  Location     Type
  2743 ;;		None
  2744 ;; Auto vars:     Size  Location     Type
  2745 ;;		None
  2746 ;; Return value:  Size  Location     Type
  2747 ;;                  1    wreg      void 
  2748 ;; Registers used:
  2749 ;;		wreg, status,2, status,0, cstack
  2750 ;; Tracked objects:
  2751 ;;		On entry : 0/0
  2752 ;;		On exit  : 0/0
  2753 ;;		Unchanged: 0/0
  2754 ;; Data sizes:     COMRAM   BANK0   BANK1   BANK2   BANK3   BANK4   BANK5   BANK6   BANK7
  2755 ;;      Params:         0       0       0       0       0       0       0       0       0
  2756 ;;      Locals:         0       0       0       0       0       0       0       0       0
  2757 ;;      Temps:          0       0       0       0       0       0       0       0       0
  2758 ;;      Totals:         0       0       0       0       0       0       0       0       0
  2759 ;;Total ram usage:        0 bytes
  2760 ;; Hardware stack levels used: 1
  2761 ;; Hardware stack levels required when called: 2
  2762 ;; This function calls:
  2763 ;;		_DATAEE_WriteByte
  2764 ;;		_TMR1_Initialize
  2765 ;;		_TMR1_StartTimer
  2766 ;;		_TMR1_StopTimer
  2767 ;;		_TMR1_WriteTimer
  2768 ;;		_credit_subtract
  2769 ;; This function is called by:
  2770 ;;		_main
  2771 ;; This function uses a non-reentrant model
  2772 ;;
  2773                           
  2774                           	psect	text22
  2775   000EA4                     __ptext22:
  2776                           	callstack 0
  2777   000EA4                     _dispense:
  2778                           	callstack 28
  2779   000EA4  98BA               	bcf	186,4,c	;volatile
  2780   000EA6                     
  2781                           ;vend.c: 84:     TMR1_Initialize();
  2782   000EA6  ECDF  F008         	call	_TMR1_Initialize	;wreg free
  2783   000EAA                     
  2784                           ;vend.c: 85:     TMR1_StopTimer();
  2785   000EAA  EC52  F00A         	call	_TMR1_StopTimer	;wreg free
  2786   000EAE                     
  2787                           ;vend.c: 86:     TMR1_WriteTimer(timeout);
  2788   000EAE  C047  F049         	movff	_timeout,TMR1_WriteTimer@timerVal	;volatile
  2789   000EB2  C048  F04A         	movff	_timeout+1,TMR1_WriteTimer@timerVal+1	;volatile
  2790   000EB6  EC55  F009         	call	_TMR1_WriteTimer	;wreg free
  2791   000EBA                     
  2792                           ;vend.c: 87:     TMR1_StartTimer();
  2793   000EBA  EC54  F00A         	call	_TMR1_StartTimer	;wreg free
  2794   000EBE                     
  2795                           ;vend.c: 88:     DAC1CON1 = 0x0C;
  2796   000EBE  0E0C               	movlw	12
  2797   000EC0  013E               	movlb	62	; () banked
  2798   000EC2  6F9C               	movwf	156,b	;volatile
  2799                           
  2800                           ;vend.c: 89:     while(!PIR4bits.TMR1IF && CM1CON0bits.C1OUT)
  2801   000EC4  EF65  F007         	goto	l943
  2802   000EC8                     l945:
  2803                           
  2804                           ; BSR set to: 62
  2805   000EC8  80BB               	bsf	187,0,c	;volatile
  2806   000ECA                     l943:
  2807                           
  2808                           ; BSR set to: 62
  2809                           ;vend.c: 89:     while(!PIR4bits.TMR1IF && CM1CON0bits.C1OUT)
  2810   000ECA  0139               	movlb	57	; () banked
  2811   000ECC  B1A4               	btfsc	164,0,b	;volatile
  2812   000ECE  EF6B  F007         	goto	u1271
  2813   000ED2  EF6D  F007         	goto	u1270
  2814   000ED6                     u1271:
  2815   000ED6  EF75  F007         	goto	l950
  2816   000EDA                     u1270:
  2817   000EDA                     
  2818                           ; BSR set to: 57
  2819   000EDA  013E               	movlb	62	; () banked
  2820   000EDC  BDBC               	btfsc	188,6,b	;volatile
  2821   000EDE  EF73  F007         	goto	u1281
  2822   000EE2  EF75  F007         	goto	u1280
  2823   000EE6                     u1281:
  2824   000EE6  EF64  F007         	goto	l945
  2825   000EEA                     u1280:
  2826   000EEA                     l950:
  2827   000EEA  90BB               	bcf	187,0,c	;volatile
  2828   000EEC                     
  2829                           ;vend.c: 94:     if(PIR4bits.TMR1IF)
  2830   000EEC  0139               	movlb	57	; () banked
  2831   000EEE  A1A4               	btfss	164,0,b	;volatile
  2832   000EF0  EF7C  F007         	goto	u1291
  2833   000EF4  EF7E  F007         	goto	u1290
  2834   000EF8                     u1291:
  2835   000EF8  EF86  F007         	goto	l3223
  2836   000EFC                     u1290:
  2837   000EFC                     
  2838                           ; BSR set to: 57
  2839   000EFC  0EAA               	movlw	170
  2840   000EFE  6E49               	movwf	DATAEE_WriteByte@bData^0,c
  2841   000F00  0E02               	movlw	2
  2842   000F02  EC69  F008         	call	_DATAEE_WriteByte
  2843   000F06  00FF               	reset		;# 
  2844                           
  2845                           ;vend.c: 98:     }
  2846   000F08  EF8A  F007         	goto	l954
  2847   000F0C                     l3223:
  2848                           
  2849                           ; BSR set to: 57
  2850                           ;vend.c: 100:     {;vend.c: 101:         credit_subtract(vendprice);
  2851   000F0C  5041               	movf	_vendprice^0,w,c	;volatile
  2852   000F0E  ECFA  F008         	call	_credit_subtract
  2853   000F12  00FF               	reset		;# 
  2854   000F14                     l954:
  2855   000F14  0012               	return		;funcret
  2856   000F16                     __end_of_dispense:
  2857                           	callstack 0
  2858                           
  2859 ;; *************** function _credit_subtract *****************
  2860 ;; Defined at:
  2861 ;;		line 68 in file "vend.c"
  2862 ;; Parameters:    Size  Location     Type
  2863 ;;  credit          1    wreg     unsigned char 
  2864 ;; Auto vars:     Size  Location     Type
  2865 ;;  credit          1    3[COMRAM] unsigned char 
  2866 ;; Return value:  Size  Location     Type
  2867 ;;                  1    wreg      void 
  2868 ;; Registers used:
  2869 ;;		wreg, status,2, status,0, cstack
  2870 ;; Tracked objects:
  2871 ;;		On entry : 0/0
  2872 ;;		On exit  : 0/0
  2873 ;;		Unchanged: 0/0
  2874 ;; Data sizes:     COMRAM   BANK0   BANK1   BANK2   BANK3   BANK4   BANK5   BANK6   BANK7
  2875 ;;      Params:         0       0       0       0       0       0       0       0       0
  2876 ;;      Locals:         1       0       0       0       0       0       0       0       0
  2877 ;;      Temps:          0       0       0       0       0       0       0       0       0
  2878 ;;      Totals:         1       0       0       0       0       0       0       0       0
  2879 ;;Total ram usage:        1 bytes
  2880 ;; Hardware stack levels used: 1
  2881 ;; Hardware stack levels required when called: 1
  2882 ;; This function calls:
  2883 ;;		_DATAEE_ReadByte
  2884 ;;		_DATAEE_WriteByte
  2885 ;; This function is called by:
  2886 ;;		_dispense
  2887 ;; This function uses a non-reentrant model
  2888 ;;
  2889                           
  2890                           	psect	text23
  2891   0011F4                     __ptext23:
  2892                           	callstack 0
  2893   0011F4                     _credit_subtract:
  2894                           	callstack 28
  2895                           
  2896                           ;incstack = 0
  2897                           ;credit_subtract@credit stored from wreg
  2898   0011F4  6E4C               	movwf	credit_subtract@credit^0,c
  2899   0011F6  0E00               	movlw	0
  2900   0011F8  ECC6  F009         	call	_DATAEE_ReadByte
  2901   0011FC  6E43               	movwf	_cash^0,c	;volatile
  2902   0011FE                     
  2903                           ;vend.c: 71:     cash = (cash - credit) & 0xFF;
  2904   0011FE  504C               	movf	credit_subtract@credit^0,w,c
  2905   001200  5C43               	subwf	_cash^0,w,c	;volatile
  2906   001202  6E43               	movwf	_cash^0,c	;volatile
  2907   001204  C043  F049         	movff	_cash,DATAEE_WriteByte@bData	;volatile
  2908   001208  0E00               	movlw	0
  2909   00120A  EC69  F008         	call	_DATAEE_WriteByte
  2910   00120E                     
  2911                           ;vend.c: 73:     if(cash == 0)
  2912   00120E  5043               	movf	_cash^0,w,c	;volatile
  2913   001210  A4D8               	btfss	status,2,c
  2914   001212  EF0D  F009         	goto	u1121
  2915   001216  EF0F  F009         	goto	u1120
  2916   00121A                     u1121:
  2917   00121A  EF10  F009         	goto	l938
  2918   00121E                     u1120:
  2919   00121E                     
  2920                           ;vend.c: 74:     {;vend.c: 75:         venflags.iscredit = 0;
  2921   00121E  9024               	bcf	_venflags^0,0,c
  2922   001220                     l938:
  2923   001220  0012               	return		;funcret
  2924   001222                     __end_of_credit_subtract:
  2925                           	callstack 0
  2926                           
  2927 ;; *************** function _TMR1_WriteTimer *****************
  2928 ;; Defined at:
  2929 ;;		line 120 in file "mcc_generated_files/tmr1.c"
  2930 ;; Parameters:    Size  Location     Type
  2931 ;;  timerVal        2    0[COMRAM] unsigned short 
  2932 ;; Auto vars:     Size  Location     Type
  2933 ;;		None
  2934 ;; Return value:  Size  Location     Type
  2935 ;;                  1    wreg      void 
  2936 ;; Registers used:
  2937 ;;		wreg, status,2
  2938 ;; Tracked objects:
  2939 ;;		On entry : 0/0
  2940 ;;		On exit  : 0/0
  2941 ;;		Unchanged: 0/0
  2942 ;; Data sizes:     COMRAM   BANK0   BANK1   BANK2   BANK3   BANK4   BANK5   BANK6   BANK7
  2943 ;;      Params:         2       0       0       0       0       0       0       0       0
  2944 ;;      Locals:         0       0       0       0       0       0       0       0       0
  2945 ;;      Temps:          0       0       0       0       0       0       0       0       0
  2946 ;;      Totals:         2       0       0       0       0       0       0       0       0
  2947 ;;Total ram usage:        2 bytes
  2948 ;; Hardware stack levels used: 1
  2949 ;; This function calls:
  2950 ;;		Nothing
  2951 ;; This function is called by:
  2952 ;;		_dispense
  2953 ;;		_TMR1_Reload
  2954 ;; This function uses a non-reentrant model
  2955 ;;
  2956                           
  2957                           	psect	text24
  2958   0012AA                     __ptext24:
  2959                           	callstack 0
  2960   0012AA                     _TMR1_WriteTimer:
  2961                           	callstack 29
  2962   0012AA                     
  2963                           ;mcc_generated_files/tmr1.c: 120: void TMR1_WriteTimer(uint16_t timerVal);mcc_generated_
      +                          files/tmr1.c: 121: {;mcc_generated_files/tmr1.c: 122:     if (T1CONbits.NOT_SYNC == 1)
  2964   0012AA  A4B2               	btfss	178,2,c	;volatile
  2965   0012AC  EF5A  F009         	goto	u1101
  2966   0012B0  EF5C  F009         	goto	u1100
  2967   0012B4                     u1101:
  2968   0012B4  EF65  F009         	goto	l3061
  2969   0012B8                     u1100:
  2970   0012B8                     
  2971                           ;mcc_generated_files/tmr1.c: 123:     {;mcc_generated_files/tmr1.c: 125:         T1CONbi
      +                          ts.TMR1ON = 0;
  2972   0012B8  90B2               	bcf	178,0,c	;volatile
  2973   0012BA                     
  2974                           ;mcc_generated_files/tmr1.c: 128:         TMR1H = (timerVal >> 8);
  2975   0012BA  504A               	movf	(TMR1_WriteTimer@timerVal+1)^0,w,c
  2976   0012BC  6EB1               	movwf	177,c	;volatile
  2977   0012BE                     
  2978                           ;mcc_generated_files/tmr1.c: 129:         TMR1L = timerVal;
  2979   0012BE  0060  F127  FFB0   	movff	TMR1_WriteTimer@timerVal,16304	;volatile
  2980   0012C4                     
  2981                           ;mcc_generated_files/tmr1.c: 132:         T1CONbits.TMR1ON =1;
  2982   0012C4  80B2               	bsf	178,0,c	;volatile
  2983                           
  2984                           ;mcc_generated_files/tmr1.c: 133:     }
  2985   0012C6  EF6A  F009         	goto	l259
  2986   0012CA                     l3061:
  2987                           
  2988                           ;mcc_generated_files/tmr1.c: 135:     {;mcc_generated_files/tmr1.c: 137:         TMR1H =
      +                           (timerVal >> 8);
  2989   0012CA  504A               	movf	(TMR1_WriteTimer@timerVal+1)^0,w,c
  2990   0012CC  6EB1               	movwf	177,c	;volatile
  2991   0012CE                     
  2992                           ;mcc_generated_files/tmr1.c: 138:         TMR1L = timerVal;
  2993   0012CE  0060  F127  FFB0   	movff	TMR1_WriteTimer@timerVal,16304	;volatile
  2994   0012D4                     l259:
  2995   0012D4  0012               	return		;funcret
  2996   0012D6                     __end_of_TMR1_WriteTimer:
  2997                           	callstack 0
  2998                           
  2999 ;; *************** function _TMR1_StopTimer *****************
  3000 ;; Defined at:
  3001 ;;		line 98 in file "mcc_generated_files/tmr1.c"
  3002 ;; Parameters:    Size  Location     Type
  3003 ;;		None
  3004 ;; Auto vars:     Size  Location     Type
  3005 ;;		None
  3006 ;; Return value:  Size  Location     Type
  3007 ;;                  1    wreg      void 
  3008 ;; Registers used:
  3009 ;;		None
  3010 ;; Tracked objects:
  3011 ;;		On entry : 0/0
  3012 ;;		On exit  : 0/0
  3013 ;;		Unchanged: 0/0
  3014 ;; Data sizes:     COMRAM   BANK0   BANK1   BANK2   BANK3   BANK4   BANK5   BANK6   BANK7
  3015 ;;      Params:         0       0       0       0       0       0       0       0       0
  3016 ;;      Locals:         0       0       0       0       0       0       0       0       0
  3017 ;;      Temps:          0       0       0       0       0       0       0       0       0
  3018 ;;      Totals:         0       0       0       0       0       0       0       0       0
  3019 ;;Total ram usage:        0 bytes
  3020 ;; Hardware stack levels used: 1
  3021 ;; This function calls:
  3022 ;;		Nothing
  3023 ;; This function is called by:
  3024 ;;		_dispense
  3025 ;;		_Set_Timeout
  3026 ;; This function uses a non-reentrant model
  3027 ;;
  3028                           
  3029                           	psect	text25
  3030   0014A4                     __ptext25:
  3031                           	callstack 0
  3032   0014A4                     _TMR1_StopTimer:
  3033                           	callstack 28
  3034   0014A4                     
  3035                           ;mcc_generated_files/tmr1.c: 101:     T1CONbits.TMR1ON = 0;
  3036   0014A4  90B2               	bcf	178,0,c	;volatile
  3037   0014A6  0012               	return		;funcret
  3038   0014A8                     __end_of_TMR1_StopTimer:
  3039                           	callstack 0
  3040                           
  3041 ;; *************** function _TMR1_StartTimer *****************
  3042 ;; Defined at:
  3043 ;;		line 92 in file "mcc_generated_files/tmr1.c"
  3044 ;; Parameters:    Size  Location     Type
  3045 ;;		None
  3046 ;; Auto vars:     Size  Location     Type
  3047 ;;		None
  3048 ;; Return value:  Size  Location     Type
  3049 ;;                  1    wreg      void 
  3050 ;; Registers used:
  3051 ;;		None
  3052 ;; Tracked objects:
  3053 ;;		On entry : 0/0
  3054 ;;		On exit  : 0/0
  3055 ;;		Unchanged: 0/0
  3056 ;; Data sizes:     COMRAM   BANK0   BANK1   BANK2   BANK3   BANK4   BANK5   BANK6   BANK7
  3057 ;;      Params:         0       0       0       0       0       0       0       0       0
  3058 ;;      Locals:         0       0       0       0       0       0       0       0       0
  3059 ;;      Temps:          0       0       0       0       0       0       0       0       0
  3060 ;;      Totals:         0       0       0       0       0       0       0       0       0
  3061 ;;Total ram usage:        0 bytes
  3062 ;; Hardware stack levels used: 1
  3063 ;; This function calls:
  3064 ;;		Nothing
  3065 ;; This function is called by:
  3066 ;;		_dispense
  3067 ;; This function uses a non-reentrant model
  3068 ;;
  3069                           
  3070                           	psect	text26
  3071   0014A8                     __ptext26:
  3072                           	callstack 0
  3073   0014A8                     _TMR1_StartTimer:
  3074                           	callstack 29
  3075   0014A8                     
  3076                           ;mcc_generated_files/tmr1.c: 95:     T1CONbits.TMR1ON = 1;
  3077   0014A8  80B2               	bsf	178,0,c	;volatile
  3078   0014AA  0012               	return		;funcret
  3079   0014AC                     __end_of_TMR1_StartTimer:
  3080                           	callstack 0
  3081                           
  3082 ;; *************** function _coin_in *****************
  3083 ;; Defined at:
  3084 ;;		line 33 in file "vend.c"
  3085 ;; Parameters:    Size  Location     Type
  3086 ;;		None
  3087 ;; Auto vars:     Size  Location     Type
  3088 ;;		None
  3089 ;; Return value:  Size  Location     Type
  3090 ;;                  1    wreg      void 
  3091 ;; Registers used:
  3092 ;;		wreg, status,2, status,0, cstack
  3093 ;; Tracked objects:
  3094 ;;		On entry : 0/0
  3095 ;;		On exit  : 0/0
  3096 ;;		Unchanged: 0/0
  3097 ;; Data sizes:     COMRAM   BANK0   BANK1   BANK2   BANK3   BANK4   BANK5   BANK6   BANK7
  3098 ;;      Params:         0       0       0       0       0       0       0       0       0
  3099 ;;      Locals:         0       0       0       0       0       0       0       0       0
  3100 ;;      Temps:          1       0       0       0       0       0       0       0       0
  3101 ;;      Totals:         1       0       0       0       0       0       0       0       0
  3102 ;;Total ram usage:        1 bytes
  3103 ;; Hardware stack levels used: 1
  3104 ;; Hardware stack levels required when called: 2
  3105 ;; This function calls:
  3106 ;;		_TMR5_Initialize
  3107 ;;		_credit_add
  3108 ;;		_credit_check
  3109 ;;		_switch_read
  3110 ;; This function is called by:
  3111 ;;		_main
  3112 ;; This function uses a non-reentrant model
  3113 ;;
  3114                           
  3115                           	psect	text27
  3116   001082                     __ptext27:
  3117                           	callstack 0
  3118   001082                     _coin_in:
  3119                           	callstack 28
  3120   001082                     
  3121                           ;vend.c: 35:     TMR5_Initialize();
  3122   001082  ECA9  F008         	call	_TMR5_Initialize	;wreg free
  3123   001086                     
  3124                           ;vend.c: 36:     venflags.t5time = 0;
  3125   001086  9625               	bcf	(_venflags+1)^0,3,c
  3126   001088                     
  3127                           ;vend.c: 37:     if(switch_read())
  3128   001088  EC11  F007         	call	_switch_read	;wreg free
  3129   00108C  0900               	iorlw	0
  3130   00108E  B4D8               	btfsc	status,2,c
  3131   001090  EF4C  F008         	goto	u1241
  3132   001094  EF4E  F008         	goto	u1240
  3133   001098                     u1241:
  3134   001098  EF5B  F008         	goto	l920
  3135   00109C                     u1240:
  3136   00109C                     l3205:
  3137   00109C  EC11  F007         	call	_switch_read	;wreg free
  3138   0010A0  0900               	iorlw	0
  3139   0010A2  A4D8               	btfss	status,2,c
  3140   0010A4  EF56  F008         	goto	u1251
  3141   0010A8  EF58  F008         	goto	u1250
  3142   0010AC                     u1251:
  3143   0010AC  EF4E  F008         	goto	l3205
  3144   0010B0                     u1250:
  3145   0010B0                     
  3146                           ;vend.c: 40:         credit_add(0x01);
  3147   0010B0  0E01               	movlw	1
  3148   0010B2  EC11  F009         	call	_credit_add
  3149   0010B6                     l920:
  3150                           
  3151                           ;vend.c: 42:     if(credit_check() >= vendprice)
  3152   0010B6  EC23  F00A         	call	_credit_check	;wreg free
  3153   0010BA  6E4D               	movwf	??_coin_in^0,c
  3154   0010BC  5041               	movf	_vendprice^0,w,c	;volatile
  3155   0010BE  5C4D               	subwf	??_coin_in^0,w,c
  3156   0010C0  A0D8               	btfss	status,0,c
  3157   0010C2  EF65  F008         	goto	u1261
  3158   0010C6  EF67  F008         	goto	u1260
  3159   0010CA                     u1261:
  3160   0010CA  EF68  F008         	goto	l927
  3161   0010CE                     u1260:
  3162   0010CE  8CBC               	bsf	188,6,c	;volatile
  3163   0010D0                     l927:
  3164   0010D0  0012               	return		;funcret
  3165   0010D2                     __end_of_coin_in:
  3166                           	callstack 0
  3167                           
  3168 ;; *************** function _switch_read *****************
  3169 ;; Defined at:
  3170 ;;		line 190 in file "vend.c"
  3171 ;; Parameters:    Size  Location     Type
  3172 ;;		None
  3173 ;; Auto vars:     Size  Location     Type
  3174 ;;		None
  3175 ;; Return value:  Size  Location     Type
  3176 ;;                  1    wreg      _Bool 
  3177 ;; Registers used:
  3178 ;;		wreg, status,2
  3179 ;; Tracked objects:
  3180 ;;		On entry : 0/0
  3181 ;;		On exit  : 0/0
  3182 ;;		Unchanged: 0/0
  3183 ;; Data sizes:     COMRAM   BANK0   BANK1   BANK2   BANK3   BANK4   BANK5   BANK6   BANK7
  3184 ;;      Params:         0       0       0       0       0       0       0       0       0
  3185 ;;      Locals:         0       0       0       0       0       0       0       0       0
  3186 ;;      Temps:          1       0       0       0       0       0       0       0       0
  3187 ;;      Totals:         1       0       0       0       0       0       0       0       0
  3188 ;;Total ram usage:        1 bytes
  3189 ;; Hardware stack levels used: 1
  3190 ;; This function calls:
  3191 ;;		Nothing
  3192 ;; This function is called by:
  3193 ;;		_coin_in
  3194 ;;		_enter_service
  3195 ;; This function uses a non-reentrant model
  3196 ;;
  3197                           
  3198                           	psect	text28
  3199   000E22                     __ptext28:
  3200                           	callstack 0
  3201   000E22                     _switch_read:
  3202                           	callstack 29
  3203   000E22                     
  3204                           ;vend.c: 192:     if(PORTAbits.RA5 == venflags.swclosed)
  3205   000E22  B025               	btfsc	(_venflags+1)^0,0,c
  3206   000E24  EF16  F007         	goto	u281
  3207   000E28  EF19  F007         	goto	u280
  3208   000E2C                     u281:
  3209   000E2C  0E01               	movlw	1
  3210   000E2E  EF1A  F007         	goto	u282
  3211   000E32                     u280:
  3212   000E32  0E00               	movlw	0
  3213   000E34                     u282:
  3214   000E34  6E49               	movwf	??_switch_read^0,c
  3215   000E36  BACA               	btfsc	202,5,c	;volatile
  3216   000E38  EF20  F007         	goto	u291
  3217   000E3C  EF23  F007         	goto	u290
  3218   000E40                     u291:
  3219   000E40  0E01               	movlw	1
  3220   000E42  EF24  F007         	goto	u292
  3221   000E46                     u290:
  3222   000E46  0E00               	movlw	0
  3223   000E48                     u292:
  3224   000E48  1A49               	xorwf	??_switch_read^0,f,c
  3225   000E4A  A4D8               	btfss	status,2,c
  3226   000E4C  EF2A  F007         	goto	u301
  3227   000E50  EF2C  F007         	goto	u300
  3228   000E54                     u301:
  3229   000E54  EF44  F007         	goto	l2245
  3230   000E58                     u300:
  3231   000E58                     
  3232                           ;vend.c: 193:     {;vend.c: 194:         if(venflags.swclosed)
  3233   000E58  A025               	btfss	(_venflags+1)^0,0,c
  3234   000E5A  EF31  F007         	goto	u311
  3235   000E5E  EF33  F007         	goto	u310
  3236   000E62                     u311:
  3237   000E62  EF3D  F007         	goto	l2243
  3238   000E66                     u310:
  3239   000E66                     
  3240                           ;vend.c: 195:         {;vend.c: 196:             _delay((unsigned long)((2500)*(12000000
      +                          /4000000.0)));
  3241   000E66  0E0A               	movlw	10
  3242   000E68  6E49               	movwf	??_switch_read^0,c
  3243   000E6A  0EBC               	movlw	188
  3244   000E6C                     u1537:
  3245   000E6C  2EE8               	decfsz	wreg,f,c
  3246   000E6E  D7FE               	bra	u1537
  3247   000E70  2E49               	decfsz	??_switch_read^0,f,c
  3248   000E72  D7FC               	bra	u1537
  3249   000E74  D000               	nop2	
  3250                           
  3251                           ;vend.c: 197:         }
  3252   000E76  EF44  F007         	goto	l2245
  3253   000E7A                     l2243:
  3254                           
  3255                           ;vend.c: 199:         {;vend.c: 200:             _delay((unsigned long)((15)*(12000000/4
      +                          000.0)));
  3256   000E7A  0E3B               	movlw	59
  3257   000E7C  6E49               	movwf	??_switch_read^0,c
  3258   000E7E  0E70               	movlw	112
  3259   000E80                     u1547:
  3260   000E80  2EE8               	decfsz	wreg,f,c
  3261   000E82  D7FE               	bra	u1547
  3262   000E84  2E49               	decfsz	??_switch_read^0,f,c
  3263   000E86  D7FC               	bra	u1547
  3264   000E88                     l2245:
  3265                           
  3266                           ;vend.c: 203:     if(PORTAbits.RA5)
  3267   000E88  AACA               	btfss	202,5,c	;volatile
  3268   000E8A  EF49  F007         	goto	u321
  3269   000E8E  EF4B  F007         	goto	u320
  3270   000E92                     u321:
  3271   000E92  EF4F  F007         	goto	l1002
  3272   000E96                     u320:
  3273   000E96                     
  3274                           ;vend.c: 204:     {;vend.c: 205:         venflags.swclosed = 0;
  3275   000E96  9025               	bcf	(_venflags+1)^0,0,c
  3276   000E98                     
  3277                           ;vend.c: 206:         return 0;
  3278   000E98  0E00               	movlw	0
  3279   000E9A  EF51  F007         	goto	l1003
  3280   000E9E                     l1002:
  3281                           
  3282                           ;vend.c: 209:     {;vend.c: 210:         venflags.swclosed = 1;
  3283   000E9E  8025               	bsf	(_venflags+1)^0,0,c
  3284   000EA0                     
  3285                           ;vend.c: 211:         return 1;
  3286   000EA0  0E01               	movlw	1
  3287   000EA2                     l1003:
  3288   000EA2  0012               	return		;funcret
  3289   000EA4                     __end_of_switch_read:
  3290                           	callstack 0
  3291                           
  3292 ;; *************** function _credit_check *****************
  3293 ;; Defined at:
  3294 ;;		line 50 in file "vend.c"
  3295 ;; Parameters:    Size  Location     Type
  3296 ;;		None
  3297 ;; Auto vars:     Size  Location     Type
  3298 ;;		None
  3299 ;; Return value:  Size  Location     Type
  3300 ;;                  1    wreg      unsigned char 
  3301 ;; Registers used:
  3302 ;;		wreg, status,2, cstack
  3303 ;; Tracked objects:
  3304 ;;		On entry : 0/0
  3305 ;;		On exit  : 0/0
  3306 ;;		Unchanged: 0/0
  3307 ;; Data sizes:     COMRAM   BANK0   BANK1   BANK2   BANK3   BANK4   BANK5   BANK6   BANK7
  3308 ;;      Params:         0       0       0       0       0       0       0       0       0
  3309 ;;      Locals:         0       0       0       0       0       0       0       0       0
  3310 ;;      Temps:          0       0       0       0       0       0       0       0       0
  3311 ;;      Totals:         0       0       0       0       0       0       0       0       0
  3312 ;;Total ram usage:        0 bytes
  3313 ;; Hardware stack levels used: 1
  3314 ;; Hardware stack levels required when called: 1
  3315 ;; This function calls:
  3316 ;;		_DATAEE_ReadByte
  3317 ;; This function is called by:
  3318 ;;		_main
  3319 ;;		_coin_in
  3320 ;; This function uses a non-reentrant model
  3321 ;;
  3322                           
  3323                           	psect	text29
  3324   001446                     __ptext29:
  3325                           	callstack 0
  3326   001446                     _credit_check:
  3327                           	callstack 29
  3328   001446  0E00               	movlw	0
  3329   001448  ECC6  F009         	call	_DATAEE_ReadByte
  3330   00144C  6E43               	movwf	_cash^0,c	;volatile
  3331   00144E                     
  3332                           ;vend.c: 53:     return(cash);
  3333   00144E  5043               	movf	_cash^0,w,c	;volatile
  3334   001450  0012               	return		;funcret
  3335   001452                     __end_of_credit_check:
  3336                           	callstack 0
  3337                           
  3338 ;; *************** function _credit_add *****************
  3339 ;; Defined at:
  3340 ;;		line 56 in file "vend.c"
  3341 ;; Parameters:    Size  Location     Type
  3342 ;;  credit          1    wreg     unsigned char 
  3343 ;; Auto vars:     Size  Location     Type
  3344 ;;  credit          1    3[COMRAM] unsigned char 
  3345 ;; Return value:  Size  Location     Type
  3346 ;;                  1    wreg      void 
  3347 ;; Registers used:
  3348 ;;		wreg, status,2, status,0, cstack
  3349 ;; Tracked objects:
  3350 ;;		On entry : 0/0
  3351 ;;		On exit  : 0/0
  3352 ;;		Unchanged: 0/0
  3353 ;; Data sizes:     COMRAM   BANK0   BANK1   BANK2   BANK3   BANK4   BANK5   BANK6   BANK7
  3354 ;;      Params:         0       0       0       0       0       0       0       0       0
  3355 ;;      Locals:         1       0       0       0       0       0       0       0       0
  3356 ;;      Temps:          0       0       0       0       0       0       0       0       0
  3357 ;;      Totals:         1       0       0       0       0       0       0       0       0
  3358 ;;Total ram usage:        1 bytes
  3359 ;; Hardware stack levels used: 1
  3360 ;; Hardware stack levels required when called: 1
  3361 ;; This function calls:
  3362 ;;		_DATAEE_ReadByte
  3363 ;;		_DATAEE_WriteByte
  3364 ;; This function is called by:
  3365 ;;		_coin_in
  3366 ;; This function uses a non-reentrant model
  3367 ;;
  3368                           
  3369                           	psect	text30
  3370   001222                     __ptext30:
  3371                           	callstack 0
  3372   001222                     _credit_add:
  3373                           	callstack 28
  3374                           
  3375                           ;incstack = 0
  3376                           ;credit_add@credit stored from wreg
  3377   001222  6E4C               	movwf	credit_add@credit^0,c
  3378   001224  0E00               	movlw	0
  3379   001226  ECC6  F009         	call	_DATAEE_ReadByte
  3380   00122A  6E43               	movwf	_cash^0,c	;volatile
  3381   00122C                     
  3382                           ;vend.c: 59:     cash = cash + credit;
  3383   00122C  5043               	movf	_cash^0,w,c	;volatile
  3384   00122E  244C               	addwf	credit_add@credit^0,w,c
  3385   001230  6E43               	movwf	_cash^0,c	;volatile
  3386   001232  C043  F049         	movff	_cash,DATAEE_WriteByte@bData	;volatile
  3387   001236  0E00               	movlw	0
  3388   001238  EC69  F008         	call	_DATAEE_WriteByte
  3389   00123C                     
  3390                           ;vend.c: 61:     if(cash != 0)
  3391   00123C  5043               	movf	_cash^0,w,c	;volatile
  3392   00123E  B4D8               	btfsc	status,2,c
  3393   001240  EF24  F009         	goto	u1111
  3394   001244  EF26  F009         	goto	u1110
  3395   001248                     u1111:
  3396   001248  EF27  F009         	goto	l934
  3397   00124C                     u1110:
  3398   00124C                     
  3399                           ;vend.c: 62:     {;vend.c: 63:         venflags.iscredit = 1;
  3400   00124C  8024               	bsf	_venflags^0,0,c
  3401   00124E                     l934:
  3402   00124E  0012               	return		;funcret
  3403   001250                     __end_of_credit_add:
  3404                           	callstack 0
  3405                           
  3406 ;; *************** function _DATAEE_WriteByte *****************
  3407 ;; Defined at:
  3408 ;;		line 165 in file "mcc_generated_files/memory.c"
  3409 ;; Parameters:    Size  Location     Type
  3410 ;;  bAdd            1    wreg     unsigned char 
  3411 ;;  bData           1    0[COMRAM] unsigned char 
  3412 ;; Auto vars:     Size  Location     Type
  3413 ;;  bAdd            1    1[COMRAM] unsigned char 
  3414 ;;  GIEBitValue     1    2[COMRAM] unsigned char 
  3415 ;; Return value:  Size  Location     Type
  3416 ;;                  1    wreg      void 
  3417 ;; Registers used:
  3418 ;;		wreg, status,2
  3419 ;; Tracked objects:
  3420 ;;		On entry : 0/0
  3421 ;;		On exit  : 0/0
  3422 ;;		Unchanged: 0/0
  3423 ;; Data sizes:     COMRAM   BANK0   BANK1   BANK2   BANK3   BANK4   BANK5   BANK6   BANK7
  3424 ;;      Params:         1       0       0       0       0       0       0       0       0
  3425 ;;      Locals:         2       0       0       0       0       0       0       0       0
  3426 ;;      Temps:          0       0       0       0       0       0       0       0       0
  3427 ;;      Totals:         3       0       0       0       0       0       0       0       0
  3428 ;;Total ram usage:        3 bytes
  3429 ;; Hardware stack levels used: 1
  3430 ;; This function calls:
  3431 ;;		Nothing
  3432 ;; This function is called by:
  3433 ;;		_main
  3434 ;;		_credit_add
  3435 ;;		_credit_subtract
  3436 ;;		_dispense
  3437 ;;		_enter_service
  3438 ;;		_Set_Timeout
  3439 ;;		_save_notes
  3440 ;; This function uses a non-reentrant model
  3441 ;;
  3442                           
  3443                           	psect	text31
  3444   0010D2                     __ptext31:
  3445                           	callstack 0
  3446   0010D2                     _DATAEE_WriteByte:
  3447                           	callstack 28
  3448                           
  3449                           ;incstack = 0
  3450                           ;DATAEE_WriteByte@bAdd stored from wreg
  3451   0010D2  6E4A               	movwf	DATAEE_WriteByte@bAdd^0,c
  3452   0010D4                     
  3453                           ;mcc_generated_files/memory.c: 165: void DATAEE_WriteByte(uint8_t bAdd, uint8_t bData);m
      +                          cc_generated_files/memory.c: 166: {;mcc_generated_files/memory.c: 167:     uint8_t GIEBi
      +                          tValue = INTCON0bits.GIE;
  3454   0010D4  0E00               	movlw	0
  3455   0010D6  BED2               	btfsc	210,7,c	;volatile
  3456   0010D8  0E01               	movlw	1
  3457   0010DA  6E4B               	movwf	DATAEE_WriteByte@GIEBitValue^0,c
  3458   0010DC                     
  3459                           ;mcc_generated_files/memory.c: 169:     NVMADRL = (uint8_t)(bAdd & 0xFF);
  3460   0010DC  0060  F12B  F9E0   	movff	DATAEE_WriteByte@bAdd,14816	;volatile
  3461   0010E2                     
  3462                           ;mcc_generated_files/memory.c: 170:     NVMDAT = bData;
  3463   0010E2  0060  F127  F9E3   	movff	DATAEE_WriteByte@bData,14819	;volatile
  3464   0010E8                     
  3465                           ;mcc_generated_files/memory.c: 171:     NVMCON1bits.NVMREG = 0;
  3466   0010E8  0E3F               	movlw	-193
  3467   0010EA  0139               	movlb	57	; () banked
  3468   0010EC  17E5               	andwf	229,f,b	;volsfr
  3469   0010EE                     
  3470                           ; BSR set to: 57
  3471                           ;mcc_generated_files/memory.c: 172:     NVMCON1bits.WREN = 1;
  3472   0010EE  85E5               	bsf	229,2,b	;volsfr
  3473   0010F0                     
  3474                           ; BSR set to: 57
  3475                           ;mcc_generated_files/memory.c: 173:     INTCON0bits.GIE = 0;
  3476   0010F0  9ED2               	bcf	210,7,c	;volatile
  3477   0010F2                     
  3478                           ; BSR set to: 57
  3479                           ;mcc_generated_files/memory.c: 174:     NVMCON2 = 0x55;
  3480   0010F2  0E55               	movlw	85
  3481   0010F4  6FE6               	movwf	230,b	;volsfr
  3482   0010F6                     
  3483                           ; BSR set to: 57
  3484                           ;mcc_generated_files/memory.c: 175:     NVMCON2 = 0xAA;
  3485   0010F6  0EAA               	movlw	170
  3486   0010F8  6FE6               	movwf	230,b	;volsfr
  3487   0010FA                     
  3488                           ; BSR set to: 57
  3489                           ;mcc_generated_files/memory.c: 176:     NVMCON1bits.WR = 1;
  3490   0010FA  83E5               	bsf	229,1,b	;volsfr
  3491   0010FC                     l156:
  3492                           
  3493                           ; BSR set to: 57
  3494                           ;mcc_generated_files/memory.c: 178:     while (NVMCON1bits.WR)
  3495   0010FC  B3E5               	btfsc	229,1,b	;volsfr
  3496   0010FE  EF83  F008         	goto	u981
  3497   001102  EF85  F008         	goto	u980
  3498   001106                     u981:
  3499   001106  EF7E  F008         	goto	l156
  3500   00110A                     u980:
  3501   00110A                     
  3502                           ; BSR set to: 57
  3503                           ;mcc_generated_files/memory.c: 182:     NVMCON1bits.WREN = 0;
  3504   00110A  95E5               	bcf	229,2,b	;volsfr
  3505                           
  3506                           ;mcc_generated_files/memory.c: 183:     INTCON0bits.GIE = GIEBitValue;
  3507   00110C  B04B               	btfsc	DATAEE_WriteByte@GIEBitValue^0,0,c
  3508   00110E  D002               	bra	u995
  3509   001110  9ED2               	bcf	210,7,c	;volatile
  3510   001112  D001               	bra	u996
  3511   001114                     u995:
  3512   001114  8ED2               	bsf	210,7,c	;volatile
  3513   001116                     u996:
  3514   001116  0012               	return		;funcret
  3515   001118                     __end_of_DATAEE_WriteByte:
  3516                           	callstack 0
  3517                           
  3518 ;; *************** function _DATAEE_ReadByte *****************
  3519 ;; Defined at:
  3520 ;;		line 186 in file "mcc_generated_files/memory.c"
  3521 ;; Parameters:    Size  Location     Type
  3522 ;;  bAdd            1    wreg     unsigned char 
  3523 ;; Auto vars:     Size  Location     Type
  3524 ;;  bAdd            1    0[COMRAM] unsigned char 
  3525 ;; Return value:  Size  Location     Type
  3526 ;;                  1    wreg      unsigned char 
  3527 ;; Registers used:
  3528 ;;		wreg, status,2
  3529 ;; Tracked objects:
  3530 ;;		On entry : 0/0
  3531 ;;		On exit  : 0/0
  3532 ;;		Unchanged: 0/0
  3533 ;; Data sizes:     COMRAM   BANK0   BANK1   BANK2   BANK3   BANK4   BANK5   BANK6   BANK7
  3534 ;;      Params:         0       0       0       0       0       0       0       0       0
  3535 ;;      Locals:         1       0       0       0       0       0       0       0       0
  3536 ;;      Temps:          0       0       0       0       0       0       0       0       0
  3537 ;;      Totals:         1       0       0       0       0       0       0       0       0
  3538 ;;Total ram usage:        1 bytes
  3539 ;; Hardware stack levels used: 1
  3540 ;; This function calls:
  3541 ;;		Nothing
  3542 ;; This function is called by:
  3543 ;;		_vend_init
  3544 ;;		_credit_check
  3545 ;;		_credit_add
  3546 ;;		_credit_subtract
  3547 ;; This function uses a non-reentrant model
  3548 ;;
  3549                           
  3550                           	psect	text32
  3551   00138C                     __ptext32:
  3552                           	callstack 0
  3553   00138C                     _DATAEE_ReadByte:
  3554                           	callstack 29
  3555                           
  3556                           ;incstack = 0
  3557                           ;DATAEE_ReadByte@bAdd stored from wreg
  3558   00138C  6E49               	movwf	DATAEE_ReadByte@bAdd^0,c
  3559   00138E                     
  3560                           ;mcc_generated_files/memory.c: 186: uint8_t DATAEE_ReadByte(uint8_t bAdd);mcc_generated_
      +                          files/memory.c: 187: {;mcc_generated_files/memory.c: 188:     NVMADRL = (uint8_t)(bAdd &
      +                           0xFF);
  3561   00138E  0060  F127  F9E0   	movff	DATAEE_ReadByte@bAdd,14816	;volatile
  3562   001394                     
  3563                           ;mcc_generated_files/memory.c: 189:     NVMCON1bits.NVMREG = 0;
  3564   001394  0E3F               	movlw	-193
  3565   001396  0139               	movlb	57	; () banked
  3566   001398  17E5               	andwf	229,f,b	;volsfr
  3567   00139A                     
  3568                           ; BSR set to: 57
  3569                           ;mcc_generated_files/memory.c: 190:     NVMCON1bits.RD = 1;
  3570   00139A  81E5               	bsf	229,0,b	;volsfr
  3571   00139C                     
  3572                           ; BSR set to: 57
  3573                           ;mcc_generated_files/memory.c: 191:     __nop();
  3574   00139C  F000               	nop	
  3575   00139E                     
  3576                           ;mcc_generated_files/memory.c: 192:     __nop();
  3577   00139E  F000               	nop	
  3578   0013A0                     
  3579                           ;mcc_generated_files/memory.c: 194:     return (NVMDAT);
  3580   0013A0  0139               	movlb	57	; () banked
  3581   0013A2  51E3               	movf	227,w,b	;volatile
  3582   0013A4                     
  3583                           ; BSR set to: 57
  3584   0013A4  0012               	return		;funcret
  3585   0013A6                     __end_of_DATAEE_ReadByte:
  3586                           	callstack 0
  3587                           
  3588 ;; *************** function _SYSTEM_Initialize *****************
  3589 ;; Defined at:
  3590 ;;		line 50 in file "mcc_generated_files/mcc.c"
  3591 ;; Parameters:    Size  Location     Type
  3592 ;;		None
  3593 ;; Auto vars:     Size  Location     Type
  3594 ;;		None
  3595 ;; Return value:  Size  Location     Type
  3596 ;;                  1    wreg      void 
  3597 ;; Registers used:
  3598 ;;		wreg, status,2, status,0, cstack
  3599 ;; Tracked objects:
  3600 ;;		On entry : 0/0
  3601 ;;		On exit  : 0/0
  3602 ;;		Unchanged: 0/0
  3603 ;; Data sizes:     COMRAM   BANK0   BANK1   BANK2   BANK3   BANK4   BANK5   BANK6   BANK7
  3604 ;;      Params:         0       0       0       0       0       0       0       0       0
  3605 ;;      Locals:         0       0       0       0       0       0       0       0       0
  3606 ;;      Temps:          0       0       0       0       0       0       0       0       0
  3607 ;;      Totals:         0       0       0       0       0       0       0       0       0
  3608 ;;Total ram usage:        0 bytes
  3609 ;; Hardware stack levels used: 1
  3610 ;; Hardware stack levels required when called: 2
  3611 ;; This function calls:
  3612 ;;		_CMP1_Initialize
  3613 ;;		_DAC1_Initialize
  3614 ;;		_OSCILLATOR_Initialize
  3615 ;;		_PIN_MANAGER_Initialize
  3616 ;;		_PMD_Initialize
  3617 ;;		_SPI1_Initialize
  3618 ;;		_TMR1_Initialize
  3619 ;;		_TMR3_Initialize
  3620 ;;		_TMR5_Initialize
  3621 ;;		_UART1_Initialize
  3622 ;;		_UART2_Initialize
  3623 ;; This function is called by:
  3624 ;;		_main
  3625 ;; This function uses a non-reentrant model
  3626 ;;
  3627                           
  3628                           	psect	text33
  3629   001250                     __ptext33:
  3630                           	callstack 0
  3631   001250                     _SYSTEM_Initialize:
  3632                           	callstack 28
  3633   001250                     
  3634                           ;mcc_generated_files/mcc.c: 52:     PMD_Initialize();
  3635   001250  ECA7  F009         	call	_PMD_Initialize	;wreg free
  3636                           
  3637                           ;mcc_generated_files/mcc.c: 53:     PIN_MANAGER_Initialize();
  3638   001254  ECCF  F006         	call	_PIN_MANAGER_Initialize	;wreg free
  3639                           
  3640                           ;mcc_generated_files/mcc.c: 54:     OSCILLATOR_Initialize();
  3641   001258  ECE0  F009         	call	_OSCILLATOR_Initialize	;wreg free
  3642                           
  3643                           ;mcc_generated_files/mcc.c: 55:     CMP1_Initialize();
  3644   00125C  ECF7  F009         	call	_CMP1_Initialize	;wreg free
  3645   001260                     
  3646                           ;mcc_generated_files/mcc.c: 56:     TMR3_Initialize();
  3647   001260  ECC4  F008         	call	_TMR3_Initialize	;wreg free
  3648   001264                     
  3649                           ;mcc_generated_files/mcc.c: 57:     DAC1_Initialize();
  3650   001264  EC29  F00A         	call	_DAC1_Initialize	;wreg free
  3651                           
  3652                           ;mcc_generated_files/mcc.c: 58:     TMR5_Initialize();
  3653   001268  ECA9  F008         	call	_TMR5_Initialize	;wreg free
  3654                           
  3655                           ;mcc_generated_files/mcc.c: 59:     TMR1_Initialize();
  3656   00126C  ECDF  F008         	call	_TMR1_Initialize	;wreg free
  3657                           
  3658                           ;mcc_generated_files/mcc.c: 60:     UART2_Initialize();
  3659   001270  ECBF  F007         	call	_UART2_Initialize	;wreg free
  3660                           
  3661                           ;mcc_generated_files/mcc.c: 61:     UART1_Initialize();
  3662   001274  EC8B  F007         	call	_UART1_Initialize	;wreg free
  3663   001278                     
  3664                           ;mcc_generated_files/mcc.c: 62:     SPI1_Initialize();
  3665   001278  ECD3  F009         	call	_SPI1_Initialize	;wreg free
  3666   00127C  0012               	return		;funcret
  3667   00127E                     __end_of_SYSTEM_Initialize:
  3668                           	callstack 0
  3669                           
  3670 ;; *************** function _UART2_Initialize *****************
  3671 ;; Defined at:
  3672 ;;		line 66 in file "mcc_generated_files/uart2.c"
  3673 ;; Parameters:    Size  Location     Type
  3674 ;;		None
  3675 ;; Auto vars:     Size  Location     Type
  3676 ;;		None
  3677 ;; Return value:  Size  Location     Type
  3678 ;;                  1    wreg      void 
  3679 ;; Registers used:
  3680 ;;		wreg, status,2, status,0, cstack
  3681 ;; Tracked objects:
  3682 ;;		On entry : 0/0
  3683 ;;		On exit  : 0/0
  3684 ;;		Unchanged: 0/0
  3685 ;; Data sizes:     COMRAM   BANK0   BANK1   BANK2   BANK3   BANK4   BANK5   BANK6   BANK7
  3686 ;;      Params:         0       0       0       0       0       0       0       0       0
  3687 ;;      Locals:         0       0       0       0       0       0       0       0       0
  3688 ;;      Temps:          0       0       0       0       0       0       0       0       0
  3689 ;;      Totals:         0       0       0       0       0       0       0       0       0
  3690 ;;Total ram usage:        0 bytes
  3691 ;; Hardware stack levels used: 1
  3692 ;; Hardware stack levels required when called: 1
  3693 ;; This function calls:
  3694 ;;		_UART2_SetErrorHandler
  3695 ;;		_UART2_SetFramingErrorHandler
  3696 ;;		_UART2_SetOverrunErrorHandler
  3697 ;; This function is called by:
  3698 ;;		_SYSTEM_Initialize
  3699 ;; This function uses a non-reentrant model
  3700 ;;
  3701                           
  3702                           	psect	text34
  3703   000F7E                     __ptext34:
  3704                           	callstack 0
  3705   000F7E                     _UART2_Initialize:
  3706                           	callstack 28
  3707   000F7E                     
  3708                           ;mcc_generated_files/uart2.c: 73:     U2P1L = 0x00;
  3709   000F7E  0E00               	movlw	0
  3710   000F80  013D               	movlb	61	; () banked
  3711   000F82  6FD4               	movwf	212,b	;volatile
  3712                           
  3713                           ;mcc_generated_files/uart2.c: 76:     U2P2L = 0x00;
  3714   000F84  0E00               	movlw	0
  3715   000F86  6FD6               	movwf	214,b	;volatile
  3716                           
  3717                           ;mcc_generated_files/uart2.c: 79:     U2P3L = 0x00;
  3718   000F88  0E00               	movlw	0
  3719   000F8A  6FD8               	movwf	216,b	;volatile
  3720                           
  3721                           ;mcc_generated_files/uart2.c: 82:     U2CON0 = 0xB0;
  3722   000F8C  0EB0               	movlw	176
  3723   000F8E  6FDA               	movwf	218,b	;volatile
  3724                           
  3725                           ;mcc_generated_files/uart2.c: 85:     U2CON1 = 0x80;
  3726   000F90  0E80               	movlw	128
  3727   000F92  6FDB               	movwf	219,b	;volatile
  3728                           
  3729                           ;mcc_generated_files/uart2.c: 88:     U2CON2 = 0x00;
  3730   000F94  0E00               	movlw	0
  3731   000F96  6FDC               	movwf	220,b	;volatile
  3732                           
  3733                           ;mcc_generated_files/uart2.c: 91:     U2BRGL = 0x38;
  3734   000F98  0E38               	movlw	56
  3735   000F9A  6FDD               	movwf	221,b	;volatile
  3736                           
  3737                           ;mcc_generated_files/uart2.c: 94:     U2BRGH = 0x01;
  3738   000F9C  0E01               	movlw	1
  3739   000F9E  6FDE               	movwf	222,b	;volatile
  3740                           
  3741                           ;mcc_generated_files/uart2.c: 97:     U2FIFO = 0x00;
  3742   000FA0  0E00               	movlw	0
  3743   000FA2  6FDF               	movwf	223,b	;volatile
  3744                           
  3745                           ;mcc_generated_files/uart2.c: 100:     U2UIR = 0x00;
  3746   000FA4  0E00               	movlw	0
  3747   000FA6  6FE0               	movwf	224,b	;volatile
  3748                           
  3749                           ;mcc_generated_files/uart2.c: 103:     U2ERRIR = 0x00;
  3750   000FA8  0E00               	movlw	0
  3751   000FAA  6FE1               	movwf	225,b	;volatile
  3752                           
  3753                           ;mcc_generated_files/uart2.c: 106:     U2ERRIE = 0x00;
  3754   000FAC  0E00               	movlw	0
  3755   000FAE  6FE2               	movwf	226,b	;volatile
  3756   000FB0                     
  3757                           ; BSR set to: 61
  3758                           ;mcc_generated_files/uart2.c: 109:     UART2_SetFramingErrorHandler(UART2_DefaultFraming
      +                          ErrorHandler);
  3759   000FB0  0E00               	movlw	0
  3760   000FB2  6E49               	movwf	UART2_SetFramingErrorHandler@interruptHandler^0,c
  3761   000FB4  0E00               	movlw	0
  3762   000FB6  6E4A               	movwf	(UART2_SetFramingErrorHandler@interruptHandler+1)^0,c
  3763   000FB8  EC39  F00A         	call	_UART2_SetFramingErrorHandler	;wreg free
  3764   000FBC                     
  3765                           ;mcc_generated_files/uart2.c: 110:     UART2_SetOverrunErrorHandler(UART2_DefaultOverrun
      +                          ErrorHandler);
  3766   000FBC  0E00               	movlw	0
  3767   000FBE  6E49               	movwf	UART2_SetOverrunErrorHandler@interruptHandler^0,c
  3768   000FC0  0E00               	movlw	0
  3769   000FC2  6E4A               	movwf	(UART2_SetOverrunErrorHandler@interruptHandler+1)^0,c
  3770   000FC4  EC34  F00A         	call	_UART2_SetOverrunErrorHandler	;wreg free
  3771   000FC8                     
  3772                           ;mcc_generated_files/uart2.c: 111:     UART2_SetErrorHandler(UART2_DefaultErrorHandler);
  3773   000FC8  0E00               	movlw	0
  3774   000FCA  6E49               	movwf	UART2_SetErrorHandler@interruptHandler^0,c
  3775   000FCC  0E00               	movlw	0
  3776   000FCE  6E4A               	movwf	(UART2_SetErrorHandler@interruptHandler+1)^0,c
  3777   000FD0  EC3E  F00A         	call	_UART2_SetErrorHandler	;wreg free
  3778   000FD4                     
  3779                           ;mcc_generated_files/uart2.c: 113:     uart2RxLastError.status = 0;
  3780   000FD4  0E00               	movlw	0
  3781   000FD6  6E45               	movwf	_uart2RxLastError^0,c	;volatile
  3782   000FD8  0012               	return		;funcret
  3783   000FDA                     __end_of_UART2_Initialize:
  3784                           	callstack 0
  3785                           
  3786 ;; *************** function _UART2_SetOverrunErrorHandler *****************
  3787 ;; Defined at:
  3788 ;;		line 185 in file "mcc_generated_files/uart2.c"
  3789 ;; Parameters:    Size  Location     Type
  3790 ;;  interruptHan    2    0[COMRAM] PTR FTN()void 
  3791 ;;		 -> UART2_DefaultOverrunErrorHandler(1), 
  3792 ;; Auto vars:     Size  Location     Type
  3793 ;;		None
  3794 ;; Return value:  Size  Location     Type
  3795 ;;                  1    wreg      void 
  3796 ;; Registers used:
  3797 ;;		wreg, status,2, status,0
  3798 ;; Tracked objects:
  3799 ;;		On entry : 0/0
  3800 ;;		On exit  : 0/0
  3801 ;;		Unchanged: 0/0
  3802 ;; Data sizes:     COMRAM   BANK0   BANK1   BANK2   BANK3   BANK4   BANK5   BANK6   BANK7
  3803 ;;      Params:         2       0       0       0       0       0       0       0       0
  3804 ;;      Locals:         0       0       0       0       0       0       0       0       0
  3805 ;;      Temps:          0       0       0       0       0       0       0       0       0
  3806 ;;      Totals:         2       0       0       0       0       0       0       0       0
  3807 ;;Total ram usage:        2 bytes
  3808 ;; Hardware stack levels used: 1
  3809 ;; This function calls:
  3810 ;;		Nothing
  3811 ;; This function is called by:
  3812 ;;		_UART2_Initialize
  3813 ;; This function uses a non-reentrant model
  3814 ;;
  3815                           
  3816                           	psect	text35
  3817   001468                     __ptext35:
  3818                           	callstack 0
  3819   001468                     _UART2_SetOverrunErrorHandler:
  3820                           	callstack 28
  3821   001468                     
  3822                           ;mcc_generated_files/uart2.c: 186:     UART2_OverrunErrorHandler = interruptHandler;
  3823   001468  C049  F028         	movff	UART2_SetOverrunErrorHandler@interruptHandler,_UART2_OverrunErrorHandler
  3824   00146C  C04A  F029         	movff	UART2_SetOverrunErrorHandler@interruptHandler+1,_UART2_OverrunErrorHandler+1
  3825   001470  0012               	return		;funcret
  3826   001472                     __end_of_UART2_SetOverrunErrorHandler:
  3827                           	callstack 0
  3828                           
  3829 ;; *************** function _UART2_SetFramingErrorHandler *****************
  3830 ;; Defined at:
  3831 ;;		line 181 in file "mcc_generated_files/uart2.c"
  3832 ;; Parameters:    Size  Location     Type
  3833 ;;  interruptHan    2    0[COMRAM] PTR FTN()void 
  3834 ;;		 -> UART2_DefaultFramingErrorHandler(1), 
  3835 ;; Auto vars:     Size  Location     Type
  3836 ;;		None
  3837 ;; Return value:  Size  Location     Type
  3838 ;;                  1    wreg      void 
  3839 ;; Registers used:
  3840 ;;		wreg, status,2, status,0
  3841 ;; Tracked objects:
  3842 ;;		On entry : 0/0
  3843 ;;		On exit  : 0/0
  3844 ;;		Unchanged: 0/0
  3845 ;; Data sizes:     COMRAM   BANK0   BANK1   BANK2   BANK3   BANK4   BANK5   BANK6   BANK7
  3846 ;;      Params:         2       0       0       0       0       0       0       0       0
  3847 ;;      Locals:         0       0       0       0       0       0       0       0       0
  3848 ;;      Temps:          0       0       0       0       0       0       0       0       0
  3849 ;;      Totals:         2       0       0       0       0       0       0       0       0
  3850 ;;Total ram usage:        2 bytes
  3851 ;; Hardware stack levels used: 1
  3852 ;; This function calls:
  3853 ;;		Nothing
  3854 ;; This function is called by:
  3855 ;;		_UART2_Initialize
  3856 ;; This function uses a non-reentrant model
  3857 ;;
  3858                           
  3859                           	psect	text36
  3860   001472                     __ptext36:
  3861                           	callstack 0
  3862   001472                     _UART2_SetFramingErrorHandler:
  3863                           	callstack 28
  3864   001472                     
  3865                           ;mcc_generated_files/uart2.c: 182:     UART2_FramingErrorHandler = interruptHandler;
  3866   001472  C049  F02A         	movff	UART2_SetFramingErrorHandler@interruptHandler,_UART2_FramingErrorHandler
  3867   001476  C04A  F02B         	movff	UART2_SetFramingErrorHandler@interruptHandler+1,_UART2_FramingErrorHandler+1
  3868   00147A  0012               	return		;funcret
  3869   00147C                     __end_of_UART2_SetFramingErrorHandler:
  3870                           	callstack 0
  3871                           
  3872 ;; *************** function _UART2_SetErrorHandler *****************
  3873 ;; Defined at:
  3874 ;;		line 189 in file "mcc_generated_files/uart2.c"
  3875 ;; Parameters:    Size  Location     Type
  3876 ;;  interruptHan    2    0[COMRAM] PTR FTN()void 
  3877 ;;		 -> UART2_DefaultErrorHandler(1), 
  3878 ;; Auto vars:     Size  Location     Type
  3879 ;;		None
  3880 ;; Return value:  Size  Location     Type
  3881 ;;                  1    wreg      void 
  3882 ;; Registers used:
  3883 ;;		wreg, status,2, status,0
  3884 ;; Tracked objects:
  3885 ;;		On entry : 0/0
  3886 ;;		On exit  : 0/0
  3887 ;;		Unchanged: 0/0
  3888 ;; Data sizes:     COMRAM   BANK0   BANK1   BANK2   BANK3   BANK4   BANK5   BANK6   BANK7
  3889 ;;      Params:         2       0       0       0       0       0       0       0       0
  3890 ;;      Locals:         0       0       0       0       0       0       0       0       0
  3891 ;;      Temps:          0       0       0       0       0       0       0       0       0
  3892 ;;      Totals:         2       0       0       0       0       0       0       0       0
  3893 ;;Total ram usage:        2 bytes
  3894 ;; Hardware stack levels used: 1
  3895 ;; This function calls:
  3896 ;;		Nothing
  3897 ;; This function is called by:
  3898 ;;		_UART2_Initialize
  3899 ;; This function uses a non-reentrant model
  3900 ;;
  3901                           
  3902                           	psect	text37
  3903   00147C                     __ptext37:
  3904                           	callstack 0
  3905   00147C                     _UART2_SetErrorHandler:
  3906                           	callstack 28
  3907   00147C                     
  3908                           ;mcc_generated_files/uart2.c: 190:     UART2_ErrorHandler = interruptHandler;
  3909   00147C  C049  F026         	movff	UART2_SetErrorHandler@interruptHandler,_UART2_ErrorHandler
  3910   001480  C04A  F027         	movff	UART2_SetErrorHandler@interruptHandler+1,_UART2_ErrorHandler+1
  3911   001484  0012               	return		;funcret
  3912   001486                     __end_of_UART2_SetErrorHandler:
  3913                           	callstack 0
  3914                           
  3915 ;; *************** function _UART1_Initialize *****************
  3916 ;; Defined at:
  3917 ;;		line 66 in file "mcc_generated_files/uart1.c"
  3918 ;; Parameters:    Size  Location     Type
  3919 ;;		None
  3920 ;; Auto vars:     Size  Location     Type
  3921 ;;		None
  3922 ;; Return value:  Size  Location     Type
  3923 ;;                  1    wreg      void 
  3924 ;; Registers used:
  3925 ;;		wreg, status,2, status,0, cstack
  3926 ;; Tracked objects:
  3927 ;;		On entry : 0/0
  3928 ;;		On exit  : 0/0
  3929 ;;		Unchanged: 0/0
  3930 ;; Data sizes:     COMRAM   BANK0   BANK1   BANK2   BANK3   BANK4   BANK5   BANK6   BANK7
  3931 ;;      Params:         0       0       0       0       0       0       0       0       0
  3932 ;;      Locals:         0       0       0       0       0       0       0       0       0
  3933 ;;      Temps:          0       0       0       0       0       0       0       0       0
  3934 ;;      Totals:         0       0       0       0       0       0       0       0       0
  3935 ;;Total ram usage:        0 bytes
  3936 ;; Hardware stack levels used: 1
  3937 ;; Hardware stack levels required when called: 1
  3938 ;; This function calls:
  3939 ;;		_UART1_SetErrorHandler
  3940 ;;		_UART1_SetFramingErrorHandler
  3941 ;;		_UART1_SetOverrunErrorHandler
  3942 ;; This function is called by:
  3943 ;;		_SYSTEM_Initialize
  3944 ;;		_mdb_init
  3945 ;; This function uses a non-reentrant model
  3946 ;;
  3947                           
  3948                           	psect	text38
  3949   000F16                     __ptext38:
  3950                           	callstack 0
  3951   000F16                     _UART1_Initialize:
  3952                           	callstack 28
  3953   000F16                     
  3954                           ;mcc_generated_files/uart1.c: 73:     U1P1L = 0x00;
  3955   000F16  0E00               	movlw	0
  3956   000F18  013D               	movlb	61	; () banked
  3957   000F1A  6FEC               	movwf	236,b	;volatile
  3958                           
  3959                           ;mcc_generated_files/uart1.c: 76:     U1P1H = 0x00;
  3960   000F1C  0E00               	movlw	0
  3961   000F1E  6FED               	movwf	237,b	;volatile
  3962                           
  3963                           ;mcc_generated_files/uart1.c: 79:     U1P2L = 0x00;
  3964   000F20  0E00               	movlw	0
  3965   000F22  6FEE               	movwf	238,b	;volatile
  3966                           
  3967                           ;mcc_generated_files/uart1.c: 82:     U1P2H = 0x00;
  3968   000F24  0E00               	movlw	0
  3969   000F26  6FEF               	movwf	239,b	;volatile
  3970                           
  3971                           ;mcc_generated_files/uart1.c: 85:     U1P3L = 0x00;
  3972   000F28  0E00               	movlw	0
  3973   000F2A  6FF0               	movwf	240,b	;volatile
  3974                           
  3975                           ;mcc_generated_files/uart1.c: 88:     U1P3H = 0x00;
  3976   000F2C  0E00               	movlw	0
  3977   000F2E  6FF1               	movwf	241,b	;volatile
  3978                           
  3979                           ;mcc_generated_files/uart1.c: 91:     U1CON0 = 0xB4;
  3980   000F30  0EB4               	movlw	180
  3981   000F32  6FF2               	movwf	242,b	;volatile
  3982                           
  3983                           ;mcc_generated_files/uart1.c: 94:     U1CON1 = 0x80;
  3984   000F34  0E80               	movlw	128
  3985   000F36  6FF3               	movwf	243,b	;volatile
  3986                           
  3987                           ;mcc_generated_files/uart1.c: 97:     U1CON2 = 0x80;
  3988   000F38  0E80               	movlw	128
  3989   000F3A  6FF4               	movwf	244,b	;volatile
  3990                           
  3991                           ;mcc_generated_files/uart1.c: 100:     U1BRGL = 0x38;
  3992   000F3C  0E38               	movlw	56
  3993   000F3E  6FF5               	movwf	245,b	;volatile
  3994                           
  3995                           ;mcc_generated_files/uart1.c: 103:     U1BRGH = 0x01;
  3996   000F40  0E01               	movlw	1
  3997   000F42  6FF6               	movwf	246,b	;volatile
  3998                           
  3999                           ;mcc_generated_files/uart1.c: 106:     U1FIFO = 0x00;
  4000   000F44  0E00               	movlw	0
  4001   000F46  6FF7               	movwf	247,b	;volatile
  4002                           
  4003                           ;mcc_generated_files/uart1.c: 109:     U1UIR = 0x00;
  4004   000F48  0E00               	movlw	0
  4005   000F4A  6FF8               	movwf	248,b	;volatile
  4006                           
  4007                           ;mcc_generated_files/uart1.c: 112:     U1ERRIR = 0x00;
  4008   000F4C  0E00               	movlw	0
  4009   000F4E  6FF9               	movwf	249,b	;volatile
  4010                           
  4011                           ;mcc_generated_files/uart1.c: 115:     U1ERRIE = 0x00;
  4012   000F50  0E00               	movlw	0
  4013   000F52  6FFA               	movwf	250,b	;volatile
  4014   000F54                     
  4015                           ; BSR set to: 61
  4016                           ;mcc_generated_files/uart1.c: 118:     UART1_SetFramingErrorHandler(UART1_DefaultFraming
      +                          ErrorHandler);
  4017   000F54  0EB0               	movlw	low _UART1_DefaultFramingErrorHandler
  4018   000F56  6E49               	movwf	UART1_SetFramingErrorHandler@interruptHandler^0,c
  4019   000F58  0E14               	movlw	high _UART1_DefaultFramingErrorHandler
  4020   000F5A  6E4A               	movwf	(UART1_SetFramingErrorHandler@interruptHandler+1)^0,c
  4021   000F5C  EC48  F00A         	call	_UART1_SetFramingErrorHandler	;wreg free
  4022   000F60                     
  4023                           ;mcc_generated_files/uart1.c: 119:     UART1_SetOverrunErrorHandler(UART1_DefaultOverrun
      +                          ErrorHandler);
  4024   000F60  0EAE               	movlw	low _UART1_DefaultOverrunErrorHandler
  4025   000F62  6E49               	movwf	UART1_SetOverrunErrorHandler@interruptHandler^0,c
  4026   000F64  0E14               	movlw	high _UART1_DefaultOverrunErrorHandler
  4027   000F66  6E4A               	movwf	(UART1_SetOverrunErrorHandler@interruptHandler+1)^0,c
  4028   000F68  EC43  F00A         	call	_UART1_SetOverrunErrorHandler	;wreg free
  4029   000F6C                     
  4030                           ;mcc_generated_files/uart1.c: 120:     UART1_SetErrorHandler(UART1_DefaultErrorHandler);
  4031   000F6C  0EB2               	movlw	low _UART1_DefaultErrorHandler
  4032   000F6E  6E49               	movwf	UART1_SetErrorHandler@interruptHandler^0,c
  4033   000F70  0E14               	movlw	high _UART1_DefaultErrorHandler
  4034   000F72  6E4A               	movwf	(UART1_SetErrorHandler@interruptHandler+1)^0,c
  4035   000F74  EC4D  F00A         	call	_UART1_SetErrorHandler	;wreg free
  4036   000F78                     
  4037                           ;mcc_generated_files/uart1.c: 122:     uart1RxLastError.status = 0;
  4038   000F78  0E00               	movlw	0
  4039   000F7A  6E46               	movwf	_uart1RxLastError^0,c	;volatile
  4040   000F7C  0012               	return		;funcret
  4041   000F7E                     __end_of_UART1_Initialize:
  4042                           	callstack 0
  4043                           
  4044 ;; *************** function _UART1_SetOverrunErrorHandler *****************
  4045 ;; Defined at:
  4046 ;;		line 199 in file "mcc_generated_files/uart1.c"
  4047 ;; Parameters:    Size  Location     Type
  4048 ;;  interruptHan    2    0[COMRAM] PTR FTN()void 
  4049 ;;		 -> UART1_DefaultOverrunErrorHandler(1), 
  4050 ;; Auto vars:     Size  Location     Type
  4051 ;;		None
  4052 ;; Return value:  Size  Location     Type
  4053 ;;                  1    wreg      void 
  4054 ;; Registers used:
  4055 ;;		wreg, status,2, status,0
  4056 ;; Tracked objects:
  4057 ;;		On entry : 0/0
  4058 ;;		On exit  : 0/0
  4059 ;;		Unchanged: 0/0
  4060 ;; Data sizes:     COMRAM   BANK0   BANK1   BANK2   BANK3   BANK4   BANK5   BANK6   BANK7
  4061 ;;      Params:         2       0       0       0       0       0       0       0       0
  4062 ;;      Locals:         0       0       0       0       0       0       0       0       0
  4063 ;;      Temps:          0       0       0       0       0       0       0       0       0
  4064 ;;      Totals:         2       0       0       0       0       0       0       0       0
  4065 ;;Total ram usage:        2 bytes
  4066 ;; Hardware stack levels used: 1
  4067 ;; This function calls:
  4068 ;;		Nothing
  4069 ;; This function is called by:
  4070 ;;		_UART1_Initialize
  4071 ;; This function uses a non-reentrant model
  4072 ;;
  4073                           
  4074                           	psect	text39
  4075   001486                     __ptext39:
  4076                           	callstack 0
  4077   001486                     _UART1_SetOverrunErrorHandler:
  4078                           	callstack 28
  4079   001486                     
  4080                           ;mcc_generated_files/uart1.c: 200:     UART1_OverrunErrorHandler = interruptHandler;
  4081   001486  C049  F02E         	movff	UART1_SetOverrunErrorHandler@interruptHandler,_UART1_OverrunErrorHandler
  4082   00148A  C04A  F02F         	movff	UART1_SetOverrunErrorHandler@interruptHandler+1,_UART1_OverrunErrorHandler+1
  4083   00148E  0012               	return		;funcret
  4084   001490                     __end_of_UART1_SetOverrunErrorHandler:
  4085                           	callstack 0
  4086                           
  4087 ;; *************** function _UART1_SetFramingErrorHandler *****************
  4088 ;; Defined at:
  4089 ;;		line 195 in file "mcc_generated_files/uart1.c"
  4090 ;; Parameters:    Size  Location     Type
  4091 ;;  interruptHan    2    0[COMRAM] PTR FTN()void 
  4092 ;;		 -> UART1_DefaultFramingErrorHandler(1), 
  4093 ;; Auto vars:     Size  Location     Type
  4094 ;;		None
  4095 ;; Return value:  Size  Location     Type
  4096 ;;                  1    wreg      void 
  4097 ;; Registers used:
  4098 ;;		wreg, status,2, status,0
  4099 ;; Tracked objects:
  4100 ;;		On entry : 0/0
  4101 ;;		On exit  : 0/0
  4102 ;;		Unchanged: 0/0
  4103 ;; Data sizes:     COMRAM   BANK0   BANK1   BANK2   BANK3   BANK4   BANK5   BANK6   BANK7
  4104 ;;      Params:         2       0       0       0       0       0       0       0       0
  4105 ;;      Locals:         0       0       0       0       0       0       0       0       0
  4106 ;;      Temps:          0       0       0       0       0       0       0       0       0
  4107 ;;      Totals:         2       0       0       0       0       0       0       0       0
  4108 ;;Total ram usage:        2 bytes
  4109 ;; Hardware stack levels used: 1
  4110 ;; This function calls:
  4111 ;;		Nothing
  4112 ;; This function is called by:
  4113 ;;		_UART1_Initialize
  4114 ;; This function uses a non-reentrant model
  4115 ;;
  4116                           
  4117                           	psect	text40
  4118   001490                     __ptext40:
  4119                           	callstack 0
  4120   001490                     _UART1_SetFramingErrorHandler:
  4121                           	callstack 28
  4122   001490                     
  4123                           ;mcc_generated_files/uart1.c: 196:     UART1_FramingErrorHandler = interruptHandler;
  4124   001490  C049  F030         	movff	UART1_SetFramingErrorHandler@interruptHandler,_UART1_FramingErrorHandler
  4125   001494  C04A  F031         	movff	UART1_SetFramingErrorHandler@interruptHandler+1,_UART1_FramingErrorHandler+1
  4126   001498  0012               	return		;funcret
  4127   00149A                     __end_of_UART1_SetFramingErrorHandler:
  4128                           	callstack 0
  4129                           
  4130 ;; *************** function _UART1_SetErrorHandler *****************
  4131 ;; Defined at:
  4132 ;;		line 203 in file "mcc_generated_files/uart1.c"
  4133 ;; Parameters:    Size  Location     Type
  4134 ;;  interruptHan    2    0[COMRAM] PTR FTN()void 
  4135 ;;		 -> UART1_DefaultErrorHandler(1), 
  4136 ;; Auto vars:     Size  Location     Type
  4137 ;;		None
  4138 ;; Return value:  Size  Location     Type
  4139 ;;                  1    wreg      void 
  4140 ;; Registers used:
  4141 ;;		wreg, status,2, status,0
  4142 ;; Tracked objects:
  4143 ;;		On entry : 0/0
  4144 ;;		On exit  : 0/0
  4145 ;;		Unchanged: 0/0
  4146 ;; Data sizes:     COMRAM   BANK0   BANK1   BANK2   BANK3   BANK4   BANK5   BANK6   BANK7
  4147 ;;      Params:         2       0       0       0       0       0       0       0       0
  4148 ;;      Locals:         0       0       0       0       0       0       0       0       0
  4149 ;;      Temps:          0       0       0       0       0       0       0       0       0
  4150 ;;      Totals:         2       0       0       0       0       0       0       0       0
  4151 ;;Total ram usage:        2 bytes
  4152 ;; Hardware stack levels used: 1
  4153 ;; This function calls:
  4154 ;;		Nothing
  4155 ;; This function is called by:
  4156 ;;		_UART1_Initialize
  4157 ;; This function uses a non-reentrant model
  4158 ;;
  4159                           
  4160                           	psect	text41
  4161   00149A                     __ptext41:
  4162                           	callstack 0
  4163   00149A                     _UART1_SetErrorHandler:
  4164                           	callstack 28
  4165   00149A                     
  4166                           ;mcc_generated_files/uart1.c: 204:     UART1_ErrorHandler = interruptHandler;
  4167   00149A  C049  F02C         	movff	UART1_SetErrorHandler@interruptHandler,_UART1_ErrorHandler
  4168   00149E  C04A  F02D         	movff	UART1_SetErrorHandler@interruptHandler+1,_UART1_ErrorHandler+1
  4169   0014A2  0012               	return		;funcret
  4170   0014A4                     __end_of_UART1_SetErrorHandler:
  4171                           	callstack 0
  4172                           
  4173 ;; *************** function _TMR5_Initialize *****************
  4174 ;; Defined at:
  4175 ;;		line 63 in file "mcc_generated_files/tmr5.c"
  4176 ;; Parameters:    Size  Location     Type
  4177 ;;		None
  4178 ;; Auto vars:     Size  Location     Type
  4179 ;;		None
  4180 ;; Return value:  Size  Location     Type
  4181 ;;                  1    wreg      void 
  4182 ;; Registers used:
  4183 ;;		wreg, status,2, status,0
  4184 ;; Tracked objects:
  4185 ;;		On entry : 0/0
  4186 ;;		On exit  : 0/0
  4187 ;;		Unchanged: 0/0
  4188 ;; Data sizes:     COMRAM   BANK0   BANK1   BANK2   BANK3   BANK4   BANK5   BANK6   BANK7
  4189 ;;      Params:         0       0       0       0       0       0       0       0       0
  4190 ;;      Locals:         0       0       0       0       0       0       0       0       0
  4191 ;;      Temps:          2       0       0       0       0       0       0       0       0
  4192 ;;      Totals:         2       0       0       0       0       0       0       0       0
  4193 ;;Total ram usage:        2 bytes
  4194 ;; Hardware stack levels used: 1
  4195 ;; This function calls:
  4196 ;;		Nothing
  4197 ;; This function is called by:
  4198 ;;		_SYSTEM_Initialize
  4199 ;;		_coin_in
  4200 ;; This function uses a non-reentrant model
  4201 ;;
  4202                           
  4203                           	psect	text42
  4204   001152                     __ptext42:
  4205                           	callstack 0
  4206   001152                     _TMR5_Initialize:
  4207                           	callstack 29
  4208   001152                     
  4209                           ;mcc_generated_files/tmr5.c: 68:     T5GCON = 0x00;
  4210   001152  0E00               	movlw	0
  4211   001154  6E9B               	movwf	155,c	;volatile
  4212                           
  4213                           ;mcc_generated_files/tmr5.c: 71:     T5GATE = 0x00;
  4214   001156  0E00               	movlw	0
  4215   001158  6E9C               	movwf	156,c	;volatile
  4216                           
  4217                           ;mcc_generated_files/tmr5.c: 74:     T5CLK = 0x06;
  4218   00115A  0E06               	movlw	6
  4219   00115C  6E9D               	movwf	157,c	;volatile
  4220                           
  4221                           ;mcc_generated_files/tmr5.c: 77:     TMR5H = 0xF0;
  4222   00115E  0EF0               	movlw	240
  4223   001160  6E99               	movwf	153,c	;volatile
  4224                           
  4225                           ;mcc_generated_files/tmr5.c: 80:     TMR5L = 0xBE;
  4226   001162  0EBE               	movlw	190
  4227   001164  6E98               	movwf	152,c	;volatile
  4228   001166                     
  4229                           ;mcc_generated_files/tmr5.c: 83:     PIR8bits.TMR5IF = 0;
  4230   001166  0139               	movlb	57	; () banked
  4231   001168  9DA8               	bcf	168,6,b	;volatile
  4232   00116A                     
  4233                           ; BSR set to: 57
  4234                           ;mcc_generated_files/tmr5.c: 86:     timer5ReloadVal=(uint16_t)((TMR5H << 8) | TMR5L);
  4235   00116A  5098               	movf	152,w,c	;volatile
  4236   00116C  006F FE64  F049    	movff	16281,??_TMR5_Initialize	;volatile
  4237   001172  6A4A               	clrf	(??_TMR5_Initialize+1)^0,c
  4238   001174  C049  F04A         	movff	??_TMR5_Initialize,??_TMR5_Initialize+1
  4239   001178  6A49               	clrf	??_TMR5_Initialize^0,c
  4240   00117A  1049               	iorwf	??_TMR5_Initialize^0,w,c
  4241   00117C  6E32               	movwf	_timer5ReloadVal^0,c	;volatile
  4242   00117E  504A               	movf	(??_TMR5_Initialize+1)^0,w,c
  4243   001180  6E33               	movwf	(_timer5ReloadVal+1)^0,c	;volatile
  4244   001182                     
  4245                           ; BSR set to: 57
  4246                           ;mcc_generated_files/tmr5.c: 89:     T5CON = 0x31;
  4247   001182  0E31               	movlw	49
  4248   001184  6E9A               	movwf	154,c	;volatile
  4249   001186                     
  4250                           ; BSR set to: 57
  4251   001186  0012               	return		;funcret
  4252   001188                     __end_of_TMR5_Initialize:
  4253                           	callstack 0
  4254                           
  4255 ;; *************** function _TMR3_Initialize *****************
  4256 ;; Defined at:
  4257 ;;		line 63 in file "mcc_generated_files/tmr3.c"
  4258 ;; Parameters:    Size  Location     Type
  4259 ;;		None
  4260 ;; Auto vars:     Size  Location     Type
  4261 ;;		None
  4262 ;; Return value:  Size  Location     Type
  4263 ;;                  1    wreg      void 
  4264 ;; Registers used:
  4265 ;;		wreg, status,2, status,0
  4266 ;; Tracked objects:
  4267 ;;		On entry : 0/0
  4268 ;;		On exit  : 0/0
  4269 ;;		Unchanged: 0/0
  4270 ;; Data sizes:     COMRAM   BANK0   BANK1   BANK2   BANK3   BANK4   BANK5   BANK6   BANK7
  4271 ;;      Params:         0       0       0       0       0       0       0       0       0
  4272 ;;      Locals:         0       0       0       0       0       0       0       0       0
  4273 ;;      Temps:          2       0       0       0       0       0       0       0       0
  4274 ;;      Totals:         2       0       0       0       0       0       0       0       0
  4275 ;;Total ram usage:        2 bytes
  4276 ;; Hardware stack levels used: 1
  4277 ;; This function calls:
  4278 ;;		Nothing
  4279 ;; This function is called by:
  4280 ;;		_SYSTEM_Initialize
  4281 ;;		_button_flash
  4282 ;;		_mdb_poll
  4283 ;; This function uses a non-reentrant model
  4284 ;;
  4285                           
  4286                           	psect	text43
  4287   001188                     __ptext43:
  4288                           	callstack 0
  4289   001188                     _TMR3_Initialize:
  4290                           	callstack 28
  4291   001188                     
  4292                           ;mcc_generated_files/tmr3.c: 68:     T3GCON = 0x00;
  4293   001188  0E00               	movlw	0
  4294   00118A  6EA7               	movwf	167,c	;volatile
  4295                           
  4296                           ;mcc_generated_files/tmr3.c: 71:     T3GATE = 0x00;
  4297   00118C  0E00               	movlw	0
  4298   00118E  6EA8               	movwf	168,c	;volatile
  4299                           
  4300                           ;mcc_generated_files/tmr3.c: 74:     T3CLK = 0x04;
  4301   001190  0E04               	movlw	4
  4302   001192  6EA9               	movwf	169,c	;volatile
  4303                           
  4304                           ;mcc_generated_files/tmr3.c: 77:     TMR3H = 0xC3;
  4305   001194  0EC3               	movlw	195
  4306   001196  6EA5               	movwf	165,c	;volatile
  4307                           
  4308                           ;mcc_generated_files/tmr3.c: 80:     TMR3L = 0x74;
  4309   001198  0E74               	movlw	116
  4310   00119A  6EA4               	movwf	164,c	;volatile
  4311   00119C                     
  4312                           ;mcc_generated_files/tmr3.c: 83:     PIR6bits.TMR3IF = 0;
  4313   00119C  0139               	movlb	57	; () banked
  4314   00119E  9DA6               	bcf	166,6,b	;volatile
  4315   0011A0                     
  4316                           ; BSR set to: 57
  4317                           ;mcc_generated_files/tmr3.c: 86:     timer3ReloadVal=(uint16_t)((TMR3H << 8) | TMR3L);
  4318   0011A0  50A4               	movf	164,w,c	;volatile
  4319   0011A2  006F FE94  F049    	movff	16293,??_TMR3_Initialize	;volatile
  4320   0011A8  6A4A               	clrf	(??_TMR3_Initialize+1)^0,c
  4321   0011AA  C049  F04A         	movff	??_TMR3_Initialize,??_TMR3_Initialize+1
  4322   0011AE  6A49               	clrf	??_TMR3_Initialize^0,c
  4323   0011B0  1049               	iorwf	??_TMR3_Initialize^0,w,c
  4324   0011B2  6E34               	movwf	_timer3ReloadVal^0,c	;volatile
  4325   0011B4  504A               	movf	(??_TMR3_Initialize+1)^0,w,c
  4326   0011B6  6E35               	movwf	(_timer3ReloadVal+1)^0,c	;volatile
  4327   0011B8                     
  4328                           ; BSR set to: 57
  4329                           ;mcc_generated_files/tmr3.c: 89:     T3CON = 0x01;
  4330   0011B8  0E01               	movlw	1
  4331   0011BA  6EA6               	movwf	166,c	;volatile
  4332   0011BC                     
  4333                           ; BSR set to: 57
  4334   0011BC  0012               	return		;funcret
  4335   0011BE                     __end_of_TMR3_Initialize:
  4336                           	callstack 0
  4337                           
  4338 ;; *************** function _TMR1_Initialize *****************
  4339 ;; Defined at:
  4340 ;;		line 63 in file "mcc_generated_files/tmr1.c"
  4341 ;; Parameters:    Size  Location     Type
  4342 ;;		None
  4343 ;; Auto vars:     Size  Location     Type
  4344 ;;		None
  4345 ;; Return value:  Size  Location     Type
  4346 ;;                  1    wreg      void 
  4347 ;; Registers used:
  4348 ;;		wreg, status,2, status,0
  4349 ;; Tracked objects:
  4350 ;;		On entry : 0/0
  4351 ;;		On exit  : 0/0
  4352 ;;		Unchanged: 0/0
  4353 ;; Data sizes:     COMRAM   BANK0   BANK1   BANK2   BANK3   BANK4   BANK5   BANK6   BANK7
  4354 ;;      Params:         0       0       0       0       0       0       0       0       0
  4355 ;;      Locals:         0       0       0       0       0       0       0       0       0
  4356 ;;      Temps:          2       0       0       0       0       0       0       0       0
  4357 ;;      Totals:         2       0       0       0       0       0       0       0       0
  4358 ;;Total ram usage:        2 bytes
  4359 ;; Hardware stack levels used: 1
  4360 ;; This function calls:
  4361 ;;		Nothing
  4362 ;; This function is called by:
  4363 ;;		_SYSTEM_Initialize
  4364 ;;		_dispense
  4365 ;;		_Set_Timeout
  4366 ;;		_mdb_comm
  4367 ;; This function uses a non-reentrant model
  4368 ;;
  4369                           
  4370                           	psect	text44
  4371   0011BE                     __ptext44:
  4372                           	callstack 0
  4373   0011BE                     _TMR1_Initialize:
  4374                           	callstack 27
  4375   0011BE                     
  4376                           ;mcc_generated_files/tmr1.c: 68:     T1GCON = 0x00;
  4377   0011BE  0E00               	movlw	0
  4378   0011C0  6EB3               	movwf	179,c	;volatile
  4379                           
  4380                           ;mcc_generated_files/tmr1.c: 71:     T1GATE = 0x00;
  4381   0011C2  0E00               	movlw	0
  4382   0011C4  6EB4               	movwf	180,c	;volatile
  4383                           
  4384                           ;mcc_generated_files/tmr1.c: 74:     T1CLK = 0x04;
  4385   0011C6  0E04               	movlw	4
  4386   0011C8  6EB5               	movwf	181,c	;volatile
  4387                           
  4388                           ;mcc_generated_files/tmr1.c: 77:     TMR1H = 0x00;
  4389   0011CA  0E00               	movlw	0
  4390   0011CC  6EB1               	movwf	177,c	;volatile
  4391                           
  4392                           ;mcc_generated_files/tmr1.c: 80:     TMR1L = 0x00;
  4393   0011CE  0E00               	movlw	0
  4394   0011D0  6EB0               	movwf	176,c	;volatile
  4395   0011D2                     
  4396                           ;mcc_generated_files/tmr1.c: 83:     PIR4bits.TMR1IF = 0;
  4397   0011D2  0139               	movlb	57	; () banked
  4398   0011D4  91A4               	bcf	164,0,b	;volatile
  4399   0011D6                     
  4400                           ; BSR set to: 57
  4401                           ;mcc_generated_files/tmr1.c: 86:     timer1ReloadVal=(uint16_t)((TMR1H << 8) | TMR1L);
  4402   0011D6  50B0               	movf	176,w,c	;volatile
  4403   0011D8  006F FEC4  F049    	movff	16305,??_TMR1_Initialize	;volatile
  4404   0011DE  6A4A               	clrf	(??_TMR1_Initialize+1)^0,c
  4405   0011E0  C049  F04A         	movff	??_TMR1_Initialize,??_TMR1_Initialize+1
  4406   0011E4  6A49               	clrf	??_TMR1_Initialize^0,c
  4407   0011E6  1049               	iorwf	??_TMR1_Initialize^0,w,c
  4408   0011E8  6E36               	movwf	_timer1ReloadVal^0,c	;volatile
  4409   0011EA  504A               	movf	(??_TMR1_Initialize+1)^0,w,c
  4410   0011EC  6E37               	movwf	(_timer1ReloadVal+1)^0,c	;volatile
  4411   0011EE                     
  4412                           ; BSR set to: 57
  4413                           ;mcc_generated_files/tmr1.c: 89:     T1CON = 0x33;
  4414   0011EE  0E33               	movlw	51
  4415   0011F0  6EB2               	movwf	178,c	;volatile
  4416   0011F2                     
  4417                           ; BSR set to: 57
  4418   0011F2  0012               	return		;funcret
  4419   0011F4                     __end_of_TMR1_Initialize:
  4420                           	callstack 0
  4421                           
  4422 ;; *************** function _SPI1_Initialize *****************
  4423 ;; Defined at:
  4424 ;;		line 64 in file "mcc_generated_files/spi1.c"
  4425 ;; Parameters:    Size  Location     Type
  4426 ;;		None
  4427 ;; Auto vars:     Size  Location     Type
  4428 ;;		None
  4429 ;; Return value:  Size  Location     Type
  4430 ;;                  1    wreg      void 
  4431 ;; Registers used:
  4432 ;;		wreg, status,2
  4433 ;; Tracked objects:
  4434 ;;		On entry : 0/0
  4435 ;;		On exit  : 0/0
  4436 ;;		Unchanged: 0/0
  4437 ;; Data sizes:     COMRAM   BANK0   BANK1   BANK2   BANK3   BANK4   BANK5   BANK6   BANK7
  4438 ;;      Params:         0       0       0       0       0       0       0       0       0
  4439 ;;      Locals:         0       0       0       0       0       0       0       0       0
  4440 ;;      Temps:          0       0       0       0       0       0       0       0       0
  4441 ;;      Totals:         0       0       0       0       0       0       0       0       0
  4442 ;;Total ram usage:        0 bytes
  4443 ;; Hardware stack levels used: 1
  4444 ;; This function calls:
  4445 ;;		Nothing
  4446 ;; This function is called by:
  4447 ;;		_SYSTEM_Initialize
  4448 ;; This function uses a non-reentrant model
  4449 ;;
  4450                           
  4451                           	psect	text45
  4452   0013A6                     __ptext45:
  4453                           	callstack 0
  4454   0013A6                     _SPI1_Initialize:
  4455                           	callstack 29
  4456   0013A6                     
  4457                           ;mcc_generated_files/spi1.c: 67:     SPI1CON0 = 0x02;
  4458   0013A6  0E02               	movlw	2
  4459   0013A8  013D               	movlb	61	; () banked
  4460   0013AA  6F14               	movwf	20,b	;volatile
  4461                           
  4462                           ;mcc_generated_files/spi1.c: 69:     SPI1CON1 = 0x00;
  4463   0013AC  0E00               	movlw	0
  4464   0013AE  6F15               	movwf	21,b	;volatile
  4465                           
  4466                           ;mcc_generated_files/spi1.c: 71:     SPI1CON2 = 0x02;
  4467   0013B0  0E02               	movlw	2
  4468   0013B2  6F16               	movwf	22,b	;volatile
  4469                           
  4470                           ;mcc_generated_files/spi1.c: 73:     SPI1CLK = 0x00;
  4471   0013B4  0E00               	movlw	0
  4472   0013B6  6F1C               	movwf	28,b	;volatile
  4473                           
  4474                           ;mcc_generated_files/spi1.c: 75:     SPI1BAUD = 0x01;
  4475   0013B8  0E01               	movlw	1
  4476   0013BA  6F19               	movwf	25,b	;volatile
  4477   0013BC                     
  4478                           ; BSR set to: 61
  4479                           ;mcc_generated_files/spi1.c: 76:     TRISBbits.TRISB5 = 0;
  4480   0013BC  9AC3               	bcf	195,5,c	;volatile
  4481   0013BE                     
  4482                           ; BSR set to: 61
  4483   0013BE  0012               	return		;funcret
  4484   0013C0                     __end_of_SPI1_Initialize:
  4485                           	callstack 0
  4486                           
  4487 ;; *************** function _PMD_Initialize *****************
  4488 ;; Defined at:
  4489 ;;		line 79 in file "mcc_generated_files/mcc.c"
  4490 ;; Parameters:    Size  Location     Type
  4491 ;;		None
  4492 ;; Auto vars:     Size  Location     Type
  4493 ;;		None
  4494 ;; Return value:  Size  Location     Type
  4495 ;;                  1    wreg      void 
  4496 ;; Registers used:
  4497 ;;		wreg, status,2
  4498 ;; Tracked objects:
  4499 ;;		On entry : 0/0
  4500 ;;		On exit  : 0/0
  4501 ;;		Unchanged: 0/0
  4502 ;; Data sizes:     COMRAM   BANK0   BANK1   BANK2   BANK3   BANK4   BANK5   BANK6   BANK7
  4503 ;;      Params:         0       0       0       0       0       0       0       0       0
  4504 ;;      Locals:         0       0       0       0       0       0       0       0       0
  4505 ;;      Temps:          0       0       0       0       0       0       0       0       0
  4506 ;;      Totals:         0       0       0       0       0       0       0       0       0
  4507 ;;Total ram usage:        0 bytes
  4508 ;; Hardware stack levels used: 1
  4509 ;; This function calls:
  4510 ;;		Nothing
  4511 ;; This function is called by:
  4512 ;;		_SYSTEM_Initialize
  4513 ;; This function uses a non-reentrant model
  4514 ;;
  4515                           
  4516                           	psect	text46
  4517   00134E                     __ptext46:
  4518                           	callstack 0
  4519   00134E                     _PMD_Initialize:
  4520                           	callstack 29
  4521   00134E                     
  4522                           ;mcc_generated_files/mcc.c: 82:     PMD0 = 0x00;
  4523   00134E  0E00               	movlw	0
  4524   001350  0139               	movlb	57	; () banked
  4525   001352  6FC0               	movwf	192,b	;volatile
  4526                           
  4527                           ;mcc_generated_files/mcc.c: 84:     PMD1 = 0x00;
  4528   001354  0E00               	movlw	0
  4529   001356  6FC1               	movwf	193,b	;volatile
  4530                           
  4531                           ;mcc_generated_files/mcc.c: 86:     PMD2 = 0x00;
  4532   001358  0E00               	movlw	0
  4533   00135A  6FC2               	movwf	194,b	;volatile
  4534                           
  4535                           ;mcc_generated_files/mcc.c: 88:     PMD3 = 0x00;
  4536   00135C  0E00               	movlw	0
  4537   00135E  6FC3               	movwf	195,b	;volatile
  4538                           
  4539                           ;mcc_generated_files/mcc.c: 90:     PMD4 = 0x00;
  4540   001360  0E00               	movlw	0
  4541   001362  6FC4               	movwf	196,b	;volatile
  4542                           
  4543                           ;mcc_generated_files/mcc.c: 92:     PMD5 = 0x00;
  4544   001364  0E00               	movlw	0
  4545   001366  6FC5               	movwf	197,b	;volatile
  4546                           
  4547                           ;mcc_generated_files/mcc.c: 94:     PMD6 = 0x00;
  4548   001368  0E00               	movlw	0
  4549   00136A  6FC6               	movwf	198,b	;volatile
  4550                           
  4551                           ;mcc_generated_files/mcc.c: 96:     PMD7 = 0x00;
  4552   00136C  0E00               	movlw	0
  4553   00136E  6FC7               	movwf	199,b	;volatile
  4554   001370                     
  4555                           ; BSR set to: 57
  4556   001370  0012               	return		;funcret
  4557   001372                     __end_of_PMD_Initialize:
  4558                           	callstack 0
  4559                           
  4560 ;; *************** function _PIN_MANAGER_Initialize *****************
  4561 ;; Defined at:
  4562 ;;		line 55 in file "mcc_generated_files/pin_manager.c"
  4563 ;; Parameters:    Size  Location     Type
  4564 ;;		None
  4565 ;; Auto vars:     Size  Location     Type
  4566 ;;		None
  4567 ;; Return value:  Size  Location     Type
  4568 ;;                  1    wreg      void 
  4569 ;; Registers used:
  4570 ;;		wreg, status,2
  4571 ;; Tracked objects:
  4572 ;;		On entry : 0/0
  4573 ;;		On exit  : 0/0
  4574 ;;		Unchanged: 0/0
  4575 ;; Data sizes:     COMRAM   BANK0   BANK1   BANK2   BANK3   BANK4   BANK5   BANK6   BANK7
  4576 ;;      Params:         0       0       0       0       0       0       0       0       0
  4577 ;;      Locals:         0       0       0       0       0       0       0       0       0
  4578 ;;      Temps:          0       0       0       0       0       0       0       0       0
  4579 ;;      Totals:         0       0       0       0       0       0       0       0       0
  4580 ;;Total ram usage:        0 bytes
  4581 ;; Hardware stack levels used: 1
  4582 ;; This function calls:
  4583 ;;		Nothing
  4584 ;; This function is called by:
  4585 ;;		_SYSTEM_Initialize
  4586 ;; This function uses a non-reentrant model
  4587 ;;
  4588                           
  4589                           	psect	text47
  4590   000D9E                     __ptext47:
  4591                           	callstack 0
  4592   000D9E                     _PIN_MANAGER_Initialize:
  4593                           	callstack 29
  4594   000D9E                     
  4595                           ;mcc_generated_files/pin_manager.c: 60:     LATA = 0x00;
  4596   000D9E  0E00               	movlw	0
  4597   000DA0  6EBA               	movwf	186,c	;volatile
  4598                           
  4599                           ;mcc_generated_files/pin_manager.c: 61:     LATB = 0x00;
  4600   000DA2  0E00               	movlw	0
  4601   000DA4  6EBB               	movwf	187,c	;volatile
  4602                           
  4603                           ;mcc_generated_files/pin_manager.c: 62:     LATC = 0x00;
  4604   000DA6  0E00               	movlw	0
  4605   000DA8  6EBC               	movwf	188,c	;volatile
  4606                           
  4607                           ;mcc_generated_files/pin_manager.c: 67:     TRISA = 0xE9;
  4608   000DAA  0EE9               	movlw	233
  4609   000DAC  6EC2               	movwf	194,c	;volatile
  4610                           
  4611                           ;mcc_generated_files/pin_manager.c: 68:     TRISB = 0xC4;
  4612   000DAE  0EC4               	movlw	196
  4613   000DB0  6EC3               	movwf	195,c	;volatile
  4614                           
  4615                           ;mcc_generated_files/pin_manager.c: 69:     TRISC = 0x05;
  4616   000DB2  0E05               	movlw	5
  4617   000DB4  6EC4               	movwf	196,c	;volatile
  4618                           
  4619                           ;mcc_generated_files/pin_manager.c: 74:     ANSELC = 0xFA;
  4620   000DB6  0EFA               	movlw	250
  4621   000DB8  013A               	movlb	58	; () banked
  4622   000DBA  6F60               	movwf	96,b	;volatile
  4623                           
  4624                           ;mcc_generated_files/pin_manager.c: 75:     ANSELB = 0x8B;
  4625   000DBC  0E8B               	movlw	139
  4626   000DBE  6F50               	movwf	80,b	;volatile
  4627                           
  4628                           ;mcc_generated_files/pin_manager.c: 76:     ANSELA = 0x17;
  4629   000DC0  0E17               	movlw	23
  4630   000DC2  6F40               	movwf	64,b	;volatile
  4631                           
  4632                           ;mcc_generated_files/pin_manager.c: 81:     WPUE = 0x00;
  4633   000DC4  0E00               	movlw	0
  4634   000DC6  6F81               	movwf	129,b	;volatile
  4635                           
  4636                           ;mcc_generated_files/pin_manager.c: 82:     WPUB = 0x00;
  4637   000DC8  0E00               	movlw	0
  4638   000DCA  6F51               	movwf	81,b	;volatile
  4639                           
  4640                           ;mcc_generated_files/pin_manager.c: 83:     WPUA = 0xE8;
  4641   000DCC  0EE8               	movlw	232
  4642   000DCE  6F41               	movwf	65,b	;volatile
  4643                           
  4644                           ;mcc_generated_files/pin_manager.c: 84:     WPUC = 0x04;
  4645   000DD0  0E04               	movlw	4
  4646   000DD2  6F61               	movwf	97,b	;volatile
  4647                           
  4648                           ;mcc_generated_files/pin_manager.c: 89:     RB1I2C = 0x00;
  4649   000DD4  0E00               	movlw	0
  4650   000DD6  6F5A               	movwf	90,b	;volatile
  4651                           
  4652                           ;mcc_generated_files/pin_manager.c: 90:     RB2I2C = 0x00;
  4653   000DD8  0E00               	movlw	0
  4654   000DDA  6F5B               	movwf	91,b	;volatile
  4655                           
  4656                           ;mcc_generated_files/pin_manager.c: 91:     RC3I2C = 0x00;
  4657   000DDC  0E00               	movlw	0
  4658   000DDE  6F6A               	movwf	106,b	;volatile
  4659                           
  4660                           ;mcc_generated_files/pin_manager.c: 92:     RC4I2C = 0x00;
  4661   000DE0  0E00               	movlw	0
  4662   000DE2  6F6B               	movwf	107,b	;volatile
  4663                           
  4664                           ;mcc_generated_files/pin_manager.c: 97:     ODCONA = 0x00;
  4665   000DE4  0E00               	movlw	0
  4666   000DE6  6F42               	movwf	66,b	;volatile
  4667                           
  4668                           ;mcc_generated_files/pin_manager.c: 98:     ODCONB = 0x02;
  4669   000DE8  0E02               	movlw	2
  4670   000DEA  6F52               	movwf	82,b	;volatile
  4671                           
  4672                           ;mcc_generated_files/pin_manager.c: 99:     ODCONC = 0x00;
  4673   000DEC  0E00               	movlw	0
  4674   000DEE  6F62               	movwf	98,b	;volatile
  4675   000DF0                     
  4676                           ; BSR set to: 58
  4677                           ;mcc_generated_files/pin_manager.c: 104:     SLRCONA = 0xFF;
  4678   000DF0  6943               	setf	67,b	;volatile
  4679   000DF2                     
  4680                           ; BSR set to: 58
  4681                           ;mcc_generated_files/pin_manager.c: 105:     SLRCONB = 0xFF;
  4682   000DF2  6953               	setf	83,b	;volatile
  4683   000DF4                     
  4684                           ; BSR set to: 58
  4685                           ;mcc_generated_files/pin_manager.c: 106:     SLRCONC = 0xFF;
  4686   000DF4  6963               	setf	99,b	;volatile
  4687   000DF6                     
  4688                           ; BSR set to: 58
  4689                           ;mcc_generated_files/pin_manager.c: 111:     INLVLA = 0xFF;
  4690   000DF6  6944               	setf	68,b	;volatile
  4691   000DF8                     
  4692                           ; BSR set to: 58
  4693                           ;mcc_generated_files/pin_manager.c: 112:     INLVLB = 0xFF;
  4694   000DF8  6954               	setf	84,b	;volatile
  4695   000DFA                     
  4696                           ; BSR set to: 58
  4697                           ;mcc_generated_files/pin_manager.c: 113:     INLVLC = 0xFF;
  4698   000DFA  6964               	setf	100,b	;volatile
  4699                           
  4700                           ;mcc_generated_files/pin_manager.c: 114:     INLVLE = 0x08;
  4701   000DFC  0E08               	movlw	8
  4702   000DFE  6F84               	movwf	132,b	;volatile
  4703                           
  4704                           ;mcc_generated_files/pin_manager.c: 123:     U2RXPPS = 0x10;
  4705   000E00  0E10               	movlw	16
  4706   000E02  6FE8               	movwf	232,b	;volatile
  4707                           
  4708                           ;mcc_generated_files/pin_manager.c: 124:     SPI1SCKPPS = 0x0D;
  4709   000E04  0E0D               	movlw	13
  4710   000E06  6FDE               	movwf	222,b	;volatile
  4711                           
  4712                           ;mcc_generated_files/pin_manager.c: 125:     RB1PPS = 0x13;
  4713   000E08  0E13               	movlw	19
  4714   000E0A  6F09               	movwf	9,b	;volatile
  4715                           
  4716                           ;mcc_generated_files/pin_manager.c: 126:     RB5PPS = 0x1E;
  4717   000E0C  0E1E               	movlw	30
  4718   000E0E  6F0D               	movwf	13,b	;volatile
  4719                           
  4720                           ;mcc_generated_files/pin_manager.c: 127:     RC1PPS = 0x16;
  4721   000E10  0E16               	movlw	22
  4722   000E12  6F11               	movwf	17,b	;volatile
  4723                           
  4724                           ;mcc_generated_files/pin_manager.c: 128:     RB4PPS = 0x1F;
  4725   000E14  0E1F               	movlw	31
  4726   000E16  6F0C               	movwf	12,b	;volatile
  4727                           
  4728                           ;mcc_generated_files/pin_manager.c: 129:     U1RXPPS = 0x0A;
  4729   000E18  0E0A               	movlw	10
  4730   000E1A  6FE5               	movwf	229,b	;volatile
  4731                           
  4732                           ;mcc_generated_files/pin_manager.c: 130:     SPI1SDIPPS = 0x0E;
  4733   000E1C  0E0E               	movlw	14
  4734   000E1E  6FDF               	movwf	223,b	;volatile
  4735   000E20                     
  4736                           ; BSR set to: 58
  4737   000E20  0012               	return		;funcret
  4738   000E22                     __end_of_PIN_MANAGER_Initialize:
  4739                           	callstack 0
  4740                           
  4741 ;; *************** function _OSCILLATOR_Initialize *****************
  4742 ;; Defined at:
  4743 ;;		line 65 in file "mcc_generated_files/mcc.c"
  4744 ;; Parameters:    Size  Location     Type
  4745 ;;		None
  4746 ;; Auto vars:     Size  Location     Type
  4747 ;;		None
  4748 ;; Return value:  Size  Location     Type
  4749 ;;                  1    wreg      void 
  4750 ;; Registers used:
  4751 ;;		wreg, status,2
  4752 ;; Tracked objects:
  4753 ;;		On entry : 0/0
  4754 ;;		On exit  : 0/0
  4755 ;;		Unchanged: 0/0
  4756 ;; Data sizes:     COMRAM   BANK0   BANK1   BANK2   BANK3   BANK4   BANK5   BANK6   BANK7
  4757 ;;      Params:         0       0       0       0       0       0       0       0       0
  4758 ;;      Locals:         0       0       0       0       0       0       0       0       0
  4759 ;;      Temps:          0       0       0       0       0       0       0       0       0
  4760 ;;      Totals:         0       0       0       0       0       0       0       0       0
  4761 ;;Total ram usage:        0 bytes
  4762 ;; Hardware stack levels used: 1
  4763 ;; This function calls:
  4764 ;;		Nothing
  4765 ;; This function is called by:
  4766 ;;		_SYSTEM_Initialize
  4767 ;; This function uses a non-reentrant model
  4768 ;;
  4769                           
  4770                           	psect	text48
  4771   0013C0                     __ptext48:
  4772                           	callstack 0
  4773   0013C0                     _OSCILLATOR_Initialize:
  4774                           	callstack 29
  4775   0013C0                     
  4776                           ;mcc_generated_files/mcc.c: 68:     OSCCON1 = 0x60;
  4777   0013C0  0E60               	movlw	96
  4778   0013C2  0139               	movlb	57	; () banked
  4779   0013C4  6FD9               	movwf	217,b	;volatile
  4780                           
  4781                           ;mcc_generated_files/mcc.c: 70:     OSCCON3 = 0x00;
  4782   0013C6  0E00               	movlw	0
  4783   0013C8  6FDB               	movwf	219,b	;volatile
  4784                           
  4785                           ;mcc_generated_files/mcc.c: 72:     OSCEN = 0x00;
  4786   0013CA  0E00               	movlw	0
  4787   0013CC  6FDD               	movwf	221,b	;volatile
  4788                           
  4789                           ;mcc_generated_files/mcc.c: 74:     OSCFRQ = 0x04;
  4790   0013CE  0E04               	movlw	4
  4791   0013D0  6FDF               	movwf	223,b	;volatile
  4792                           
  4793                           ;mcc_generated_files/mcc.c: 76:     OSCTUNE = 0x00;
  4794   0013D2  0E00               	movlw	0
  4795   0013D4  6FDE               	movwf	222,b	;volatile
  4796   0013D6                     
  4797                           ; BSR set to: 57
  4798   0013D6  0012               	return		;funcret
  4799   0013D8                     __end_of_OSCILLATOR_Initialize:
  4800                           	callstack 0
  4801                           
  4802 ;; *************** function _DAC1_Initialize *****************
  4803 ;; Defined at:
  4804 ;;		line 58 in file "mcc_generated_files/dac1.c"
  4805 ;; Parameters:    Size  Location     Type
  4806 ;;		None
  4807 ;; Auto vars:     Size  Location     Type
  4808 ;;		None
  4809 ;; Return value:  Size  Location     Type
  4810 ;;                  1    wreg      void 
  4811 ;; Registers used:
  4812 ;;		wreg, status,2
  4813 ;; Tracked objects:
  4814 ;;		On entry : 0/0
  4815 ;;		On exit  : 0/0
  4816 ;;		Unchanged: 0/0
  4817 ;; Data sizes:     COMRAM   BANK0   BANK1   BANK2   BANK3   BANK4   BANK5   BANK6   BANK7
  4818 ;;      Params:         0       0       0       0       0       0       0       0       0
  4819 ;;      Locals:         0       0       0       0       0       0       0       0       0
  4820 ;;      Temps:          0       0       0       0       0       0       0       0       0
  4821 ;;      Totals:         0       0       0       0       0       0       0       0       0
  4822 ;;Total ram usage:        0 bytes
  4823 ;; Hardware stack levels used: 1
  4824 ;; This function calls:
  4825 ;;		Nothing
  4826 ;; This function is called by:
  4827 ;;		_SYSTEM_Initialize
  4828 ;; This function uses a non-reentrant model
  4829 ;;
  4830                           
  4831                           	psect	text49
  4832   001452                     __ptext49:
  4833                           	callstack 0
  4834   001452                     _DAC1_Initialize:
  4835                           	callstack 29
  4836   001452                     
  4837                           ;mcc_generated_files/dac1.c: 61:     DAC1CON0 = 0x80;
  4838   001452  0E80               	movlw	128
  4839   001454  013E               	movlb	62	; () banked
  4840   001456  6F9E               	movwf	158,b	;volatile
  4841                           
  4842                           ;mcc_generated_files/dac1.c: 63:     DAC1CON1 = 0x1A;
  4843   001458  0E1A               	movlw	26
  4844   00145A  6F9C               	movwf	156,b	;volatile
  4845   00145C                     
  4846                           ; BSR set to: 62
  4847   00145C  0012               	return		;funcret
  4848   00145E                     __end_of_DAC1_Initialize:
  4849                           	callstack 0
  4850                           
  4851 ;; *************** function _CMP1_Initialize *****************
  4852 ;; Defined at:
  4853 ;;		line 58 in file "mcc_generated_files/cmp1.c"
  4854 ;; Parameters:    Size  Location     Type
  4855 ;;		None
  4856 ;; Auto vars:     Size  Location     Type
  4857 ;;		None
  4858 ;; Return value:  Size  Location     Type
  4859 ;;                  1    wreg      void 
  4860 ;; Registers used:
  4861 ;;		wreg, status,2
  4862 ;; Tracked objects:
  4863 ;;		On entry : 0/0
  4864 ;;		On exit  : 0/0
  4865 ;;		Unchanged: 0/0
  4866 ;; Data sizes:     COMRAM   BANK0   BANK1   BANK2   BANK3   BANK4   BANK5   BANK6   BANK7
  4867 ;;      Params:         0       0       0       0       0       0       0       0       0
  4868 ;;      Locals:         0       0       0       0       0       0       0       0       0
  4869 ;;      Temps:          0       0       0       0       0       0       0       0       0
  4870 ;;      Totals:         0       0       0       0       0       0       0       0       0
  4871 ;;Total ram usage:        0 bytes
  4872 ;; Hardware stack levels used: 1
  4873 ;; This function calls:
  4874 ;;		Nothing
  4875 ;; This function is called by:
  4876 ;;		_SYSTEM_Initialize
  4877 ;; This function uses a non-reentrant model
  4878 ;;
  4879                           
  4880                           	psect	text50
  4881   0013EE                     __ptext50:
  4882                           	callstack 0
  4883   0013EE                     _CMP1_Initialize:
  4884                           	callstack 29
  4885   0013EE                     
  4886                           ;mcc_generated_files/cmp1.c: 62:     CM1CON0 = 0x80;
  4887   0013EE  0E80               	movlw	128
  4888   0013F0  013E               	movlb	62	; () banked
  4889   0013F2  6FBC               	movwf	188,b	;volatile
  4890                           
  4891                           ;mcc_generated_files/cmp1.c: 65:     CM1CON1 = 0x00;
  4892   0013F4  0E00               	movlw	0
  4893   0013F6  6FBD               	movwf	189,b	;volatile
  4894                           
  4895                           ;mcc_generated_files/cmp1.c: 68:     CM1NCH = 0x00;
  4896   0013F8  0E00               	movlw	0
  4897   0013FA  6FBE               	movwf	190,b	;volatile
  4898                           
  4899                           ;mcc_generated_files/cmp1.c: 71:     CM1PCH = 0x05;
  4900   0013FC  0E05               	movlw	5
  4901   0013FE  6FBF               	movwf	191,b	;volatile
  4902   001400                     
  4903                           ; BSR set to: 62
  4904   001400  0012               	return		;funcret
  4905   001402                     __end_of_CMP1_Initialize:
  4906                           	callstack 0
  4907                           
  4908 ;; *************** function _CMP1_GetOutputStatus *****************
  4909 ;; Defined at:
  4910 ;;		line 75 in file "mcc_generated_files/cmp1.c"
  4911 ;; Parameters:    Size  Location     Type
  4912 ;;		None
  4913 ;; Auto vars:     Size  Location     Type
  4914 ;;		None
  4915 ;; Return value:  Size  Location     Type
  4916 ;;                  1    wreg      _Bool 
  4917 ;; Registers used:
  4918 ;;		wreg
  4919 ;; Tracked objects:
  4920 ;;		On entry : 0/0
  4921 ;;		On exit  : 0/0
  4922 ;;		Unchanged: 0/0
  4923 ;; Data sizes:     COMRAM   BANK0   BANK1   BANK2   BANK3   BANK4   BANK5   BANK6   BANK7
  4924 ;;      Params:         0       0       0       0       0       0       0       0       0
  4925 ;;      Locals:         0       0       0       0       0       0       0       0       0
  4926 ;;      Temps:          0       0       0       0       0       0       0       0       0
  4927 ;;      Totals:         0       0       0       0       0       0       0       0       0
  4928 ;;Total ram usage:        0 bytes
  4929 ;; Hardware stack levels used: 1
  4930 ;; This function calls:
  4931 ;;		Nothing
  4932 ;; This function is called by:
  4933 ;;		_main
  4934 ;; This function uses a non-reentrant model
  4935 ;;
  4936                           
  4937                           	psect	text51
  4938   0013D8                     __ptext51:
  4939                           	callstack 0
  4940   0013D8                     _CMP1_GetOutputStatus:
  4941                           	callstack 30
  4942   0013D8                     
  4943                           ;mcc_generated_files/cmp1.c: 77:  return (CM1CON0bits.C1OUT);
  4944   0013D8  013E               	movlb	62	; () banked
  4945   0013DA  BDBC               	btfsc	188,6,b	;volatile
  4946   0013DC  EFF2  F009         	goto	u391
  4947   0013E0  EFF5  F009         	goto	u390
  4948   0013E4                     u391:
  4949   0013E4  0E01               	movlw	1
  4950   0013E6  EFF6  F009         	goto	u396
  4951   0013EA                     u390:
  4952   0013EA  0E00               	movlw	0
  4953   0013EC                     u396:
  4954   0013EC                     
  4955                           ; BSR set to: 62
  4956   0013EC  0012               	return		;funcret
  4957   0013EE                     __end_of_CMP1_GetOutputStatus:
  4958                           	callstack 0
  4959                           
  4960                           	psect	text52
  4961   000000                     __ptext52:
  4962                           	callstack 0
  4963   000000                     
  4964                           	psect	rparam
  4965   000000                     
  4966                           	psect	idloc
  4967                           
  4968                           ;Config register IDLOC0 @ 0x200000
  4969                           ;	unspecified, using default values
  4970   200000                     	org	2097152
  4971   200000  0FFF               	dw	4095
  4972                           
  4973                           ;Config register IDLOC1 @ 0x200002
  4974                           ;	unspecified, using default values
  4975   200002                     	org	2097154
  4976   200002  0FFF               	dw	4095
  4977                           
  4978                           ;Config register IDLOC2 @ 0x200004
  4979                           ;	unspecified, using default values
  4980   200004                     	org	2097156
  4981   200004  0FFF               	dw	4095
  4982                           
  4983                           ;Config register IDLOC3 @ 0x200006
  4984                           ;	unspecified, using default values
  4985   200006                     	org	2097158
  4986   200006  0FFF               	dw	4095
  4987                           
  4988                           ;Config register IDLOC4 @ 0x200008
  4989                           ;	unspecified, using default values
  4990   200008                     	org	2097160
  4991   200008  0FFF               	dw	4095
  4992                           
  4993                           ;Config register IDLOC5 @ 0x20000A
  4994                           ;	unspecified, using default values
  4995   20000A                     	org	2097162
  4996   20000A  0FFF               	dw	4095
  4997                           
  4998                           ;Config register IDLOC6 @ 0x20000C
  4999                           ;	unspecified, using default values
  5000   20000C                     	org	2097164
  5001   20000C  0FFF               	dw	4095
  5002                           
  5003                           ;Config register IDLOC7 @ 0x20000E
  5004                           ;	unspecified, using default values
  5005   20000E                     	org	2097166
  5006   20000E  0FFF               	dw	4095
  5007                           
  5008                           	psect	config
  5009                           
  5010                           ;Config register CONFIG1L @ 0x300000
  5011                           ;	External Oscillator Selection
  5012                           ;	FEXTOSC = OFF, Oscillator not enabled
  5013                           ;	Reset Oscillator Selection
  5014                           ;	RSTOSC = HFINTOSC_64MHZ, HFINTOSC with HFFRQ = 64 MHz and CDIV = 1:1
  5015   300000                     	org	3145728
  5016   300000  8C                 	db	140
  5017                           
  5018                           ;Config register CONFIG1H @ 0x300001
  5019                           ;	Clock out Enable bit
  5020                           ;	CLKOUTEN = OFF, CLKOUT function is disabled
  5021                           ;	PRLOCKED One-Way Set Enable bit
  5022                           ;	PR1WAY = OFF, PRLOCK bit can be set and cleared repeatedly
  5023                           ;	Clock Switch Enable bit
  5024                           ;	CSWEN = ON, Writing to NOSC and NDIV is allowed
  5025                           ;	Fail-Safe Clock Monitor Enable bit
  5026                           ;	FCMEN = ON, Fail-Safe Clock Monitor enabled
  5027   300001                     	org	3145729
  5028   300001  FD                 	db	253
  5029                           
  5030                           ;Config register CONFIG2L @ 0x300002
  5031                           ;	MCLR Enable bit
  5032                           ;	MCLRE = EXTMCLR, If LVP = 0, MCLR pin is MCLR; If LVP = 1, RE3 pin function is MCLR
  5033                           ;	Power-up timer selection bits
  5034                           ;	PWRTS = PWRT_OFF, PWRT is disabled
  5035                           ;	Multi-vector enable bit
  5036                           ;	MVECEN = OFF, Interrupt contoller does not use vector table to prioritze interrupts
  5037                           ;	IVTLOCK bit One-way set enable bit
  5038                           ;	IVT1WAY = OFF, IVTLOCK bit can be cleared and set repeatedly
  5039                           ;	Low Power BOR Enable bit
  5040                           ;	LPBOREN = OFF, ULPBOR disabled
  5041                           ;	Brown-out Reset Enable bits
  5042                           ;	BOREN = NOSLP, Brown-out Reset enabled while running, disabled in Sleep; SBOREN is ign
      +                          ored
  5043   300002                     	org	3145730
  5044   300002  A7                 	db	167
  5045                           
  5046                           ;Config register CONFIG2H @ 0x300003
  5047                           ;	Brown-out Reset Voltage Selection bits
  5048                           ;	BORV = VBOR_2P85, Brown-out Reset Voltage (VBOR) set to 2.8V
  5049                           ;	ZCD Disable bit
  5050                           ;	ZCD = OFF, ZCD disabled. ZCD can be enabled by setting the ZCDSEN bit of ZCDCON
  5051                           ;	PPSLOCK bit One-Way Set Enable bit
  5052                           ;	PPS1WAY = OFF, PPSLOCK bit can be set and cleared repeatedly (subject to the unlock se
      +                          quence)
  5053                           ;	Stack Full/Underflow Reset Enable bit
  5054                           ;	STVREN = ON, Stack full/underflow will cause Reset
  5055                           ;	Debugger Enable bit
  5056                           ;	DEBUG = OFF, Background debugger disabled
  5057                           ;	Extended Instruction Set Enable bit
  5058                           ;	XINST = OFF, Extended Instruction Set and Indexed Addressing Mode disabled
  5059   300003                     	org	3145731
  5060   300003  F4                 	db	244
  5061                           
  5062                           ;Config register CONFIG3L @ 0x300004
  5063                           ;	WDT Period selection bits
  5064                           ;	WDTCPS = WDTCPS_31, Divider ratio 1:65536; software control of WDTPS
  5065                           ;	WDT operating mode
  5066                           ;	WDTE = OFF, WDT Disabled; SWDTEN is ignored
  5067   300004                     	org	3145732
  5068   300004  9F                 	db	159
  5069                           
  5070                           ;Config register CONFIG3H @ 0x300005
  5071                           ;	WDT Window Select bits
  5072                           ;	WDTCWS = WDTCWS_7, window always open (100%); software control; keyed access not requi
      +                          red
  5073                           ;	WDT input clock selector
  5074                           ;	WDTCCS = SC, Software Control
  5075   300005                     	org	3145733
  5076   300005  FF                 	db	255
  5077                           
  5078                           ;Config register CONFIG4L @ 0x300006
  5079                           ;	Boot Block Size selection bits
  5080                           ;	BBSIZE = BBSIZE_512, Boot Block size is 512 words
  5081                           ;	Boot Block enable bit
  5082                           ;	BBEN = OFF, Boot block disabled
  5083                           ;	Storage Area Flash enable bit
  5084                           ;	SAFEN = OFF, SAF disabled
  5085                           ;	Application Block write protection bit
  5086                           ;	WRTAPP = OFF, Application Block not write protected
  5087   300006                     	org	3145734
  5088   300006  FF                 	db	255
  5089                           
  5090                           ;Config register CONFIG4H @ 0x300007
  5091                           ;	Boot Block Write Protection bit
  5092                           ;	WRTB = OFF, Boot Block not write-protected
  5093                           ;	Configuration Register Write Protection bit
  5094                           ;	WRTC = OFF, Configuration registers not write-protected
  5095                           ;	Data EEPROM Write Protection bit
  5096                           ;	WRTD = OFF, Data EEPROM not write-protected
  5097                           ;	SAF Write protection bit
  5098                           ;	WRTSAF = OFF, SAF not Write Protected
  5099                           ;	Low Voltage Programming Enable bit
  5100                           ;	LVP = OFF, HV on MCLR/VPP must be used for programming
  5101   300007                     	org	3145735
  5102   300007  DF                 	db	223
  5103                           
  5104                           ;Config register CONFIG5L @ 0x300008
  5105                           ;	PFM and Data EEPROM Code Protection bit
  5106                           ;	CP = OFF, PFM and Data EEPROM code protection disabled
  5107   300008                     	org	3145736
  5108   300008  FF                 	db	255
  5109                           
  5110                           ;Config register CONFIG5H @ 0x300009
  5111                           ;	unspecified, using default values
  5112   300009                     	org	3145737
  5113   300009  FF                 	db	255
  5114                           tosu	equ	0x3FFF
  5115                           tosh	equ	0x3FFE
  5116                           tosl	equ	0x3FFD
  5117                           stkptr	equ	0x3FFC
  5118                           pclatu	equ	0x3FFB
  5119                           pclath	equ	0x3FFA
  5120                           pcl	equ	0x3FF9
  5121                           tblptru	equ	0x3FF8
  5122                           tblptrh	equ	0x3FF7
  5123                           tblptrl	equ	0x3FF6
  5124                           tablat	equ	0x3FF5
  5125                           prodh	equ	0x3FF4
  5126                           prodl	equ	0x3FF3
  5127                           indf0	equ	0x3FEF
  5128                           postinc0	equ	0x3FEE
  5129                           postdec0	equ	0x3FED
  5130                           preinc0	equ	0x3FEC
  5131                           plusw0	equ	0x3FEB
  5132                           fsr0h	equ	0x3FEA
  5133                           fsr0l	equ	0x3FE9
  5134                           wreg	equ	0x3FE8
  5135                           indf1	equ	0x3FE7
  5136                           postinc1	equ	0x3FE6
  5137                           postdec1	equ	0x3FE5
  5138                           preinc1	equ	0x3FE4
  5139                           plusw1	equ	0x3FE3
  5140                           fsr1h	equ	0x3FE2
  5141                           fsr1l	equ	0x3FE1
  5142                           bsr	equ	0x3FE0
  5143                           indf2	equ	0x3FDF
  5144                           postinc2	equ	0x3FDE
  5145                           postdec2	equ	0x3FDD
  5146                           preinc2	equ	0x3FDC
  5147                           plusw2	equ	0x3FDB
  5148                           fsr2h	equ	0x3FDA
  5149                           fsr2l	equ	0x3FD9
  5150                           status	equ	0x3FD8

Data Sizes:
    Strings     0
    Constant    49
    Data        1
    BSS         72
    Persistent  0
    Stack       0

Auto Spaces:
    Space          Size  Autos    Used
    COMRAM           95     17      90
    BANK0           160      0       0
    BANK1           256      0       0
    BANK2           256      0       0
    BANK3           256      0       0
    BANK4           256      0       0
    BANK5           256      0       0
    BANK6           256      0       0
    BANK7           256      0       0

Pointer List with Targets:

    Set_Timeout@timeval	PTR unsigned char  size(2) Largest target is 2
		 -> timeout(COMRAM[2]), 

    vend_init@timeval	PTR unsigned char  size(2) Largest target is 2
		 -> timeout(COMRAM[2]), 

    UART2_SetErrorHandler@interruptHandler	PTR FTN()void  size(2) Largest target is 1
		 -> UART2_DefaultErrorHandler(), 

    UART2_SetOverrunErrorHandler@interruptHandler	PTR FTN()void  size(2) Largest target is 1
		 -> UART2_DefaultOverrunErrorHandler(), 

    UART2_SetFramingErrorHandler@interruptHandler	PTR FTN()void  size(2) Largest target is 1
		 -> UART2_DefaultFramingErrorHandler(), 

    UART2_ErrorHandler	PTR FTN()void  size(2) Largest target is 1
		 -> Absolute function(), UART2_DefaultErrorHandler(), 

    UART2_OverrunErrorHandler	PTR FTN()void  size(2) Largest target is 1
		 -> Absolute function(), UART2_DefaultOverrunErrorHandler(), 

    UART2_FramingErrorHandler	PTR FTN()void  size(2) Largest target is 1
		 -> Absolute function(), UART2_DefaultFramingErrorHandler(), 

    UART1_SetErrorHandler@interruptHandler	PTR FTN()void  size(2) Largest target is 1
		 -> UART1_DefaultErrorHandler(), 

    UART1_SetOverrunErrorHandler@interruptHandler	PTR FTN()void  size(2) Largest target is 1
		 -> UART1_DefaultOverrunErrorHandler(), 

    UART1_SetFramingErrorHandler@interruptHandler	PTR FTN()void  size(2) Largest target is 1
		 -> UART1_DefaultFramingErrorHandler(), 

    UART1_ErrorHandler	PTR FTN()void  size(2) Largest target is 1
		 -> Absolute function(), UART1_DefaultErrorHandler(), 

    UART1_OverrunErrorHandler	PTR FTN()void  size(2) Largest target is 1
		 -> Absolute function(), UART1_DefaultOverrunErrorHandler(), 

    UART1_FramingErrorHandler	PTR FTN()void  size(2) Largest target is 1
		 -> Absolute function(), UART1_DefaultFramingErrorHandler(), 


Critical Paths under _main in COMRAM

    _main->_enter_service
    _vend_init->_DATAEE_ReadByte
    _mdb_init->_mdb_reset
    _mdb_security->_mdb_comm
    _mdb_reset->_mdb_comm
    _mdb_noten->_mdb_comm
    _mdb_comm->_TMR1_Initialize
    _mdb_comm->_init_mdbdata
    _mdb_comm->_mdb_transmit
    _mdb_transmit->_UART1_Write
    _enter_service->_Set_Timeout
    _button_flash->_TMR3_Initialize
    _Set_Timeout->_TMR1_ReadTimer
    _dispense->_credit_subtract
    _credit_subtract->_DATAEE_WriteByte
    _coin_in->_credit_add
    _credit_check->_DATAEE_ReadByte
    _credit_add->_DATAEE_WriteByte
    _SYSTEM_Initialize->_TMR1_Initialize
    _SYSTEM_Initialize->_TMR3_Initialize
    _SYSTEM_Initialize->_TMR5_Initialize
    _UART2_Initialize->_UART2_SetErrorHandler
    _UART2_Initialize->_UART2_SetFramingErrorHandler
    _UART2_Initialize->_UART2_SetOverrunErrorHandler
    _UART1_Initialize->_UART1_SetErrorHandler
    _UART1_Initialize->_UART1_SetFramingErrorHandler
    _UART1_Initialize->_UART1_SetOverrunErrorHandler

Critical Paths under _main in BANK0

    None.

Critical Paths under _main in BANK1

    None.

Critical Paths under _main in BANK2

    None.

Critical Paths under _main in BANK3

    None.

Critical Paths under _main in BANK4

    None.

Critical Paths under _main in BANK5

    None.

Critical Paths under _main in BANK6

    None.

Critical Paths under _main in BANK7

    None.

Call Graph Tables:

 ---------------------------------------------------------------------------------
 (Depth) Function   	        Calls       Base Space   Used Autos Params    Refs
 ---------------------------------------------------------------------------------
 (0) _main                                                 3     3      0   10545
                                             14 COMRAM     3     3      0
               _CMP1_GetOutputStatus
                   _DATAEE_WriteByte
                  _SYSTEM_Initialize
                       _button_flash
                            _coin_in
                       _credit_check
                           _dispense
                      _enter_service
                           _mdb_init
                          _vend_init
 ---------------------------------------------------------------------------------
 (1) _vend_init                                            4     4      0      45
                                              1 COMRAM     4     4      0
                    _DATAEE_ReadByte
 ---------------------------------------------------------------------------------
 (1) _mdb_init                                             3     3      0    3990
                                              7 COMRAM     2     2      0
                   _UART1_Initialize
                           _mdb_comm
                          _mdb_noten
                          _mdb_reset
                       _mdb_security
 ---------------------------------------------------------------------------------
 (2) _mdb_security                                         0     0      0     946
                       _init_mdbdata
                           _mdb_comm
 ---------------------------------------------------------------------------------
 (2) _mdb_reset                                            3     3      0     917
                                              5 COMRAM     2     2      0
                           _mdb_comm
 ---------------------------------------------------------------------------------
 (2) _mdb_noten                                            0     0      0     946
                       _init_mdbdata
                           _mdb_comm
 ---------------------------------------------------------------------------------
 (3) _mdb_comm                                             3     2      1     886
                                              2 COMRAM     3     2      1
                    _TMR1_Initialize
                         _UART1_Read
         _UART1_SetAddresstoTransmit
                       _init_mdbdata
                             _mdb_on
                       _mdb_transmit
                          _mdb_waitr
 ---------------------------------------------------------------------------------
 (4) _mdb_waitr                                            0     0      0       0
 ---------------------------------------------------------------------------------
 (4) _mdb_transmit                                         1     1      0      30
                                              1 COMRAM     1     1      0
                        _UART1_Write
                          _mdb_waitx
 ---------------------------------------------------------------------------------
 (5) _mdb_waitx                                            0     0      0       0
 ---------------------------------------------------------------------------------
 (5) _UART1_Write                                          1     1      0      15
                                              0 COMRAM     1     1      0
 ---------------------------------------------------------------------------------
 (4) _mdb_on                                               0     0      0       0
 ---------------------------------------------------------------------------------
 (4) _init_mdbdata                                         2     2      0      60
                                              0 COMRAM     2     2      0
 ---------------------------------------------------------------------------------
 (4) _UART1_SetAddresstoTransmit                           1     1      0      15
                                              0 COMRAM     1     1      0
 ---------------------------------------------------------------------------------
 (4) _UART1_Read                                           0     0      0       0
                   Absolute function *
          _UART1_DefaultErrorHandler *
   _UART1_DefaultFramingErrorHandler *
   _UART1_DefaultOverrunErrorHandler *
 ---------------------------------------------------------------------------------
 (5) _UART1_DefaultOverrunErrorHandler                     0     0      0       0
 ---------------------------------------------------------------------------------
 (5) _UART1_DefaultFramingErrorHandler                     0     0      0       0
 ---------------------------------------------------------------------------------
 (5) _UART1_DefaultErrorHandler                            0     0      0       0
 ---------------------------------------------------------------------------------
 (5) Absolute function(Fake)                               0     0      0       0
 ---------------------------------------------------------------------------------
 (1) _enter_service                                        2     2      0    1966
                                             12 COMRAM     2     2      0
                   _DATAEE_WriteByte
                        _Set_Timeout
                       _button_flash
                        _switch_read
 ---------------------------------------------------------------------------------
 (2) _button_flash                                         1     1      0       0
                                              2 COMRAM     1     1      0
                    _TMR3_Initialize
 ---------------------------------------------------------------------------------
 (2) _Set_Timeout                                          4     4      0    1063
                                              8 COMRAM     4     4      0
                   _DATAEE_WriteByte
                    _TMR1_Initialize
                     _TMR1_ReadTimer
                     _TMR1_StopTimer
 ---------------------------------------------------------------------------------
 (3) _TMR1_ReadTimer                                       8     6      2      69
                                              0 COMRAM     8     6      2
 ---------------------------------------------------------------------------------
 (1) _dispense                                             0     0      0    2083
                   _DATAEE_WriteByte
                    _TMR1_Initialize
                    _TMR1_StartTimer
                     _TMR1_StopTimer
                    _TMR1_WriteTimer
                    _credit_subtract
 ---------------------------------------------------------------------------------
 (2) _credit_subtract                                      1     1      0     940
                                              3 COMRAM     1     1      0
                    _DATAEE_ReadByte
                   _DATAEE_WriteByte
 ---------------------------------------------------------------------------------
 (2) _TMR1_WriteTimer                                      2     0      2     240
                                              0 COMRAM     2     0      2
 ---------------------------------------------------------------------------------
 (3) _TMR1_StopTimer                                       0     0      0       0
 ---------------------------------------------------------------------------------
 (2) _TMR1_StartTimer                                      0     0      0       0
 ---------------------------------------------------------------------------------
 (1) _coin_in                                              1     1      0     955
                                              4 COMRAM     1     1      0
                    _TMR5_Initialize
                         _credit_add
                       _credit_check
                        _switch_read
 ---------------------------------------------------------------------------------
 (2) _switch_read                                          1     1      0       0
                                              0 COMRAM     1     1      0
 ---------------------------------------------------------------------------------
 (1) _credit_check                                         0     0      0      15
                    _DATAEE_ReadByte
 ---------------------------------------------------------------------------------
 (2) _credit_add                                           1     1      0     940
                                              3 COMRAM     1     1      0
                    _DATAEE_ReadByte
                   _DATAEE_WriteByte
 ---------------------------------------------------------------------------------
 (3) _DATAEE_WriteByte                                     3     2      1     903
                                              0 COMRAM     3     2      1
 ---------------------------------------------------------------------------------
 (2) _DATAEE_ReadByte                                      1     1      0      15
                                              0 COMRAM     1     1      0
 ---------------------------------------------------------------------------------
 (1) _SYSTEM_Initialize                                    0     0      0     588
                    _CMP1_Initialize
                    _DAC1_Initialize
              _OSCILLATOR_Initialize
             _PIN_MANAGER_Initialize
                     _PMD_Initialize
                    _SPI1_Initialize
                    _TMR1_Initialize
                    _TMR3_Initialize
                    _TMR5_Initialize
                   _UART1_Initialize
                   _UART2_Initialize
 ---------------------------------------------------------------------------------
 (2) _UART2_Initialize                                     0     0      0     294
              _UART2_SetErrorHandler
       _UART2_SetFramingErrorHandler
       _UART2_SetOverrunErrorHandler
 ---------------------------------------------------------------------------------
 (3) _UART2_SetOverrunErrorHandler                         2     0      2      98
                                              0 COMRAM     2     0      2
 ---------------------------------------------------------------------------------
 (3) _UART2_SetFramingErrorHandler                         2     0      2      98
                                              0 COMRAM     2     0      2
 ---------------------------------------------------------------------------------
 (3) _UART2_SetErrorHandler                                2     0      2      98
                                              0 COMRAM     2     0      2
 ---------------------------------------------------------------------------------
 (2) _UART1_Initialize                                     0     0      0     294
              _UART1_SetErrorHandler
       _UART1_SetFramingErrorHandler
       _UART1_SetOverrunErrorHandler
 ---------------------------------------------------------------------------------
 (3) _UART1_SetOverrunErrorHandler                         2     0      2      98
                                              0 COMRAM     2     0      2
 ---------------------------------------------------------------------------------
 (3) _UART1_SetFramingErrorHandler                         2     0      2      98
                                              0 COMRAM     2     0      2
 ---------------------------------------------------------------------------------
 (3) _UART1_SetErrorHandler                                2     0      2      98
                                              0 COMRAM     2     0      2
 ---------------------------------------------------------------------------------
 (2) _TMR5_Initialize                                      2     2      0       0
                                              0 COMRAM     2     2      0
 ---------------------------------------------------------------------------------
 (3) _TMR3_Initialize                                      2     2      0       0
                                              0 COMRAM     2     2      0
 ---------------------------------------------------------------------------------
 (4) _TMR1_Initialize                                      2     2      0       0
                                              0 COMRAM     2     2      0
 ---------------------------------------------------------------------------------
 (2) _SPI1_Initialize                                      0     0      0       0
 ---------------------------------------------------------------------------------
 (2) _PMD_Initialize                                       0     0      0       0
 ---------------------------------------------------------------------------------
 (2) _PIN_MANAGER_Initialize                               0     0      0       0
 ---------------------------------------------------------------------------------
 (2) _OSCILLATOR_Initialize                                0     0      0       0
 ---------------------------------------------------------------------------------
 (2) _DAC1_Initialize                                      0     0      0       0
 ---------------------------------------------------------------------------------
 (2) _CMP1_Initialize                                      0     0      0       0
 ---------------------------------------------------------------------------------
 (1) _CMP1_GetOutputStatus                                 0     0      0       0
 ---------------------------------------------------------------------------------
 Estimated maximum stack depth 5
 ---------------------------------------------------------------------------------

 Call Graph Graphs:

 _main (ROOT)
   _CMP1_GetOutputStatus
   _DATAEE_WriteByte
   _SYSTEM_Initialize
     _CMP1_Initialize
     _DAC1_Initialize
     _OSCILLATOR_Initialize
     _PIN_MANAGER_Initialize
     _PMD_Initialize
     _SPI1_Initialize
     _TMR1_Initialize
     _TMR3_Initialize
     _TMR5_Initialize
     _UART1_Initialize
       _UART1_SetErrorHandler
       _UART1_SetFramingErrorHandler
       _UART1_SetOverrunErrorHandler
     _UART2_Initialize
       _UART2_SetErrorHandler
       _UART2_SetFramingErrorHandler
       _UART2_SetOverrunErrorHandler
   _button_flash
     _TMR3_Initialize
   _coin_in
     _TMR5_Initialize
     _credit_add
       _DATAEE_ReadByte
       _DATAEE_WriteByte
     _credit_check
       _DATAEE_ReadByte
     _switch_read
   _credit_check
   _dispense
     _DATAEE_WriteByte
     _TMR1_Initialize
     _TMR1_StartTimer
     _TMR1_StopTimer
     _TMR1_WriteTimer
     _credit_subtract
       _DATAEE_ReadByte
       _DATAEE_WriteByte
   _enter_service
     _DATAEE_WriteByte
     _Set_Timeout
       _DATAEE_WriteByte
       _TMR1_Initialize
       _TMR1_ReadTimer
       _TMR1_StopTimer
     _button_flash
     _switch_read
   _mdb_init
     _UART1_Initialize
     _mdb_comm
       _TMR1_Initialize
       _UART1_Read
         Absolute function(Fake) *
         _UART1_DefaultErrorHandler *
         _UART1_DefaultFramingErrorHandler *
         _UART1_DefaultOverrunErrorHandler *
       _UART1_SetAddresstoTransmit
       _init_mdbdata
       _mdb_on
       _mdb_transmit
         _UART1_Write
         _mdb_waitx
       _mdb_waitr
     _mdb_noten
       _init_mdbdata
       _mdb_comm
     _mdb_reset
       _mdb_comm
     _mdb_security
       _init_mdbdata
       _mdb_comm
   _vend_init
     _DATAEE_ReadByte

 Address spaces:
Name               Size   Autos  Total    Cost      Usage
BIGRAM             7FF      0       0      70        0.0%
BITBIGSFRllhhhh    227      0       0      45        0.0%
BITBIGSFRllllll    1A0      0       0      68        0.0%
EEDATA             100      0       0       0        0.0%
BITBANK7           100      0       0      18        0.0%
BANK7              100      0       0      19        0.0%
BITBANK6           100      0       0      16        0.0%
BANK6              100      0       0      17        0.0%
BITBANK5           100      0       0      14        0.0%
BANK5              100      0       0      15        0.0%
BITBANK4           100      0       0      12        0.0%
BANK4              100      0       0      13        0.0%
BITBANK3           100      0       0      10        0.0%
BANK3              100      0       0      11        0.0%
BITBANK2           100      0       0       8        0.0%
BANK2              100      0       0       9        0.0%
BITBANK1           100      0       0       6        0.0%
BANK1              100      0       0       7        0.0%
BITBIGSFRhlhlll     D7      0       0      29        0.0%
BITBIGSFRllhhhh     B3      0       0      41        0.0%
BITBIGSFRllhhhh     A1      0       0      32        0.0%
BITBANK0            A0      0       0       4        0.0%
BANK0               A0      0       0       5        0.0%
BITCOMRAM           5F      0       0       0        0.0%
COMRAM              5F     11      5A       1       94.7%
BITBIGSFRllhhhl     59      0       0      48        0.0%
BITBIGSFRlllllh     2E      0       0      55        0.0%
BITBIGSFRllllll     22      0       0      58        0.0%
BITBIGSFRhhhlhl     1D      0       0      22        0.0%
BITBIGSFRhll        1D      0       0      30        0.0%
BITBIGSFRllllll     17      0       0      64        0.0%
BITBIGSFRllhlh      15      0       0      50        0.0%
BITBIGSFRllllll     11      0       0      63        0.0%
BITBIGSFRllllh       B      0       0      54        0.0%
BITBIGSFRhhhllh      7      0       0      23        0.0%
BITBIGSFRhhhh        7      0       0      20        0.0%
BITBIGSFRhlhlll      6      0       0      28        0.0%
BITBIGSFRhlhllh      6      0       0      27        0.0%
BITBIGSFRllhhhh      5      0       0      35        0.0%
BITBIGSFRllhhhl      5      0       0      47        0.0%
BITBIGSFRlllhl       5      0       0      53        0.0%
BITBIGSFRllhll       5      0       0      51        0.0%
BITBIGSFRhhhlll      5      0       0      24        0.0%
BITBIGSFRhhl         5      0       0      25        0.0%
BITBIGSFRhlhh        4      0       0      26        0.0%
BITBIGSFRlllhh       4      0       0      52        0.0%
BITBIGSFRhhhlhh      3      0       0      21        0.0%
BITBIGSFRlllllh      3      0       0      56        0.0%
BITBIGSFRllhhhh      2      0       0      42        0.0%
BITBIGSFRllhhhh      2      0       0      43        0.0%
BITBIGSFRllllll      2      0       0      60        0.0%
BITBIGSFRllhhhl      2      0       0      46        0.0%
BITBIGSFRlllllh      2      0       0      57        0.0%
BITBIGSFRllhhl       2      0       0      49        0.0%
BITBIGSFRllhhhh      1      0       0      39        0.0%
BITBIGSFRllhhhh      1      0       0      40        0.0%
BITBIGSFRllhhhh      1      0       0      36        0.0%
BITBIGSFRllhhhh      1      0       0      37        0.0%
BITBIGSFRllhhhh      1      0       0      38        0.0%
BITBIGSFRllhhhh      1      0       0      33        0.0%
BITBIGSFRllhhhh      1      0       0      34        0.0%
BITBIGSFRllhhhh      1      0       0      44        0.0%
BITBIGSFRllllll      1      0       0      65        0.0%
BITBIGSFRllllll      1      0       0      66        0.0%
BITBIGSFRllllll      1      0       0      61        0.0%
BITBIGSFRllllll      1      0       0      62        0.0%
BITBIGSFRllllll      1      0       0      67        0.0%
BITBIGSFRllllll      1      0       0      59        0.0%
BITBIGSFRlh          1      0       0      31        0.0%
BIGSFR               0      0       0     200        0.0%
BITSFR_8             0      0       0     200        0.0%
SFR_8                0      0       0     200        0.0%
BITSFR_7             0      0       0     200        0.0%
SFR_7                0      0       0     200        0.0%
BITSFR_6             0      0       0     200        0.0%
SFR_6                0      0       0     200        0.0%
BITSFR_5             0      0       0     200        0.0%
SFR_5                0      0       0     200        0.0%
BITSFR_4             0      0       0     200        0.0%
SFR_4                0      0       0     200        0.0%
BITSFR_3             0      0       0     200        0.0%
SFR_3                0      0       0     200        0.0%
BITSFR_2             0      0       0     200        0.0%
SFR_2                0      0       0     200        0.0%
BITSFR_1             0      0       0     200        0.0%
SFR_1                0      0       0     200        0.0%
BITSFR               0      0       0     200        0.0%
SFR                  0      0       0     200        0.0%
STACK                0      0       0       2        0.0%
NULL                 0      0       0       0        0.0%
ABS                  0      0      5A      69        0.0%
DATA                 0      0      5A       3        0.0%
CODE                 0      0       0       0        0.0%


Microchip Technology PIC18 Macro Assembler V2.40 build 20220703182018 
Symbol Table                                                                                   Thu Aug 18 14:29:12 2022

                                           l7 145C                             ??_CMP1_Initialize 0049  
                                          l86 0E20                                            u10 1384  
                                          u11 1380                                            u20 1436  
                                          u21 1432                                            u30 0BFE  
                                          u31 0BFA                                            u40 0C12  
                                          u41 0C0E                                            u60 0C3E  
                                          u61 0C3A                                            u80 0C6A  
                                          u81 0C66                                            u58 0C1A  
                                          u59 0C2E                                            u78 0C46  
                                          u79 0C5A                                            u98 0C70  
                                          u99 0C84                               _DAC1_Initialize 1452  
                                         l102 1400                                           l105 13EC  
                                         l222 1370                                           l216 127C  
                                         l162 13A4                                           l219 13D6  
                                         l251 14A6                                           l156 10FC  
                                         l245 11F2                                           l158 110A  
                                         l254 134C                                           l343 1186  
                                         l159 1116                                           l248 14AA  
                                         l522 0C88                                           l259 12D4  
                                         l531 1466                                           l540 14B2  
                                         l516 0BEE                                           l525 1374  
                                         l294 11BC                                           l606 0FD8  
                                         l534 14B0                                           l543 1498  
                                         l528 138A                                           l537 14AE  
                                         l546 148E                                           l650 1470  
                                         l396 13BE                                           l812 08E2  
                                         l549 14A2                                           l653 1484  
                                         l821 0948                                           l813 090E  
                                         l805 08C2                                           l822 0966  
                                         l647 147A                                           l823 0968  
                                         l815 091C                                           l807 08C4  
                                         l920 10B6                                           l912 0D90  
                                         l824 097A                                           l913 0D92  
                                         l817 0924                                           l930 1450  
                                         l826 09A8                                           l818 0922  
                                         l499 0F7C                                           l915 0D98  
                                         l827 09A4                                           l916 0D9A  
                                         l925 10CE                                           l941 0EA4  
                                         l917 0D9C                                           l909 0D1C  
                                         l829 09A6                                           l934 124E  
                                         l950 0EEA                                           l927 10D0  
                                         l951 0EEC                                           l943 0ECA  
                                         l945 0EC8                                           l938 1220  
                                         l954 0F14                                           l964 1080  
                                         l981 0BBA                                           l990 0C92  
                                         l991 0C94                                           l975 0B76  
                                         l993 0CA4                                           l985 0BEC  
                                         l969 0B2E                                           l996 0D16  
                                         l988 0D06                                           u100 12A8  
                                         u101 12A4                                           u110 1424  
                                         u111 1420                                           u300 0E58  
                                         u301 0E54                                           u310 0E66  
                                         u311 0E62                                           u320 0E96  
                                         u321 0E92                                           u250 1040  
                                         u251 103C                                           u260 1058  
                                         u261 1054                                           u270 1068  
                                         u430 0D90                                           u271 1062  
                                         u431 0D8C                                           u280 0E32  
                                         u281 0E2C                                           u290 0E46  
                                         u282 0E34                                           u291 0E40  
                                         u292 0E48                                           u276 106A  
                                         u390 13EA                                           u391 13E4  
                                         u396 13EC                                           u980 110A  
                                         u981 1106                                           u995 1114  
                                         u996 1116                               _timer1ReloadVal 0036  
                                         tosl 003FFD                                           wreg 003FE8  
                              ??_credit_check 004A                                 ?_mdb_security 0049  
                                        l1002 0E9E                                          l1003 0EA2  
                                        l2001 1298                                          l2003 143A  
                                        l1221 14AC                                          l2005 1440  
                                        l1230 1414                                          l2031 139A  
                                        l2007 1414                                          l1207 0AA8  
                                        l1224 1426                                          l1152 1150  
                                        l2041 1188                                          l2033 139C  
                                        l2201 14A8                                          l1233 1424  
                                        l3001 0A84                                          l1242 1444  
                                        l1218 0B10                                          l2043 119C  
                                        l2035 139E                                          l2027 138E  
                                        l1227 1436                                          l3011 0AC6  
                                        l3003 0A88                                          l1171 1412  
                                        l2045 11A0                                          l2037 13A0  
                                        l2029 1394                                          l3101 0CF8  
                                        l2221 1042                                          l1149 12A8  
                                        l3021 0B00                                          l3013 0AC8  
                                        l3005 0A8A                                          l1157 0FF8  
                                        l2151 0DF0                                          l2047 11B8  
                                        l3031 0F7E                                          l2231 1446  
                                        l2223 1046                                          l3023 0B04  
                                        l3015 0AD2                                          l3007 0A9A  
                                        l1159 1030                                          l3111 1006  
                                        l3103 0FDA                                          l1168 1328  
                                        l2161 0DFA                                          l2153 0DF2  
                                        l3041 0F16                                          l3033 0FB0  
                                        l2233 144E                                          l2241 0E66  
                                        l3201 1088                                          l2049 14A4  
                                        l2225 1048                                          l2217 1032  
                                        l3017 0AE0                                          l3025 0B0A  
                                        l3009 0AB8                                          l3121 130A  
                                        l3113 1026                                          l3105 0FE0  
                                        l2331 13D8                                          l2163 13EE  
                                        l2147 1452                                          l2155 0DF4  
                                        l2171 1166                                          l3043 0F54  
                                        l3035 0FBC                                          l2243 0E7A  
                                        l3051 12AA                                          l3211 0EAA  
                                        l2227 1058                                          l2219 1040  
                                        l3027 0B0E                                          l3019 0AFC  
                                        l3131 1326                                          l3123 130E  
                                        l3107 0FEA                               _timer3ReloadVal 0034  
                                        l2157 0DF6                                          l2149 0D9E  
                                        l2165 134E                                          l2173 116A  
                                        l3045 0F60                                          l3037 0FC8  
                                        l3141 1264                                          l2245 0E88  
                                        l2237 0E22                                          l3205 109C  
                                        l3053 12B8                                          l3061 12CA  
                                        l3221 0EFC                                          l3213 0EAE  
                                        l2229 107C                                          l3125 1312  
                                        l3117 1300                                          l3109 0FFA  
                                        l3133 1402                                          l2167 13C0  
                                        l2159 0DF8                                          l2175 1182  
                                        l3047 0F6C                                          l3039 0FD4  
                                        l3143 1278                                          l3071 123C  
                                        l2255 0EA0                                          l2247 0E96  
                                        l2239 0E58                                          l3207 10B0  
                                        l3063 12CE                                          l3055 12BA  
                                        l3223 0F0C                                          l3215 0EBA  
                                        l3127 1316                                          l3119 1306  
                                        l3135 1408                                          l3151 1136  
                                        l3231 0898                                          l2169 1152  
                                        l3049 0F78                                          l3137 1250  
                                        l3073 124C                                          l3065 1224  
                                        l2249 0E98                                          l3057 12BE  
                                        l3081 120E                                          l3217 0EBE  
                                        l3209 0EA6                                          l3129 131A  
                                        l3161 1146                                          l3153 1138  
                                        l3145 1118                                          l3241 08A8  
                                        l3233 089C                                          l3139 1260  
                                        l3067 122C                                          l3059 12C4  
                                        l3083 121E                                          l3075 11F6  
                                        l3219 0EDA                                          l3091 0CB6  
                                        l3171 0B3C                                          l3163 0B12  
                                        l3155 113A                                          l3147 112E  
                                        l3251 08DE                                          l3243 08AA  
                                        l3235 089E                                          l3227 0834  
                                        l2197 13A6                                          l3069 1232  
                                        l3077 11FE                                          l3093 0CC6  
                                        l3085 0C8A                                          l3181 0B7E  
                                        l3173 0B56                                          l3165 0B26  
                                        l3157 113E                                          l3149 1132  
                                        l3261 0944                                          l3253 08E0  
                                        l3245 08AC                                          l3237 08A2  
                                        l3229 0884                                          l2199 13BC  
                                        l3079 1204                                          l3095 0CCE  
                                        l3087 0CA6                                          l3191 0BC8  
                                        l3183 0B92                                          l3175 0B5A  
                                        l3167 0B2A                                          l3159 1142  
                                        l2391 0D3A                                          l3271 09B6  
                                        l3263 0960                                          l3247 08BA  
                                        l3255 08FA                                          l3239 08A4  
                                        l3097 0CDE                                          l3089 0CAA  
                                        l3193 0BD2                                          l3185 0B94  
                                        l3177 0B68                                          l3169 0B2C  
                                        l2393 0D4E                                          l2385 0D18  
                                        l3273 09C4                                          l3265 0978  
                                        l3257 0932                                          l3249 08C6  
                                        l3099 0CEE                                          l3195 0BD4  
                                        l3187 0BA8                                          l3179 0B78  
                                        l2395 0D56                                          l2387 0D1E  
                                        l3267 0988                                          l3259 0936  
                                        l3197 1082                                          l3189 0BAC  
                                        l2397 0D64                                          l2389 0D26  
                                        l3269 0996                                          l3199 1086  
                                        l1951 1374                                          l2399 0D7A  
                                        l1961 11D6                                          l2921 10E2  
                                        l1953 1384                                          l1963 11EE  
                                        l2931 10F6                                          l2923 10E8  
                                        l1971 0C12                                          l1955 1426  
                                        l1957 11BE                                          l2933 10FA  
                                        l2925 10EE                                          l2917 10D4  
                                        l1981 0C5A                                          l1973 0C14  
                                        l1965 0BEE                                          l1959 11D2  
                                        l2943 1490                                          l2951 1468  
                                        l2927 10F0                                          l2919 10DC  
                                        l2935 132A                                          l1983 0C6A  
                                        l1975 0C2E                                          l1967 0BFE  
                                        l1991 1280                                          l2945 1486  
                                        l2953 147C                                          l2929 10F2  
                                        l2937 1338                                          l1985 0C84  
                                        l1977 0C3E                                          l1969 0C02  
                                        l2961 09DE                                          l2947 149A  
                                        l2939 1344                                          l1979 0C40  
                                        l2971 0A10                                          l2963 09E2  
                                        l2955 09D2                                          l2949 1472  
                                        l1989 1460                                          l1997 1284  
                                        l2981 0A3C                                          l2973 0A22  
                                        l2965 09E6                                          l2957 09D2  
                                        l1999 1296                                          l2991 0A58  
                                        l2983 0A42                                          l2975 0A24  
                                        l2967 09F6                                          l2959 09D8  
                                        l2993 0A5C                                          l2985 0A46  
                                        l2969 09FE                                          l2977 0A26  
                                        l2995 0A62                                          l2987 0A4E  
                                        l2979 0A36                                          l2997 0A74  
                                        l2989 0A50                                          l2999 0A78  
                                        u1000 09F6                                          u1001 09F2  
                                        u1010 0A36                                          u1011 0A32  
                                        u1100 12B8                                          u1101 12B4  
                                        u1110 124C                                          u1030 0A9A  
                                        u1111 1248                                          u1031 0A96  
                                        u1120 121E                                          u1200 0B92  
                                        u1040 0AA8                                          u1121 121A  
                                        u1201 0B8E                                          u1041 0AA4  
                                        u1025 0A82                                          u1130 0CA4  
                                        u1210 0BA8                                          u1050 0AB8  
                                        u1131 0CA0                                          u1211 0BA4  
                                        u1051 0AB4                                          u1027 0A84  
                                        u1140 0D16                                          u1220 0BBA  
                                        u1060 0AC6                                          u1300 0848  
                                        u1141 0D12                                          u1221 0BB6  
                                        u1061 0AC2                                          u1301 0842  
                                        u1230 0BC8                                          u1150 0FF8  
                                        u1310 084A                                          u1231 0BC4  
                                        u1151 0FF4                                          u1240 109C  
                                        u1080 0AE0                                          u1160 1026  
                                        u1400 0978                                          u1320 0868  
                                        u1241 1098                                          u1081 0ADC  
                                        u1161 1022                                          u1401 0974  
                                        u1321 0860                                          u1250 10B0  
                                        u1170 0B3C                                          u1090 0AFC  
                                        u1410 0988                                          u1330 0884  
                                        u1251 10AC                                          u1171 0B38  
                                        u1091 0AF8                                          u1075 0AD0  
                                        u1411 0984                                          u1331 0880  
                                        u1260 10CE                                          u1180 0B68  
                                        u1420 0996                                          u1340 08BA  
                                        u1261 10CA                                          u1181 0B64  
                                        u1077 0AD2                                          u1421 0992  
                                        u1341 08B6                                          _LATA 003FBA  
                                        u1270 0EDA                                          u1190 0B76  
                                        u1430 09A4                                          u1350 090E  
                                        _LATB 003FBB                                          u1271 0ED6  
                                        u1191 0B72                                          u1431 09A0  
                                        u1351 090A                                          _LATC 003FBC  
                                        u1280 0EEA                                          u1440 09B6  
                                        u1360 091C                                          u1328 086A  
                                        u1281 0EE6                                          u1441 09B2  
                                        u1361 0918                                          u1290 0EFC  
                                        u1450 09C4                                          u1370 0932  
                                        u1291 0EF8                                          u1507 1122  
                                        u1451 09C0                                          u1371 092E  
                                        u1380 0944                                          u1517 0B46  
                                        u1381 0940                                          u1390 0960  
                                        u1527 0BDE                                          u1391 095C  
                                        u1537 0E6C                                          u1547 0E80  
                                        u1477 08D0                                          u1487 08EC  
                                        u1497 0D6E                                          _PMD0 0039C0  
                                        _PMD1 0039C1                                          _PMD2 0039C2  
                                        _PMD3 0039C3                                          _PMD4 0039C4  
                                        _PMD5 0039C5                                          _PMD6 0039C6  
                                        _PMD7 0039C7                                          _WPUA 003A41  
                                        _WPUB 003A51                                          _WPUC 003A61  
                                        _WPUE 003A81                                          _cash 0043  
                                        _main 0834                                 ?_mdb_transmit 0049  
                                        fsr2h 003FDA                                          indf2 003FDF  
                                        fsr2l 003FD9                                          start 7FFC  
                             _timer5ReloadVal 0032                   ?_UART1_SetAddresstoTransmit 0049  
                             _TMR3_Initialize 1188                                  ___param_bank 000000  
                                 ?_UART1_Read 0049                                   _switch_read 0E22  
               __end_of_OSCILLATOR_Initialize 13D8                                         ?_main 0049  
                             _TMR1_StartTimer 14A8                                         _T1CLK 003FB5  
                                       _T1CON 003FB2                                         _U1P1H 003DED  
                                       _U1P2H 003DEF                                         _U1P3H 003DF1  
                                       _U1P1L 003DEC                                         _T3CLK 003FA9  
                                       _U1P2L 003DEE                                         _U1P3L 003DF0  
                                       _U2P1L 003DD4                                         _U2P2L 003DD6  
                                       _T3CON 003FA6                                         _U2P3L 003DD8  
                                       _CMOUT 003EC0                                         _T5CLK 003F9D  
                                       _T5CON 003F9A                                         _U1UIR 003DF8  
                                       _U1RXB 003DE8                                         _U2UIR 003DE0  
                                       _U1TXB 003DEA                                         _U2RXB 003DD0  
                                       _PCON0 003FF0                                         _U2TXB 003DD2  
                                       _OSCEN 0039DD                                         _TMR1H 003FB1  
                                       _TMR1L 003FB0                                         _TMR3H 003FA5  
                                       _TMR3L 003FA4                                         _TMR5H 003F99  
                                       _TMR5L 003F98                                         _TRISA 003FC2  
                                       _TRISB 003FC3                                         _TRISC 003FC4  
                             __end_of_cashint 080C                               __end_of_cashinv 0810  
                       Set_Timeout@readValLow 0051                               __end_of_credmem 0816  
                             __end_of_coin_in 10D2                               _DATAEE_ReadByte 138C  
                              ??_mdb_security 004E                               __end_of_second1 081C  
                     __end_of_TMR1_Initialize 11F4                                         pclath 003FFA  
                                       tablat 003FF5                               __end_of_sensval 0808  
                              ??_mdb_transmit 004A                                         status 003FD8  
         fp__UART1_DefaultFramingErrorHandler 0000      __end_of_UART1_DefaultFramingErrorHandler 14B2  
          ??_UART1_DefaultFramingErrorHandler 0049             ?_UART1_DefaultFramingErrorHandler 0049  
            _UART1_DefaultFramingErrorHandler 14B0                               _TMR1_WriteTimer 12AA  
                             _TMR5_Initialize 1152                ??_UART2_SetOverrunErrorHandler 004B  
                __end_of_CMP1_GetOutputStatus 13EE                               __initialization 12D6  
                                __end_of_main 09D0                       __end_of_DAC1_Initialize 145E  
                 ??_UART1_DefaultErrorHandler 0049                            Set_Timeout@timeval 0053  
                                ?_UART1_Write 0049                                        ??_main 0057  
                               __activetblptr 000002                                 _enter_service 0B12  
                            _UART1_Initialize 0F16                                 ??_Set_Timeout 0051  
                                      _CM1NCH 003EBE                                        _CM1PCH 003EBF  
                                      _ANSELA 003A40                                        _ANSELB 003A50  
                                      _ANSELC 003A60                                        _RB1I2C 003A5A  
                                      _T1GATE 003FB4                                        _RB2I2C 003A5B  
                                      _T1GCON 003FB3                                        _U1CON0 003DF2  
                                      _U1CON1 003DF3                                        _U1CON2 003DF4  
                                      _RC3I2C 003A6A                                        _T3GATE 003FA8  
                                      _RC4I2C 003A6B                                        _U1BRGH 003DF6  
                                      _U1FIFO 003DF7                                        _U2CON0 003DDA  
                                      _T3GCON 003FA7                                        _U2CON1 003DDB  
                                      _U2CON2 003DDC                                        _U1BRGL 003DF5  
                                      _U2BRGH 003DDE                                        _U2FIFO 003DDF  
                                      _U2BRGL 003DDD                                        _T5GATE 003F9C  
                                      _T5GCON 003F9B                                        _RB1PPS 003A09  
                                      _RC1PPS 003A11                                        _RB4PPS 003A0C  
                                      _RB5PPS 003A0D                       TMR1_WriteTimer@timerVal 0049  
                                      _ODCONA 003A42                                        _ODCONB 003A52  
                                      _ODCONC 003A62                              credit_add@credit 004C  
                     __end_of_TMR3_Initialize 11BE                                        _INLVLA 003A44  
                                      _INLVLB 003A54                                        _INLVLC 003A64  
                                      _INLVLE 003A84                                        _TABLAT 003FF5  
                               ?_init_mdbdata 0049                                        _OSCFRQ 0039DF  
                                      _NVMDAT 0039E3                         _UART1_SetErrorHandler 149A  
                               ?_button_flash 0049                        Set_Timeout@readValHigh 0052  
                            _UART2_Initialize 0F7E                     _UART2_OverrunErrorHandler 0028  
                            __end_of_dispense 0F16                              __end_of_mdb_comm 0B12  
                            __end_of_mdb_init 1152                          __end_of_credit_check 1452  
                     __end_of_TMR1_StartTimer 14AC                               mdb_reset@i_2155 004F  
                                      _credit 0044                                        _mdb_on 14AC  
                                      _mcount 003F                                        clear_0 12F0  
                                      _noteen 003B                                        isa$std 000001  
                                      _slvadd 0040                                     ??_coin_in 004D  
                     __end_of_DATAEE_ReadByte 13A6                              __end_of_second_5 081A  
                              _PMD_Initialize 134E                                  __pdataCOMRAM 005A  
                              ?_enter_service 0049                              __end_of_notebits 080A  
                            __end_of_mototime 0832                                  __mediumconst 0000  
                                      tblptrh 003FF7                                        tblptrl 003FF6  
                                      tblptru 003FF8          __end_of_UART1_SetOverrunErrorHandler 1490  
                _UART1_SetOverrunErrorHandler 1486                     _UART1_DefaultErrorHandler 14B2  
                     __end_of_TMR1_WriteTimer 12D6                                ??_init_mdbdata 0049  
                            ?_TMR1_Initialize 0049                       __end_of_TMR5_Initialize 1188  
                           _SYSTEM_Initialize 1250                                    __accesstop 0060  
                     __end_of__initialization 12F6                           __end_of_Set_Timeout 0D18  
                              ??_button_flash 004B                         __end_of_note_features 0829  
                             _CMP1_Initialize 13EE                            ?_SYSTEM_Initialize 0049  
                       __end_of_theft_attempt 081D                                 ___rparam_used 000001  
                              __pcstackCOMRAM 0049                         _UART2_SetErrorHandler 147C  
                         ??_SYSTEM_Initialize 004B                              ?_DAC1_Initialize 0049  
                        __end_of_mdb_security 1414                              _DATAEE_WriteByte 10D2  
                           ??_SPI1_Initialize 0049                         __end_of_note_rejected 081E  
                       __end_of_note_security 082E                        __end_of_PMD_Initialize 1372  
                        __end_of_mdb_transmit 1446                            _spi1_configuration 0801  
                   _UART1_FramingErrorHandler 0030                          _CMP1_GetOutputStatus 13D8  
                   __end_of_SYSTEM_Initialize 127E                 ?_UART1_SetOverrunErrorHandler 0049  
                      ?_UART1_SetErrorHandler 0049                              ?_TMR3_Initialize 0049  
                           ??_credit_subtract 004C                                  ??_UART1_Read 0049  
                                ?_switch_read 0049                              ?_TMR1_StartTimer 0049  
        __end_of_UART2_SetFramingErrorHandler 147C                  _UART2_SetFramingErrorHandler 1472  
                                     ?_mdb_on 0049                                       _CM1CON0 003EBC  
                                     _CM1CON1 003EBD                               ?_PMD_Initialize 0049  
                             ??_enter_service 0055                              ?_DATAEE_ReadByte 0049  
                                     _U1ERRIE 003DFA                                       _U1ERRIR 003DF9  
                                     _U2ERRIE 003DE2                                       _U2ERRIR 003DE1  
                                  _credit_add 1222                                       _U1RXPPS 003AE5  
                                     _U2RXPPS 003AE8                                       _OSCCON1 0039D9  
                                     _OSCCON3 0039DB                                       _TBLPTRH 003FF7  
                                     _TBLPTRL 003FF6                                       _SPI1CLK 003D1C  
                                     _TBLPTRU 003FF8                         ?_CMP1_GetOutputStatus 0049  
                                     _SPI1RXB 003D10                                       _NVMADRL 0039E0  
                                     _SPI1TXB 003D11                                    _jammed_err 0823  
                                     _OSCTUNE 0039DE                                       _NVMCON2 0039E6  
                                 _Set_Timeout 0C8A                                       _SLRCONA 003A43  
                                     _SLRCONB 003A53                                       _SLRCONC 003A63  
                     __end_of_CMP1_Initialize 1402                                     ?_mdb_comm 004B  
                                   ?_dispense 0049                              ?_TMR1_WriteTimer 0049  
                                   ?_mdb_init 0049                            __end_of_UART1_Read 0C8A  
                            ?_TMR5_Initialize 0049                          DATAEE_WriteByte@bAdd 004A  
                                     __Hparam 0000                        ?_UART2_SetErrorHandler 0049  
                                     __Lparam 0000                      __end_of_UART1_Initialize 0F7E  
                              mdb_comm@mcount 004B                                mdb_comm@slvadd 004C  
                           __end_of_mdb_reset 1032                             __end_of_mdb_noten 132A  
                           __end_of_mdb_waitr 1426                             __end_of_mdb_waitx 1438  
                                __psmallconst 0800                 ?_UART2_SetFramingErrorHandler 0049  
                                     _dbcount 0022                                       __pcinit 12D6  
                                     _cashint 080A                          __end_of_init_mdbdata 12AA  
                                     _cashinv 080E                                       __ramtop 0800  
                    TMR1_ReadTimer@readValLow 0050                                       _chkbyte 003D  
                                  _errorflags 0039                                       __ptext0 0834  
                                     __ptext1 0D18                                       __ptext2 1118  
                                     __ptext3 1402                                       __ptext4 0FDA  
                                     __ptext5 1300                                       __ptext6 09D0  
                                     __ptext7 1414                                       __ptext8 1438  
                                     __ptext9 1426                                       _credmem 0814  
                                     _coin_in 1082                                       _mdbdata 0001  
                   TMR1_ReadTimer@readValHigh 004F                                     _T1CONbits 003FB2  
                        __end_of_button_flash 1082              _UART2_DefaultOverrunErrorHandler 000000  
                       _OSCILLATOR_Initialize 13C0                                       _buttons 0042  
                                   _T3CONbits 003FA6                                       _second1 081A  
                    ??_PIN_MANAGER_Initialize 0049                                     _T5CONbits 003F9A  
                    __end_of_UART2_Initialize 0FDA                                       _notenum 005A  
                                     _sensval 0806                                       _timeout 0047  
                                _credit_check 1446                                    ??_dispense 004D  
                                  ??_mdb_comm 004C                                    ??_mdb_init 0050  
                        end_of_initialization 12F6                             __end_of_secondadd 0818  
                                   _PCON1bits 003FF1                                 __Lmediumconst 0000  
                           __end_of_note_poll 082D                             __end_of_note_type 082C  
                           __end_of_just_busy 0826                             __end_of_vend_init 0D9E  
              ??_UART1_SetOverrunErrorHandler 004B                             __end_of_rom_error 0825  
                           __end_of_vendstore 080E                                    _note_reset 082F  
                                   _SPI1TCNTL 003D12                                    _sens_error 0826  
                                  _note_setup 082E                                       postinc0 003FEE  
                                     postinc2 003FDE                                    _motr_error 0827  
                                  _just_reset 0822                                    _pricestore 0812  
                           UART1_Write@txData 0049                              vend_init@timeval 004C  
                                   _PORTAbits 003FCA                                    _venderrors 0810  
                                 ?_credit_add 0049                        ??_CMP1_GetOutputStatus 0049  
                              _TMR1_ReadTimer 132A                                     _TRISBbits 003FC3  
                            ?_CMP1_Initialize 0049                      __end_of_DATAEE_WriteByte 1118  
                                _mdb_security 1402                                   _CM1CON0bits 003EBC  
                             _SPI1_Initialize 13A6                           __end_of_cashbox_err 0821  
                                _mdb_transmit 1438                            mdb_transmit@txbyte 004A  
                               __pidataCOMRAM 14B4                                __end_of_mdb_on 14AE  
                              _TMR1_StopTimer 14A4                        ?_OSCILLATOR_Initialize 0049  
                      __end_of_TMR1_ReadTimer 134E                ??_UART2_SetFramingErrorHandler 004B  
                         start_initialization 12D6                       ??_UART1_SetErrorHandler 004B  
                   _UART2_DefaultErrorHandler 000000                               _credit_subtract 11F4  
                         DATAEE_ReadByte@bAdd 0049                  ??_UART1_SetAddresstoTransmit 0049  
                            ??_PMD_Initialize 0049                        __end_of_TMR1_StopTimer 14A8  
                                    ??_mdb_on 0049                               ?_TMR1_ReadTimer 0049  
                                 __pbssCOMRAM 0001                            _UART1_ErrorHandler 002C  
                   _UART2_FramingErrorHandler 002A                                  ?_Set_Timeout 0049  
                     __end_of_SPI1_Initialize 13C0                                   _cashbox_err 0820  
                        __end_of_note_removed 0822                         credit_subtract@credit 004C  
                        __end_of_note_stacker 082A                          init_mdbdata@initdata 0049  
                                _init_mdbdata 127E                  fp__UART1_DefaultErrorHandler 0000  
                     ??_UART2_SetErrorHandler 004B                                  _button_flash 1032  
                      _PIN_MANAGER_Initialize 0D9E                             ?_UART1_Initialize 0049  
        __end_of_UART1_SetFramingErrorHandler 149A                  _UART1_SetFramingErrorHandler 1490  
                          ??_UART1_Initialize 004B                               ?_TMR1_StopTimer 0049  
                            _uart1RxLastError 0046                                 ??_UART1_Write 0049  
                                    _DAC1CON0 003E9E                                      _DAC1CON1 003E9C  
                                    ?_coin_in 0049                                     _mdb_reset 0FDA  
                                   _mdb_noten 1300                                     _mdb_waitr 1414  
                                   _mdb_waitx 1426                                   __smallconst 0800  
                     __end_of_credit_subtract 1222                         __end_of_enter_service 0BEE  
         fp__UART1_DefaultOverrunErrorHandler 0000      __end_of_UART1_DefaultOverrunErrorHandler 14B0  
          ??_UART1_DefaultOverrunErrorHandler 0049             ?_UART1_DefaultOverrunErrorHandler 0049  
            _UART1_DefaultOverrunErrorHandler 14AE                                     _mdbtxbyte 0038  
                           ?_UART2_Initialize 0049                                _acept_disabled 081F  
                                 _U1ERRIRbits 003DF9                            ??_UART2_Initialize 004B  
                            _uart2RxLastError 0045                                   _U2ERRIRbits 003DE1  
                                    _LATAbits 003FBA         UART2_SetErrorHandler@interruptHandler 0049  
       UART1_SetErrorHandler@interruptHandler 0049                                      _LATBbits 003FBB  
                                    _LATCbits 003FBC                                     _secondadd 0816  
                               _note_features 0828                                 _theft_attempt 081C  
                                _SPI1CON0bits 003D14                                      _PIR0bits 0039A0  
                                    _PIR2bits 0039A2                                      _SPI1BAUD 003D19  
                                    _PIR3bits 0039A3                                      _PIR4bits 0039A4  
                                    _SPI1CON0 003D14                                      _SPI1CON1 003D15  
                                    _SPI1CON2 003D16                                      _PIR6bits 0039A6  
                                    _PIR8bits 0039A8                                     _note_poll 082C  
                                   _note_type 082B                                     _just_busy 0825  
                                   _vend_init 0D18                                     _rom_error 0824  
               ?_UART1_SetFramingErrorHandler 0049                                     _vendprice 0041  
                                   _vendstore 080C                                 _note_rejected 081D  
                           ??_TMR1_Initialize 0049                                 _note_security 082D  
                                  ?_mdb_reset 0049                                    ?_mdb_noten 0049  
                                  ?_mdb_waitr 0049                                    ?_mdb_waitx 0049  
                                ??_credit_add 004C                                     mdb_comm@i 004D  
                      __end_of_acept_disabled 0820                           __end_of_UART1_Write 138C  
                          _UART2_ErrorHandler 0026                         DATAEE_WriteByte@bData 0049  
                            ?_SPI1_Initialize 0049                                   _INTCON0bits 003FD2  
                           ??_DAC1_Initialize 0049                             ?_DATAEE_WriteByte 0049  
                          ??_DATAEE_WriteByte 004A            __end_of_UART1_SetAddresstoTransmit 1468  
                  _UART1_SetAddresstoTransmit 145E                                      __Hrparam 0000  
                                    __Lrparam 0000                            __end_of_credit_add 1250  
                       TMR1_ReadTimer@readVal 004D                                    ?_vend_init 0049  
                     ??_OSCILLATOR_Initialize 0049                            __end_of_jammed_err 0824  
         UART1_SetAddresstoTransmit@txAddress 0049                                _invalid_escrow 081E  
                         __end_of_note_escrow 082B                             ??_TMR3_Initialize 0049  
                            ?_credit_subtract 0049                                      __ptext10 1372  
                                    __ptext11 14AC                                      __ptext20 0C8A  
                                    __ptext12 127E                                      __ptext21 132A  
                                    __ptext13 145E                                    _T1GCONbits 003FB3  
                                    __ptext30 1222                                      __ptext22 0EA4  
                                    __ptext14 0BEE                                      __ptext31 10D2  
                                    __ptext23 11F4                                      __ptext15 14AE  
                                    __ptext40 1490                                      __ptext32 138C  
                                    __ptext24 12AA                                      __ptext16 14B0  
                                    __ptext41 149A                                      __ptext33 1250  
                                    __ptext25 14A4                                      __ptext17 14B2  
                                    __ptext50 13EE                                      __ptext42 1152  
                                    __ptext34 0F7E                                      __ptext26 14A8  
                                    __ptext18 0B12                                      __ptext51 13D8  
                                    __ptext43 1188                                      __ptext35 1468  
                                    __ptext27 1082                                      __ptext19 1032  
                                    __ptext52 0000                                      __ptext44 11BE  
                                    __ptext36 1472                                      __ptext28 0E22  
                                    __ptext45 13A6                                      __ptext37 147C  
                                    __ptext29 1446                                      __ptext46 134E  
                                    __ptext38 0F16                                      __ptext47 0D9E  
                                    __ptext39 1486                                      __ptext48 13C0  
                                    __ptext49 1452                                    _U1CON0bits 003DF2  
                                    _mdb_comm 09D0                                      _dispense 0EA4  
                                    _mdb_init 1118                             ??_TMR1_StartTimer 0049  
               __end_of_UART1_SetErrorHandler 14A4                                      _mdbflags 003C  
                                  _T3GCONbits 003FA7                                    _U2CON0bits 003DDA  
                 DATAEE_WriteByte@GIEBitValue 004B                                    _T5GCONbits 003F9B  
            _UART2_DefaultFramingErrorHandler 000000                             ??_DATAEE_ReadByte 0049  
                                    _second_5 0818                     _UART1_OverrunErrorHandler 002E  
                                    _notebits 0808  UART2_SetOverrunErrorHandler@interruptHandler 0049  
UART1_SetOverrunErrorHandler@interruptHandler 0049                                      _notebyte 003E  
                                    isa$xinst 000000                                      _mototime 0830  
                               ??_switch_read 0049                                      _venflags 0024  
                               init_mdbdata@i 004A                              ??_TMR1_ReadTimer 004B  
                  ?_UART1_DefaultErrorHandler 0049                        __end_of_invalid_escrow 081F  
                                _note_removed 0821                             ??_TMR1_WriteTimer 004B  
                                _note_stacker 0829                                   _UART1_Write 1372  
                           ??_TMR5_Initialize 0049                                   ??_mdb_reset 004E  
                                 ??_mdb_noten 004E                                   ??_mdb_waitr 0049  
                                 ??_mdb_waitx 0049                ??_UART1_SetFramingErrorHandler 004B  
                                 _NVMCON1bits 0039E5          __end_of_UART2_SetOverrunErrorHandler 1472  
                _UART2_SetOverrunErrorHandler 1468                            __end_of_note_reset 0830  
                          __end_of_sens_error 0827                            __end_of_note_setup 082F  
                          __end_of_motr_error 0828                            __end_of_just_reset 0823  
                     ?_PIN_MANAGER_Initialize 0049                            __end_of_pricestore 0814  
                          __end_of_venderrors 0812                 __end_of_UART2_SetErrorHandler 1486  
                            ??_TMR1_StopTimer 0049                                   _note_escrow 082A  
                                  _SPI1SDIPPS 003ADF                                    _SPI1SCKPPS 003ADE  
                                 ??_vend_init 004A                                    _UART1_Read 0BEE  
                                 _noteen_byte 003A  UART2_SetFramingErrorHandler@interruptHandler 0049  
UART1_SetFramingErrorHandler@interruptHandler 0049             __end_of_UART1_DefaultErrorHandler 14B4  
                         __end_of_switch_read 0EA4                                 ?_credit_check 0049  
              __end_of_PIN_MANAGER_Initialize 0E22                 ?_UART2_SetOverrunErrorHandler 0049  
                             _TMR1_Initialize 11BE                    __end_of_spi1_configuration 0806  
