

Microchip MPLAB XC8 Assembler V2.40 build 20220703182018 
                                                                                               Sun Aug 21 09:41:31 2022

Microchip MPLAB XC8 C Compiler v2.40 (Free license) build 20220703182018 Og1 
     1                           	processor	18F25K42
     2                           	fnconf	rparam,??,?,0
     3                           	pagewidth 120
     4                           	opt	flic
     5                           	psect	idataCOMRAM,global,class=CODE,delta=1,noexec
     6                           	psect	smallconst,global,reloc=2,class=SMALLCONST,delta=1,noexec
     7                           	psect	cinit,global,reloc=2,class=CODE,delta=1
     8                           	psect	bssCOMRAM,global,class=COMRAM,space=1,delta=1,lowdata,noexec
     9                           	psect	dataCOMRAM,global,class=COMRAM,space=1,delta=1,lowdata,noexec
    10                           	psect	bssBANK0,global,class=BANK0,space=1,delta=1,lowdata,noexec
    11                           	psect	cstackCOMRAM,global,class=COMRAM,space=1,delta=1,lowdata,noexec
    12                           	psect	text0,global,reloc=2,class=CODE,delta=1
    13                           	psect	text1,global,reloc=2,class=CODE,delta=1
    14                           	psect	text2,global,reloc=2,class=CODE,delta=1
    15                           	psect	text3,global,reloc=2,class=CODE,delta=1
    16                           	psect	text4,global,reloc=2,class=CODE,delta=1
    17                           	psect	text5,global,reloc=2,class=CODE,delta=1
    18                           	psect	text6,global,reloc=2,class=CODE,delta=1
    19                           	psect	text7,global,reloc=2,class=CODE,delta=1
    20                           	psect	text8,global,reloc=2,class=CODE,delta=1
    21                           	psect	text9,global,reloc=2,class=CODE,delta=1
    22                           	psect	text10,global,reloc=2,class=CODE,delta=1
    23                           	psect	text11,global,reloc=2,class=CODE,delta=1
    24                           	psect	text12,global,reloc=2,class=CODE,delta=1
    25                           	psect	text13,global,reloc=2,class=CODE,delta=1
    26                           	psect	text14,global,reloc=2,class=CODE,delta=1
    27                           	psect	text15,global,reloc=2,class=CODE,delta=1
    28                           	psect	text16,global,reloc=2,class=CODE,delta=1
    29                           	psect	text17,global,reloc=2,class=CODE,delta=1
    30                           	psect	text18,global,reloc=2,class=CODE,delta=1
    31                           	psect	text19,global,reloc=2,class=CODE,delta=1
    32                           	psect	text20,global,reloc=2,class=CODE,delta=1
    33                           	psect	text21,global,reloc=2,class=CODE,delta=1
    34                           	psect	text22,global,reloc=2,class=CODE,delta=1
    35                           	psect	text23,global,reloc=2,class=CODE,delta=1
    36                           	psect	text24,global,reloc=2,class=CODE,delta=1
    37                           	psect	text25,global,reloc=2,class=CODE,delta=1
    38                           	psect	text26,global,reloc=2,class=CODE,delta=1
    39                           	psect	text27,global,reloc=2,class=CODE,delta=1
    40                           	psect	text28,global,reloc=2,class=CODE,delta=1
    41                           	psect	text29,global,reloc=2,class=CODE,delta=1
    42                           	psect	text30,global,reloc=2,class=CODE,delta=1
    43                           	psect	text31,global,reloc=2,class=CODE,delta=1
    44                           	psect	text32,global,reloc=2,class=CODE,delta=1
    45                           	psect	text33,global,reloc=2,class=CODE,delta=1
    46                           	psect	text34,global,reloc=2,class=CODE,delta=1
    47                           	psect	text35,global,reloc=2,class=CODE,delta=1
    48                           	psect	text36,global,reloc=2,class=CODE,delta=1
    49                           	psect	text37,global,reloc=2,class=CODE,delta=1
    50                           	psect	text38,global,reloc=2,class=CODE,delta=1
    51                           	psect	text39,global,reloc=2,class=CODE,delta=1
    52                           	psect	text40,global,reloc=2,class=CODE,delta=1
    53                           	psect	text41,global,reloc=2,class=CODE,delta=1
    54                           	psect	text42,global,reloc=2,class=CODE,delta=1
    55                           	psect	text43,global,reloc=2,class=CODE,delta=1
    56                           	psect	text44,global,reloc=2,class=CODE,delta=1
    57                           	psect	text45,global,reloc=2,class=CODE,delta=1
    58                           	psect	text46,global,reloc=2,class=CODE,delta=1
    59                           	psect	text47,global,reloc=2,class=CODE,delta=1
    60                           	psect	text48,global,reloc=2,class=CODE,delta=1
    61                           	psect	text49,global,reloc=2,class=CODE,delta=1
    62                           	psect	text50,global,reloc=2,class=CODE,delta=1
    63                           	psect	text51,global,reloc=2,class=CODE,delta=1
    64                           	psect	text52,global,reloc=2,class=CODE,delta=1
    65                           	psect	text53,global,reloc=2,class=CODE,delta=1
    66                           	psect	text54,global,reloc=2,class=CODE,delta=1
    67                           	psect	text55,global,reloc=2,class=CODE,delta=1
    68                           	psect	text56,global,reloc=2,class=CODE,delta=1
    69                           	psect	text57,global,reloc=2,class=CODE,delta=1
    70                           	psect	text58,global,reloc=2,class=CODE,delta=1
    71                           	psect	text59,global,reloc=2,class=CODE,delta=1
    72                           	psect	text60,global,reloc=2,class=CODE,delta=1
    73                           	psect	text61,global,reloc=2,class=CODE,delta=1
    74                           	psect	text62,global,reloc=2,class=CODE,delta=1
    75                           	psect	text63,global,reloc=2,class=CODE,delta=1
    76                           	psect	text64,global,reloc=2,class=CODE,delta=1
    77                           	psect	text65,global,reloc=2,class=CODE,delta=1
    78                           	psect	text66,global,reloc=2,class=CODE,delta=1
    79                           	psect	text67,global,reloc=2,class=CODE,delta=1
    80                           	psect	text68,global,reloc=2,class=CODE,delta=1
    81                           	psect	text69,global,reloc=2,class=CODE,delta=1
    82                           	psect	text70,global,reloc=2,class=CODE,delta=1
    83                           	psect	text71,global,reloc=2,class=CODE,delta=1
    84                           	psect	text72,global,reloc=2,class=CODE,delta=1
    85                           	psect	text73,global,reloc=2,class=CODE,delta=1
    86                           	psect	text74,global,reloc=2,class=CODE,delta=1
    87                           	psect	text75,global,reloc=2,class=CODE,delta=1
    88                           	psect	text76,global,reloc=2,class=CODE,delta=1
    89                           	psect	text77,global,reloc=2,class=CODE,delta=1
    90                           	psect	text78,global,reloc=2,class=CODE,delta=1
    91                           	psect	text79,global,reloc=2,class=CODE,delta=1
    92                           	psect	text80,global,reloc=2,class=CODE,delta=1
    93                           	psect	text81,global,reloc=2,class=CODE,delta=1
    94                           	psect	ivt0x8,global,reloc=2,class=CODE,delta=1,noexec,keep,optim=
    95                           	psect	intsave_regs,global,class=BIGRAM,space=1,delta=1,noexec
    96                           	psect	text82,global,reloc=2,class=CODE,delta=1
    97                           	psect	rparam,global,class=COMRAM,space=1,delta=1,noexec
    98                           	psect	idloc,global,abs,ovrld,class=IDLOC,space=5,delta=1,noexec
    99                           	psect	config,global,abs,ovrld,class=CONFIG,space=4,delta=1,noexec
   100   000000                     
   101                           ; Version 2.40
   102                           ; Generated 17/11/2021 GMT
   103                           ; 
   104                           ; Copyright © 2021, Microchip Technology Inc. and its subsidiaries ("Microchip")
   105                           ; All rights reserved.
   106                           ; 
   107                           ; This software is developed by Microchip Technology Inc. and its subsidiaries ("Microch
      +                          ip").
   108                           ; 
   109                           ; Redistribution and use in source and binary forms, with or without modification, are
   110                           ; permitted provided that the following conditions are met:
   111                           ; 
   112                           ;     1. Redistributions of source code must retain the above copyright notice, this lis
      +                          t of
   113                           ;        conditions and the following disclaimer.
   114                           ; 
   115                           ;     2. Redistributions in binary form must reproduce the above copyright notice, this 
      +                          list
   116                           ;        of conditions and the following disclaimer in the documentation and/or other
   117                           ;        materials provided with the distribution. Publication is not required when
   118                           ;        this file is used in an embedded application.
   119                           ; 
   120                           ;     3. Microchip's name may not be used to endorse or promote products derived from th
      +                          is
   121                           ;        software without specific prior written permission.
   122                           ; 
   123                           ; THIS SOFTWARE IS PROVIDED BY MICROCHIP "AS IS" AND ANY EXPRESS OR IMPLIED WARRANTIES,
   124                           ; INCLUDING, BUT NOT LIMITED TO, THE IMPLIED WARRANTIES OF MERCHANTABILITY AND FITNESS F
      +                          OR
   125                           ; PURPOSE ARE DISCLAIMED.  IN NO EVENT SHALL MICROCHIP BE LIABLE FOR ANY DIRECT, INDIREC
      +                          T,
   126                           ; INCIDENTAL, SPECIAL, EXEMPLARY, OR CONSEQUENTIAL DAMAGES (INCLUDING BUT NOT LIMITED TO
   127                           ; PROCUREMENT OF SUBSTITUTE GOODS OR SERVICES; LOSS OF USE, DATA OR PROFITS; OR BUSINESS
   128                           ; INTERRUPTION) HOWSOEVER CAUSED AND ON ANY THEORY OF LIABILITY, WHETHER IN CONTRACT, ST
      +                          RICT
   129                           ; LIABILITY, OR TORT (INCLUDING NEGLIGENCE OR OTHERWISE) ARISING IN ANY WAY OUT OF THE U
      +                          SE OF
   130                           ; THIS SOFTWARE, EVEN IF ADVISED OF THE POSSIBILITY OF SUCH DAMAGE.
   131                           ; 
   132                           ; 
   133                           ; Code-generator required, PIC18F25K42 Definitions
   134                           ; 
   135                           ; SFR Addresses
   136   000000                     
   137 ;; Function _UART2_DefaultFramingErrorHandler is unused but had its address taken
   138   000000                     
   139 ;; Function _UART2_DefaultOverrunErrorHandler is unused but had its address taken
   140   000000                     
   141 ;; Function _UART2_DefaultErrorHandler is unused but had its address taken
   142   000000                     
   143                           	psect	idataCOMRAM
   144   001C40                     __pidataCOMRAM:
   145                           	callstack 0
   146                           
   147                           ;initializer for _notenum
   148   001C40  FF                 	db	255
   149                           
   150                           	psect	smallconst
   151   000800                     __psmallconst:
   152                           	callstack 0
   153   000800  00                 	db	0
   154   000801                     _spi1_configuration:
   155                           	callstack 0
   156   000801  02                 	db	2
   157   000802  20                 	db	32
   158   000803  02                 	db	2
   159   000804  00                 	db	0
   160   000805  00                 	db	0
   161   000806                     __end_of_spi1_configuration:
   162                           	callstack 0
   163   000806                     _sensval:
   164                           	callstack 0
   165   000806  0019               	dw	25
   166   000808                     __end_of_sensval:
   167                           	callstack 0
   168   000808  0018               	dw	24
   169   00080A                     __end_of_notebits:
   170                           	callstack 0
   171   00080A                     _cashint:
   172                           	callstack 0
   173   00080A  000C               	dw	12
   174   00080C                     __end_of_cashint:
   175                           	callstack 0
   176   00080C                     _vendstore:
   177                           	callstack 0
   178   00080C  0004               	dw	4
   179   00080E                     __end_of_vendstore:
   180                           	callstack 0
   181   00080E                     _cashinv:
   182                           	callstack 0
   183   00080E  0002               	dw	2
   184   000810                     __end_of_cashinv:
   185                           	callstack 0
   186   000810  0002               	dw	2
   187   000812                     __end_of_venderrors:
   188                           	callstack 0
   189   000812  0001               	dw	1
   190   000814                     __end_of_pricestore:
   191                           	callstack 0
   192   000814  0000               	dw	0
   193   000816                     __end_of_credmem:
   194                           	callstack 0
   195   000816                     _secondadd:
   196                           	callstack 0
   197   000816  1E46               	dw	7750
   198   000818                     __end_of_secondadd:
   199                           	callstack 0
   200   000818                     _second_5:
   201                           	callstack 0
   202   000818  0F23               	dw	3875
   203   00081A                     __end_of_second_5:
   204                           	callstack 0
   205   00081A                     _second1:
   206                           	callstack 0
   207   00081A  F0DD               	dw	61661
   208   00081C                     __end_of_second1:
   209                           	callstack 0
   210   00081C                     _theft_attempt:
   211                           	callstack 0
   212   00081C  0C                 	db	12
   213   00081D                     __end_of_theft_attempt:
   214                           	callstack 0
   215   00081D                     _note_rejected:
   216                           	callstack 0
   217   00081D  0B                 	db	11
   218   00081E                     __end_of_note_rejected:
   219                           	callstack 0
   220   00081E                     _invalid_escrow:
   221                           	callstack 0
   222   00081E  0A                 	db	10
   223   00081F                     __end_of_invalid_escrow:
   224                           	callstack 0
   225   00081F                     _acept_disabled:
   226                           	callstack 0
   227   00081F  09                 	db	9
   228   000820                     __end_of_acept_disabled:
   229                           	callstack 0
   230   000820                     _cashbox_err:
   231                           	callstack 0
   232   000820  08                 	db	8
   233   000821                     __end_of_cashbox_err:
   234                           	callstack 0
   235   000821                     _note_removed:
   236                           	callstack 0
   237   000821  07                 	db	7
   238   000822                     __end_of_note_removed:
   239                           	callstack 0
   240   000822  06                 	db	6
   241   000823                     __end_of_just_reset:
   242                           	callstack 0
   243   000823                     _jammed_err:
   244                           	callstack 0
   245   000823  05                 	db	5
   246   000824                     __end_of_jammed_err:
   247                           	callstack 0
   248   000824                     _rom_error:
   249                           	callstack 0
   250   000824  04                 	db	4
   251   000825                     __end_of_rom_error:
   252                           	callstack 0
   253   000825                     _just_busy:
   254                           	callstack 0
   255   000825  03                 	db	3
   256   000826                     __end_of_just_busy:
   257                           	callstack 0
   258   000826                     _sens_error:
   259                           	callstack 0
   260   000826  02                 	db	2
   261   000827                     __end_of_sens_error:
   262                           	callstack 0
   263   000827                     _motr_error:
   264                           	callstack 0
   265   000827  01                 	db	1
   266   000828                     __end_of_motr_error:
   267                           	callstack 0
   268   000828                     _note_features:
   269                           	callstack 0
   270   000828  33                 	db	51
   271   000829                     __end_of_note_features:
   272                           	callstack 0
   273   000829                     _note_stacker:
   274                           	callstack 0
   275   000829  36                 	db	54
   276   00082A                     __end_of_note_stacker:
   277                           	callstack 0
   278   00082A                     _note_escrow:
   279                           	callstack 0
   280   00082A  35                 	db	53
   281   00082B                     __end_of_note_escrow:
   282                           	callstack 0
   283   00082B  34                 	db	52
   284   00082C                     __end_of_note_type:
   285                           	callstack 0
   286   00082C  33                 	db	51
   287   00082D                     __end_of_note_poll:
   288                           	callstack 0
   289   00082D  32                 	db	50
   290   00082E                     __end_of_note_security:
   291                           	callstack 0
   292   00082E                     _note_setup:
   293                           	callstack 0
   294   00082E  31                 	db	49
   295   00082F                     __end_of_note_setup:
   296                           	callstack 0
   297   00082F  30                 	db	48
   298   000830                     __end_of_note_reset:
   299                           	callstack 0
   300   000830  0003               	dw	3
   301   000832                     __end_of_mototime:
   302                           	callstack 0
   303   000000                     _T2CON	set	16300
   304   000000                     _T2TMR	set	16298
   305   000000                     _T2PR	set	16299
   306   000000                     _T2RST	set	16303
   307   000000                     _T2HLT	set	16301
   308   000000                     _T2CLKCON	set	16302
   309   000000                     _T0CON0	set	16312
   310   000000                     _TMR0L	set	16310
   311   000000                     _TMR0H	set	16311
   312   000000                     _T0CON1	set	16313
   313   000000                     _PIR3bits	set	14755
   314   000000                     _T5CON	set	16282
   315   000000                     _T3CON	set	16294
   316   000000                     _T3CLK	set	16297
   317   000000                     _T3GATE	set	16296
   318   000000                     _T1CON	set	16306
   319   000000                     _T1CLK	set	16309
   320   000000                     _T1GATE	set	16308
   321   000000                     _OSCTUNE	set	14814
   322   000000                     _OSCFRQ	set	14815
   323   000000                     _U2ERRIRbits	set	15841
   324   000000                     _U2CON0bits	set	15834
   325   000000                     _U1ERRIRbits	set	15865
   326   000000                     _U1CON0bits	set	15858
   327   000000                     _SPI1CON0bits	set	15636
   328   000000                     _CM1CON0bits	set	16060
   329   000000                     _LATBbits	set	16315
   330   000000                     _LATCbits	set	16316
   331   000000                     _LATAbits	set	16314
   332   000000                     _PR2	set	16299
   333   000000                     _TMR2	set	16298
   334   000000                     _T2CONbits	set	16300
   335   000000                     _T2RSTbits	set	16303
   336   000000                     _T2HLTbits	set	16301
   337   000000                     _T0CON0bits	set	16312
   338   000000                     _TRISBbits	set	16323
   339   000000                     _T5GCONbits	set	16283
   340   000000                     _T5CONbits	set	16282
   341   000000                     _T3GCONbits	set	16295
   342   000000                     _T3CONbits	set	16294
   343   000000                     _T1GCONbits	set	16307
   344   000000                     _T1CONbits	set	16306
   345   000000                     _PIE4bits	set	14740
   346   000000                     _PIR0bits	set	14752
   347   000000                     _NVMADRL	set	14816
   348   000000                     _NVMCON1bits	set	14821
   349   000000                     _RB1PPS	set	14857
   350   000000                     _ANSELA	set	14912
   351   000000                     _ANSELB	set	14928
   352   000000                     _ANSELC	set	14944
   353   000000                     _DAC1CON1	set	16028
   354   000000                     _DAC1CON0	set	16030
   355   000000                     _CM1CON0	set	16060
   356   000000                     _LATA	set	16314
   357   000000                     _TRISA	set	16322
   358   000000                     _LATC	set	16316
   359   000000                     _LATB	set	16315
   360   000000                     _PORTAbits	set	16330
   361   000000                     _INTCON0bits	set	16338
   362   000000                     _TABLAT	set	16373
   363   000000                     _TBLPTRL	set	16374
   364   000000                     _TBLPTRH	set	16375
   365   000000                     _TBLPTRU	set	16376
   366   000000                     _TRISC	set	16324
   367   000000                     _TRISB	set	16323
   368   000000                     _INLVLC	set	14948
   369   000000                     _SLRCONC	set	14947
   370   000000                     _ODCONC	set	14946
   371   000000                     _RC3I2C	set	14954
   372   000000                     _WPUC	set	14945
   373   000000                     _WPUE	set	14977
   374   000000                     _INLVLB	set	14932
   375   000000                     _SLRCONB	set	14931
   376   000000                     _ODCONB	set	14930
   377   000000                     _RB1I2C	set	14938
   378   000000                     _WPUB	set	14929
   379   000000                     _INLVLA	set	14916
   380   000000                     _SLRCONA	set	14915
   381   000000                     _ODCONA	set	14914
   382   000000                     _WPUA	set	14913
   383   000000                     _INLVLE	set	14980
   384   000000                     _RB2I2C	set	14939
   385   000000                     _RC4I2C	set	14955
   386   000000                     _SPI1SCKPPS	set	15070
   387   000000                     _U2RXPPS	set	15080
   388   000000                     _SPI1RXB	set	15632
   389   000000                     _SPI1TXB	set	15633
   390   000000                     _SPI1TCNTL	set	15634
   391   000000                     _SPI1CON0	set	15636
   392   000000                     _SPI1SDIPPS	set	15071
   393   000000                     _U1RXPPS	set	15077
   394   000000                     _RB4PPS	set	14860
   395   000000                     _RB5PPS	set	14861
   396   000000                     _RC1PPS	set	14865
   397   000000                     _CMOUT	set	16064
   398   000000                     _TMR5L	set	16280
   399   000000                     _TMR5H	set	16281
   400   000000                     _T5GCON	set	16283
   401   000000                     _TMR3L	set	16292
   402   000000                     _TMR3H	set	16293
   403   000000                     _T3GCON	set	16295
   404   000000                     _TMR1L	set	16304
   405   000000                     _TMR1H	set	16305
   406   000000                     _T1GCON	set	16307
   407   000000                     _CM1PCH	set	16063
   408   000000                     _CM1NCH	set	16062
   409   000000                     _CM1CON1	set	16061
   410   000000                     _NVMCON2	set	14822
   411   000000                     _PCON0	set	16368
   412   000000                     _NVMDAT	set	14819
   413   000000                     _PIR2bits	set	14754
   414   000000                     _PIR4bits	set	14756
   415   000000                     _PMD0	set	14784
   416   000000                     _OSCCON1	set	14809
   417   000000                     _OSCCON3	set	14811
   418   000000                     _OSCEN	set	14813
   419   000000                     _PMD7	set	14791
   420   000000                     _PMD6	set	14790
   421   000000                     _PMD5	set	14789
   422   000000                     _PMD4	set	14788
   423   000000                     _PMD3	set	14787
   424   000000                     _PMD2	set	14786
   425   000000                     _PMD1	set	14785
   426   000000                     _PIR6bits	set	14758
   427   000000                     _PIR8bits	set	14760
   428   000000                     _T5CLK	set	16285
   429   000000                     _T5GATE	set	16284
   430   000000                     _SPI1BAUD	set	15641
   431   000000                     _SPI1CLK	set	15644
   432   000000                     _SPI1CON2	set	15638
   433   000000                     _SPI1CON1	set	15637
   434   000000                     _U2RXB	set	15824
   435   000000                     _U2P1L	set	15828
   436   000000                     _U1RXB	set	15848
   437   000000                     _U1P1L	set	15852
   438   000000                     _U1ERRIE	set	15866
   439   000000                     _U1ERRIR	set	15865
   440   000000                     _U1UIR	set	15864
   441   000000                     _U1FIFO	set	15863
   442   000000                     _U1BRGH	set	15862
   443   000000                     _U1BRGL	set	15861
   444   000000                     _U1CON2	set	15860
   445   000000                     _U1CON1	set	15859
   446   000000                     _U1CON0	set	15858
   447   000000                     _U1P3H	set	15857
   448   000000                     _U1P3L	set	15856
   449   000000                     _U1P2H	set	15855
   450   000000                     _U1P2L	set	15854
   451   000000                     _U1P1H	set	15853
   452   000000                     _U1TXB	set	15850
   453   000000                     _U2P2L	set	15830
   454   000000                     _U2P3L	set	15832
   455   000000                     _U2CON0	set	15834
   456   000000                     _U2ERRIE	set	15842
   457   000000                     _U2ERRIR	set	15841
   458   000000                     _U2UIR	set	15840
   459   000000                     _U2FIFO	set	15839
   460   000000                     _U2BRGH	set	15838
   461   000000                     _U2BRGL	set	15837
   462   000000                     _U2CON2	set	15836
   463   000000                     _U2CON1	set	15835
   464   000000                     _U2TXB	set	15826
   465   000000                     _PCON1bits	set	16369
   466   000832  00                 	db	0	; dummy byte at the end
   467   000000                     
   468                           ; #config settings
   469                           
   470                           	psect	cinit
   471   0015F8                     __pcinit:
   472                           	callstack 0
   473   0015F8                     start_initialization:
   474                           	callstack 0
   475   0015F8                     __initialization:
   476                           	callstack 0
   477                           
   478                           ; Initialize objects allocated to COMRAM (1 bytes)
   479                           ; load TBLPTR registers with __pidataCOMRAM
   480   0015F8  0E40               	movlw	low __pidataCOMRAM
   481   0015FA  6EF6               	movwf	tblptrl,c
   482   0015FC  0E1C               	movlw	high __pidataCOMRAM
   483   0015FE  6EF7               	movwf	tblptrh,c
   484   001600  0E00               	movlw	low (__pidataCOMRAM shr (0+16))
   485   001602  6EF8               	movwf	tblptru,c
   486   001604  0009               	tblrd		*+	;fetch initializer
   487   001606  006F FFD4  F048    	movff	tablat,__pdataCOMRAM
   488                           
   489                           ; Clear objects allocated to BANK0 (33 bytes)
   490   00160C  EE00  F060         	lfsr	0,__pbssBANK0
   491   001610  0E21               	movlw	33
   492   001612                     clear_0:
   493   001612  6AEE               	clrf	postinc0,c
   494   001614  06E8               	decf	wreg,f,c
   495   001616  E1FD               	bnz	clear_0
   496                           
   497                           ; Clear objects allocated to COMRAM (41 bytes)
   498   001618  EE00  F001         	lfsr	0,__pbssCOMRAM
   499   00161C  0E29               	movlw	41
   500   00161E                     clear_1:
   501   00161E  6AEE               	clrf	postinc0,c
   502   001620  06E8               	decf	wreg,f,c
   503   001622  E1FD               	bnz	clear_1
   504                           
   505                           ;
   506                           ; Setup IVTBASE
   507                           ;
   508   001624  0E08               	movlw	(ivt0x8_base shr 0)& (0+255)
   509   001626  6ED5               	movwf	213,c
   510   001628  0E00               	movlw	(ivt0x8_base shr (0+8))& (0+255)
   511   00162A  6ED6               	movwf	214,c
   512   00162C  0E00               	movlw	(ivt0x8_base shr (0+16))& (0+255)
   513   00162E  6ED7               	movwf	215,c
   514   001630                     end_of_initialization:
   515                           	callstack 0
   516   001630                     __end_of__initialization:
   517                           	callstack 0
   518   001630  0E00               	movlw	low (__Lmediumconst shr (0+16))
   519   001632  6EF8               	movwf	tblptru,c
   520   001634  0100               	movlb	0
   521   001636  EF1A  F004         	goto	_main	;jump to C main() function
   522                           
   523                           	psect	bssCOMRAM
   524   000001                     __pbssCOMRAM:
   525                           	callstack 0
   526   000001                     _venflags:
   527                           	callstack 0
   528   000001                     	ds	2
   529   000003                     _dbcount:
   530                           	callstack 0
   531   000003                     	ds	2
   532   000005                     _TMR2_InterruptHandler:
   533                           	callstack 0
   534   000005                     	ds	2
   535   000007                     _UART2_ErrorHandler:
   536                           	callstack 0
   537   000007                     	ds	2
   538   000009                     _UART2_OverrunErrorHandler:
   539                           	callstack 0
   540   000009                     	ds	2
   541   00000B                     _UART2_FramingErrorHandler:
   542                           	callstack 0
   543   00000B                     	ds	2
   544   00000D                     _UART1_ErrorHandler:
   545                           	callstack 0
   546   00000D                     	ds	2
   547   00000F                     _UART1_OverrunErrorHandler:
   548                           	callstack 0
   549   00000F                     	ds	2
   550   000011                     _UART1_FramingErrorHandler:
   551                           	callstack 0
   552   000011                     	ds	2
   553   000013                     _timer5ReloadVal:
   554                           	callstack 0
   555   000013                     	ds	2
   556   000015                     _timer3ReloadVal:
   557                           	callstack 0
   558   000015                     	ds	2
   559   000017                     _timer1ReloadVal:
   560                           	callstack 0
   561   000017                     	ds	2
   562   000019                     _mdbtxbyte:
   563                           	callstack 0
   564   000019                     	ds	1
   565   00001A                     _errorflags:
   566                           	callstack 0
   567   00001A                     	ds	1
   568   00001B                     _noteen_byte:
   569                           	callstack 0
   570   00001B                     	ds	1
   571   00001C                     _noteen:
   572                           	callstack 0
   573   00001C                     	ds	1
   574   00001D                     _mdbflags:
   575                           	callstack 0
   576   00001D                     	ds	1
   577   00001E                     _chkbyte:
   578                           	callstack 0
   579   00001E                     	ds	1
   580   00001F                     _notebyte:
   581                           	callstack 0
   582   00001F                     	ds	1
   583   000020                     _mcount:
   584                           	callstack 0
   585   000020                     	ds	1
   586   000021                     _slvadd:
   587                           	callstack 0
   588   000021                     	ds	1
   589   000022                     _vendprice:
   590                           	callstack 0
   591   000022                     	ds	1
   592   000023                     _buttons:
   593                           	callstack 0
   594   000023                     	ds	1
   595   000024                     _cash:
   596                           	callstack 0
   597   000024                     	ds	1
   598   000025                     _credit:
   599                           	callstack 0
   600   000025                     	ds	1
   601   000026                     _uart2RxLastError:
   602                           	callstack 0
   603   000026                     	ds	1
   604   000027                     _uart1RxLastError:
   605                           	callstack 0
   606   000027                     	ds	1
   607   000028                     _timeout:
   608                           	callstack 0
   609   000028                     	ds	2
   610                           
   611                           	psect	dataCOMRAM
   612   000048                     __pdataCOMRAM:
   613                           	callstack 0
   614   000048                     _notenum:
   615                           	callstack 0
   616   000048                     	ds	1
   617                           
   618                           	psect	bssBANK0
   619   000060                     __pbssBANK0:
   620                           	callstack 0
   621   000060                     _mdbdata:
   622                           	callstack 0
   623   000060                     	ds	33
   624                           
   625                           	psect	cstackCOMRAM
   626   00002A                     __pcstackCOMRAM:
   627                           	callstack 0
   628   00002A                     i2DATAEE_WriteByte@bData:
   629                           	callstack 0
   630   00002A                     i2DATAEE_ReadByte@bAdd:
   631                           	callstack 0
   632   00002A                     i2UART1_Write@txData:
   633                           	callstack 0
   634   00002A                     i2UART1_SetAddresstoTransmit@txAddress:
   635                           	callstack 0
   636   00002A                     i2init_mdbdata@initdata:
   637                           	callstack 0
   638   00002A                     i2TMR2_SetInterruptHandler@InterruptHandler:
   639                           	callstack 0
   640                           
   641                           ; 2 bytes @ 0x0
   642   00002A                     	ds	1
   643   00002B                     i2DATAEE_WriteByte@bAdd:
   644                           	callstack 0
   645   00002B                     i2init_mdbdata@i:
   646                           	callstack 0
   647   00002B                     i2mdb_transmit@txbyte:
   648                           	callstack 0
   649                           
   650                           ; 1 bytes @ 0x1
   651   00002B                     	ds	1
   652   00002C                     i2DATAEE_WriteByte@GIEBitValue:
   653                           	callstack 0
   654   00002C                     i2mdb_comm@mcount:
   655                           	callstack 0
   656                           
   657                           ; 1 bytes @ 0x2
   658   00002C                     	ds	1
   659   00002D                     i2credit_add@credit:
   660                           	callstack 0
   661   00002D                     i2mdb_comm@slvadd:
   662                           	callstack 0
   663                           
   664                           ; 1 bytes @ 0x3
   665   00002D                     	ds	1
   666   00002E                     i2mdb_comm@i:
   667                           	callstack 0
   668                           
   669                           ; 1 bytes @ 0x4
   670   00002E                     	ds	1
   671   00002F                     ??_mdb_poll:
   672   00002F                     
   673                           ; 1 bytes @ 0x5
   674   00002F                     	ds	1
   675   000030                     i2mdb_reset@i_2642:
   676                           	callstack 0
   677                           
   678                           ; 1 bytes @ 0x6
   679   000030                     	ds	1
   680   000031                     ??i2_mdb_init:
   681                           
   682                           ; 1 bytes @ 0x7
   683   000031                     	ds	2
   684   000033                     ??_poll_mdb:
   685                           
   686                           ; 1 bytes @ 0x9
   687   000033                     	ds	2
   688   000035                     ??_INTERRUPT_InterruptManager:
   689                           
   690                           ; 1 bytes @ 0xB
   691   000035                     	ds	2
   692   000037                     ??_TMR3_Initialize:
   693   000037                     ??_TMR5_Initialize:
   694   000037                     ??_TMR1_Initialize:
   695   000037                     ??_switch_read:
   696   000037                     ?_TMR1_ReadTimer:
   697                           	callstack 0
   698   000037                     DATAEE_WriteByte@bData:
   699                           	callstack 0
   700   000037                     DATAEE_ReadByte@bAdd:
   701                           	callstack 0
   702   000037                     UART1_Write@txData:
   703                           	callstack 0
   704   000037                     UART1_SetAddresstoTransmit@txAddress:
   705                           	callstack 0
   706   000037                     init_mdbdata@initdata:
   707                           	callstack 0
   708   000037                     TMR1_WriteTimer@timerVal:
   709                           	callstack 0
   710   000037                     UART1_SetFramingErrorHandler@interruptHandler:
   711                           	callstack 0
   712   000037                     UART1_SetOverrunErrorHandler@interruptHandler:
   713                           	callstack 0
   714   000037                     UART1_SetErrorHandler@interruptHandler:
   715                           	callstack 0
   716   000037                     UART2_SetFramingErrorHandler@interruptHandler:
   717                           	callstack 0
   718   000037                     UART2_SetOverrunErrorHandler@interruptHandler:
   719                           	callstack 0
   720   000037                     UART2_SetErrorHandler@interruptHandler:
   721                           	callstack 0
   722   000037                     TMR2_SetInterruptHandler@InterruptHandler:
   723                           	callstack 0
   724                           
   725                           ; 2 bytes @ 0xD
   726   000037                     	ds	1
   727   000038                     ??_vend_init:
   728   000038                     DATAEE_WriteByte@bAdd:
   729                           	callstack 0
   730   000038                     init_mdbdata@i:
   731                           	callstack 0
   732   000038                     mdb_transmit@txbyte:
   733                           	callstack 0
   734                           
   735                           ; 1 bytes @ 0xE
   736   000038                     	ds	1
   737   000039                     ??_button_flash:
   738   000039                     ??_TMR1_ReadTimer:
   739   000039                     DATAEE_WriteByte@GIEBitValue:
   740                           	callstack 0
   741   000039                     mdb_comm@mcount:
   742                           	callstack 0
   743                           
   744                           ; 1 bytes @ 0xF
   745   000039                     	ds	1
   746   00003A                     credit_add@credit:
   747                           	callstack 0
   748   00003A                     credit_subtract@credit:
   749                           	callstack 0
   750   00003A                     mdb_comm@slvadd:
   751                           	callstack 0
   752   00003A                     vend_init@timeval:
   753                           	callstack 0
   754                           
   755                           ; 2 bytes @ 0x10
   756   00003A                     	ds	1
   757   00003B                     ??_coin_in:
   758   00003B                     mdb_comm@i:
   759                           	callstack 0
   760   00003B                     TMR1_ReadTimer@readVal:
   761                           	callstack 0
   762                           
   763                           ; 2 bytes @ 0x11
   764   00003B                     	ds	1
   765   00003C                     
   766                           ; 1 bytes @ 0x12
   767   00003C                     	ds	1
   768   00003D                     TMR1_ReadTimer@readValHigh:
   769                           	callstack 0
   770   00003D                     mdb_reset@i_2642:
   771                           	callstack 0
   772                           
   773                           ; 1 bytes @ 0x13
   774   00003D                     	ds	1
   775   00003E                     ??_mdb_init:
   776   00003E                     TMR1_ReadTimer@readValLow:
   777                           	callstack 0
   778                           
   779                           ; 1 bytes @ 0x14
   780   00003E                     	ds	1
   781   00003F                     Set_Timeout@readValLow:
   782                           	callstack 0
   783                           
   784                           ; 1 bytes @ 0x15
   785   00003F                     	ds	1
   786   000040                     Set_Timeout@readValHigh:
   787                           	callstack 0
   788                           
   789                           ; 1 bytes @ 0x16
   790   000040                     	ds	1
   791   000041                     Set_Timeout@timeval:
   792                           	callstack 0
   793                           
   794                           ; 2 bytes @ 0x17
   795   000041                     	ds	2
   796   000043                     ??_enter_service:
   797                           
   798                           ; 1 bytes @ 0x19
   799   000043                     	ds	2
   800   000045                     ??_main:
   801                           
   802                           ; 1 bytes @ 0x1B
   803   000045                     	ds	3
   804                           
   805 ;;
   806 ;;Main: autosize = 0, tempsize = 3, incstack = 0, save=0
   807 ;;
   808 ;; *************** function _main *****************
   809 ;; Defined at:
   810 ;;		line 59 in file "main.c"
   811 ;; Parameters:    Size  Location     Type
   812 ;;		None
   813 ;; Auto vars:     Size  Location     Type
   814 ;;		None
   815 ;; Return value:  Size  Location     Type
   816 ;;                  1    wreg      void 
   817 ;; Registers used:
   818 ;;		wreg, fsr2l, fsr2h, status,2, status,0, pcl, pclath, pclatu, tosl, cstack
   819 ;; Tracked objects:
   820 ;;		On entry : 0/0
   821 ;;		On exit  : 0/0
   822 ;;		Unchanged: 0/0
   823 ;; Data sizes:     COMRAM   BANK0   BANK1   BANK2   BANK3   BANK4   BANK5   BANK6   BANK7
   824 ;;      Params:         0       0       0       0       0       0       0       0       0
   825 ;;      Locals:         0       0       0       0       0       0       0       0       0
   826 ;;      Temps:          3       0       0       0       0       0       0       0       0
   827 ;;      Totals:         3       0       0       0       0       0       0       0       0
   828 ;;Total ram usage:        3 bytes
   829 ;; Hardware stack levels required when called: 14
   830 ;; This function calls:
   831 ;;		_CMP1_GetOutputStatus
   832 ;;		_DATAEE_WriteByte
   833 ;;		_SYSTEM_Initialize
   834 ;;		_TMR2_SetInterruptHandler
   835 ;;		_button_flash
   836 ;;		_coin_in
   837 ;;		_credit_check
   838 ;;		_dispense
   839 ;;		_enter_service
   840 ;;		_mdb_init
   841 ;;		_vend_init
   842 ;; This function is called by:
   843 ;;		Startup code after reset
   844 ;; This function uses a non-reentrant model
   845 ;;
   846                           
   847                           	psect	text0
   848   000834                     __ptext0:
   849                           	callstack 0
   850   000834                     _main:
   851                           	callstack 17
   852   000834                     
   853                           ;main.c: 63:     if((PCON0 == 0x3C | 0x3D) & PCON1bits.MEMV)
   854   000834  0E3C               	movlw	60
   855   000836  18F0               	xorwf	240,w,c	;volatile
   856   000838  B4D8               	btfsc	status,2,c
   857   00083A  EF21  F004         	goto	u2161
   858   00083E  EF24  F004         	goto	u2160
   859   000842                     u2161:
   860   000842  0E01               	movlw	1
   861   000844  EF25  F004         	goto	u2170
   862   000848                     u2160:
   863   000848  0E00               	movlw	0
   864   00084A                     u2170:
   865   00084A  6E45               	movwf	??_main^0,c
   866   00084C  6A46               	clrf	(??_main+1)^0,c
   867   00084E  0E3D               	movlw	61
   868   000850  1245               	iorwf	??_main^0,f,c
   869   000852  0E00               	movlw	0
   870   000854  1246               	iorwf	(??_main+1)^0,f,c
   871   000856  B2F1               	btfsc	241,1,c	;volatile
   872   000858  EF30  F004         	goto	u2181
   873   00085C  EF34  F004         	goto	u2180
   874   000860                     u2181:
   875   000860  6A47               	clrf	(??_main+2)^0,c
   876   000862  2A47               	incf	(??_main+2)^0,f,c
   877   000864  EF35  F004         	goto	u2188
   878   000868                     u2180:
   879   000868  6A47               	clrf	(??_main+2)^0,c
   880   00086A                     u2188:
   881   00086A  5047               	movf	(??_main+2)^0,w,c
   882   00086C  1645               	andwf	??_main^0,f,c
   883   00086E  0E00               	movlw	0
   884   000870  1646               	andwf	(??_main+1)^0,f,c
   885   000872  5045               	movf	??_main^0,w,c
   886   000874  1046               	iorwf	(??_main+1)^0,w,c
   887   000876  B4D8               	btfsc	status,2,c
   888   000878  EF40  F004         	goto	u2191
   889   00087C  EF42  F004         	goto	u2190
   890   000880                     u2191:
   891   000880  EF4C  F004         	goto	l4316
   892   000884                     u2190:
   893   000884  0E00               	movlw	0
   894   000886  6E37               	movwf	DATAEE_WriteByte@bData^0,c
   895   000888  0E02               	movlw	2
   896   00088A  ECB6  F00A         	call	_DATAEE_WriteByte
   897   00088E  0E00               	movlw	0
   898   000890  6E37               	movwf	DATAEE_WriteByte@bData^0,c
   899   000892  0E00               	movlw	0
   900   000894  ECB6  F00A         	call	_DATAEE_WriteByte
   901   000898                     l4316:
   902                           
   903                           ;main.c: 68:     SYSTEM_Initialize();
   904   000898  EC79  F00B         	call	_SYSTEM_Initialize	;wreg free
   905   00089C                     
   906                           ;main.c: 70:     PIE4bits.TMR2IE = 0;
   907   00089C  0139               	movlb	57	; () banked
   908   00089E  9594               	bcf	148,2,b	;volatile
   909   0008A0                     
   910                           ; BSR set to: 57
   911                           ;main.c: 71:     TMR2_SetInterruptHandler(InterruptTMR2);
   912   0008A0  0E70               	movlw	low _InterruptTMR2
   913   0008A2  6E37               	movwf	TMR2_SetInterruptHandler@InterruptHandler^0,c
   914   0008A4  0E1B               	movlw	high _InterruptTMR2
   915   0008A6  6E38               	movwf	(TMR2_SetInterruptHandler@InterruptHandler+1)^0,c
   916   0008A8  EC07  F00E         	call	_TMR2_SetInterruptHandler	;wreg free
   917   0008AC  82BA               	bsf	186,1,c	;volatile
   918   0008AE  8CBC               	bsf	188,6,c	;volatile
   919   0008B0                     
   920                           ;main.c: 74:     vend_init();
   921   0008B0  ECAD  F008         	call	_vend_init	;wreg free
   922   0008B4  8ABC               	bsf	188,5,c	;volatile
   923   0008B6  9CBC               	bcf	188,6,c	;volatile
   924   0008B8  92BA               	bcf	186,1,c	;volatile
   925   0008BA                     
   926                           ;main.c: 78:     mdb_init();
   927   0008BA  EC1D  F00B         	call	_mdb_init	;wreg free
   928   0008BE  9ABC               	bcf	188,5,c	;volatile
   929   0008C0                     
   930                           ;main.c: 83:     PIE4bits.TMR2IE = 1;
   931   0008C0  0139               	movlb	57	; () banked
   932   0008C2  8594               	bsf	148,2,b	;volatile
   933   0008C4                     l4340:
   934                           
   935                           ;main.c: 96:     {;main.c: 97:         if(!PORTAbits.RA3)
   936   0008C4  B6CA               	btfsc	202,3,c	;volatile
   937   0008C6  EF67  F004         	goto	u2201
   938   0008CA  EF69  F004         	goto	u2200
   939   0008CE                     u2201:
   940   0008CE  EF89  F004         	goto	l4350
   941   0008D2                     u2200:
   942   0008D2                     
   943                           ;main.c: 98:         {;main.c: 99:             enter_service();
   944   0008D2  EC17  F007         	call	_enter_service	;wreg free
   945   0008D6  EF89  F004         	goto	l4350
   946   0008DA                     l953:
   947   0008DA  9ABC               	bcf	188,5,c	;volatile
   948   0008DC  8CBC               	bsf	188,6,c	;volatile
   949   0008DE                     
   950                           ;main.c: 106:             _delay((unsigned long)((100)*(12000000/4000.0)));
   951   0008DE  0E02               	movlw	2
   952   0008E0  6E46               	movwf	(??_main+1)^0,c
   953   0008E2  0E86               	movlw	134
   954   0008E4  6E45               	movwf	??_main^0,c
   955   0008E6  0E99               	movlw	153
   956   0008E8                     u2337:
   957   0008E8  2EE8               	decfsz	wreg,f,c
   958   0008EA  D7FE               	bra	u2337
   959   0008EC  2E45               	decfsz	??_main^0,f,c
   960   0008EE  D7FC               	bra	u2337
   961   0008F0  2E46               	decfsz	(??_main+1)^0,f,c
   962   0008F2  D7FA               	bra	u2337
   963   0008F4  F000               	nop	
   964   0008F6  8ABC               	bsf	188,5,c	;volatile
   965   0008F8  9CBC               	bcf	188,6,c	;volatile
   966   0008FA                     
   967                           ;main.c: 109:             _delay((unsigned long)((100)*(12000000/4000.0)));
   968   0008FA  0E02               	movlw	2
   969   0008FC  6E46               	movwf	(??_main+1)^0,c
   970   0008FE  0E86               	movlw	134
   971   000900  6E45               	movwf	??_main^0,c
   972   000902  0E99               	movlw	153
   973   000904                     u2347:
   974   000904  2EE8               	decfsz	wreg,f,c
   975   000906  D7FE               	bra	u2347
   976   000908  2E45               	decfsz	??_main^0,f,c
   977   00090A  D7FC               	bra	u2347
   978   00090C  2E46               	decfsz	(??_main+1)^0,f,c
   979   00090E  D7FA               	bra	u2347
   980   000910  F000               	nop	
   981   000912                     l4350:
   982                           
   983                           ;main.c: 102:         while(!CMP1_GetOutputStatus())
   984   000912  EC5B  F00D         	call	_CMP1_GetOutputStatus	;wreg free
   985   000916  0900               	iorlw	0
   986   000918  B4D8               	btfsc	status,2,c
   987   00091A  EF91  F004         	goto	u2211
   988   00091E  EF93  F004         	goto	u2210
   989   000922                     u2211:
   990   000922  EF6D  F004         	goto	l953
   991   000926                     u2210:
   992   000926                     
   993                           ;main.c: 112:         if(venflags.error)
   994   000926  A201               	btfss	_venflags^0,1,c
   995   000928  EF98  F004         	goto	u2221
   996   00092C  EF9A  F004         	goto	u2220
   997   000930                     u2221:
   998   000930  EF9D  F004         	goto	l966
   999   000934                     u2220:
  1000   000934  98BA               	bcf	186,4,c	;volatile
  1001   000936  EF9E  F004         	goto	l965
  1002   00093A                     l966:
  1003   00093A  88BA               	bsf	186,4,c	;volatile
  1004   00093C                     l965:
  1005                           
  1006                           ;main.c: 121:         if(!PORTAbits.RA5)
  1007   00093C  BACA               	btfsc	202,5,c	;volatile
  1008   00093E  EFA3  F004         	goto	u2231
  1009   000942  EFA5  F004         	goto	u2230
  1010   000946                     u2231:
  1011   000946  EFA7  F004         	goto	l4354
  1012   00094A                     u2230:
  1013   00094A                     
  1014                           ;main.c: 122:         {;main.c: 123:             coin_in();
  1015   00094A  EC8E  F00A         	call	_coin_in	;wreg free
  1016   00094E                     l4354:
  1017                           
  1018                           ;main.c: 126:         if(venflags.error)
  1019   00094E  A201               	btfss	_venflags^0,1,c
  1020   000950  EFAC  F004         	goto	u2241
  1021   000954  EFAE  F004         	goto	u2240
  1022   000958                     u2241:
  1023   000958  EFB0  F004         	goto	l969
  1024   00095C                     u2240:
  1025   00095C                     
  1026                           ;main.c: 127:         {;main.c: 128:             button_flash();
  1027   00095C  EC66  F00A         	call	_button_flash	;wreg free
  1028   000960                     l969:
  1029                           
  1030                           ;main.c: 131:         if(credit_check() >= vendprice)
  1031   000960  ECD8  F00D         	call	_credit_check	;wreg free
  1032   000964  6E45               	movwf	??_main^0,c
  1033   000966  5022               	movf	_vendprice^0,w,c	;volatile
  1034   000968  5C45               	subwf	??_main^0,w,c
  1035   00096A  A0D8               	btfss	status,0,c
  1036   00096C  EFBA  F004         	goto	u2251
  1037   000970  EFBC  F004         	goto	u2250
  1038   000974                     u2251:
  1039   000974  EFBF  F004         	goto	l970
  1040   000978                     u2250:
  1041   000978                     
  1042                           ;main.c: 132:         {;main.c: 133:             venflags.crednuff = 1;
  1043   000978  8402               	bsf	(_venflags+1)^0,2,c
  1044                           
  1045                           ;main.c: 134:         }
  1046   00097A  EFC0  F004         	goto	l971
  1047   00097E                     l970:
  1048                           
  1049                           ;main.c: 136:         {;main.c: 137:             venflags.crednuff = 0;
  1050   00097E  9402               	bcf	(_venflags+1)^0,2,c
  1051   000980                     l971:
  1052                           
  1053                           ;main.c: 140:         if(PIR8bits.TMR5IF)
  1054   000980  0139               	movlb	57	; () banked
  1055   000982  ADA8               	btfss	168,6,b	;volatile
  1056   000984  EFC6  F004         	goto	u2261
  1057   000988  EFC8  F004         	goto	u2260
  1058   00098C                     u2261:
  1059   00098C  EFC9  F004         	goto	l972
  1060   000990                     u2260:
  1061   000990                     
  1062                           ; BSR set to: 57
  1063                           ;main.c: 141:         {;main.c: 142:             venflags.t5time = 1;
  1064   000990  8602               	bsf	(_venflags+1)^0,3,c
  1065   000992                     l972:
  1066                           
  1067                           ; BSR set to: 57
  1068                           ;main.c: 145:         if(venflags.crednuff && venflags.t5time)
  1069   000992  A402               	btfss	(_venflags+1)^0,2,c
  1070   000994  EFCE  F004         	goto	u2271
  1071   000998  EFD0  F004         	goto	u2270
  1072   00099C                     u2271:
  1073   00099C  EF62  F004         	goto	l4340
  1074   0009A0                     u2270:
  1075   0009A0                     
  1076                           ; BSR set to: 57
  1077   0009A0  A602               	btfss	(_venflags+1)^0,3,c
  1078   0009A2  EFD5  F004         	goto	u2281
  1079   0009A6  EFD7  F004         	goto	u2280
  1080   0009AA                     u2281:
  1081   0009AA  EF62  F004         	goto	l4340
  1082   0009AE                     u2280:
  1083   0009AE                     
  1084                           ; BSR set to: 57
  1085                           ;main.c: 146:         {;main.c: 147:             if(!venflags.error)
  1086   0009AE  B201               	btfsc	_venflags^0,1,c
  1087   0009B0  EFDC  F004         	goto	u2291
  1088   0009B4  EFDE  F004         	goto	u2290
  1089   0009B8                     u2291:
  1090   0009B8  EFE0  F004         	goto	l974
  1091   0009BC                     u2290:
  1092   0009BC                     
  1093                           ; BSR set to: 57
  1094   0009BC  98BA               	bcf	186,4,c	;volatile
  1095   0009BE                     
  1096                           ; BSR set to: 57
  1097   0009BE  8CBC               	bsf	188,6,c	;volatile
  1098   0009C0                     l974:
  1099                           
  1100                           ; BSR set to: 57
  1101                           ;main.c: 152:             if(!PORTAbits.RA6 && !venflags.error)
  1102   0009C0  BCCA               	btfsc	202,6,c	;volatile
  1103   0009C2  EFE5  F004         	goto	u2301
  1104   0009C6  EFE7  F004         	goto	u2300
  1105   0009CA                     u2301:
  1106   0009CA  EF62  F004         	goto	l4340
  1107   0009CE                     u2300:
  1108   0009CE                     
  1109                           ; BSR set to: 57
  1110   0009CE  B201               	btfsc	_venflags^0,1,c
  1111   0009D0  EFEC  F004         	goto	u2311
  1112   0009D4  EFEE  F004         	goto	u2310
  1113   0009D8                     u2311:
  1114   0009D8  EF62  F004         	goto	l4340
  1115   0009DC                     u2310:
  1116   0009DC                     
  1117                           ; BSR set to: 57
  1118                           ;main.c: 153:             {;main.c: 154:                 dispense();
  1119   0009DC  EC73  F009         	call	_dispense	;wreg free
  1120   0009E0  EF62  F004         	goto	l4340
  1121   0009E4  EF0D  F000         	goto	start
  1122   0009E8                     __end_of_main:
  1123                           	callstack 0
  1124                           
  1125 ;; *************** function _vend_init *****************
  1126 ;; Defined at:
  1127 ;;		line 9 in file "vend.c"
  1128 ;; Parameters:    Size  Location     Type
  1129 ;;		None
  1130 ;; Auto vars:     Size  Location     Type
  1131 ;;  timeval         2   16[COMRAM] PTR unsigned char 
  1132 ;;		 -> timeout(2), 
  1133 ;; Return value:  Size  Location     Type
  1134 ;;                  1    wreg      void 
  1135 ;; Registers used:
  1136 ;;		wreg, fsr2l, fsr2h, status,2, status,0, cstack
  1137 ;; Tracked objects:
  1138 ;;		On entry : 0/0
  1139 ;;		On exit  : 0/0
  1140 ;;		Unchanged: 0/0
  1141 ;; Data sizes:     COMRAM   BANK0   BANK1   BANK2   BANK3   BANK4   BANK5   BANK6   BANK7
  1142 ;;      Params:         0       0       0       0       0       0       0       0       0
  1143 ;;      Locals:         2       0       0       0       0       0       0       0       0
  1144 ;;      Temps:          2       0       0       0       0       0       0       0       0
  1145 ;;      Totals:         4       0       0       0       0       0       0       0       0
  1146 ;;Total ram usage:        4 bytes
  1147 ;; Hardware stack levels used: 1
  1148 ;; Hardware stack levels required when called: 10
  1149 ;; This function calls:
  1150 ;;		_DATAEE_ReadByte
  1151 ;; This function is called by:
  1152 ;;		_main
  1153 ;; This function uses a non-reentrant model
  1154 ;;
  1155                           
  1156                           	psect	text1
  1157   00115A                     __ptext1:
  1158                           	callstack 0
  1159   00115A                     _vend_init:
  1160                           	callstack 20
  1161   00115A                     
  1162                           ;vend.c: 11:     venflags.bflash = 0;
  1163   00115A  9202               	bcf	(_venflags+1)^0,1,c
  1164                           
  1165                           ;vend.c: 12:     venflags.priceset = 0;
  1166   00115C  9801               	bcf	_venflags^0,4,c
  1167   00115E  8CBC               	bsf	188,6,c	;volatile
  1168   001160                     
  1169                           ;vend.c: 14:     uint8_t *timeval = &timeout;
  1170   001160  0E28               	movlw	low _timeout
  1171   001162  6E3A               	movwf	vend_init@timeval^0,c
  1172   001164  0E00               	movlw	high _timeout
  1173   001166  6E3B               	movwf	(vend_init@timeval+1)^0,c
  1174   001168  0E03               	movlw	3
  1175   00116A  EC10  F00D         	call	_DATAEE_ReadByte
  1176   00116E  0060  F0EB  FFD9   	movff	vend_init@timeval,fsr2l
  1177   001174  0060  F0EF  FFDA   	movff	vend_init@timeval+1,fsr2h
  1178   00117A  6EDF               	movwf	indf2,c
  1179   00117C  EE20 F001          	lfsr	2,1
  1180   001180  503A               	movf	vend_init@timeval^0,w,c
  1181   001182  26D9               	addwf	fsr2l,f,c
  1182   001184  503B               	movf	(vend_init@timeval+1)^0,w,c
  1183   001186  22DA               	addwfc	fsr2h,f,c
  1184   001188  0E04               	movlw	4
  1185   00118A  EC10  F00D         	call	_DATAEE_ReadByte
  1186   00118E  6EDF               	movwf	indf2,c
  1187   001190  0E01               	movlw	1
  1188   001192  EC10  F00D         	call	_DATAEE_ReadByte
  1189   001196  6E22               	movwf	_vendprice^0,c	;volatile
  1190   001198  0E00               	movlw	0
  1191   00119A  EC10  F00D         	call	_DATAEE_ReadByte
  1192   00119E  6E25               	movwf	_credit^0,c	;volatile
  1193                           
  1194                           ;vend.c: 19:     DAC1CON1 = 0x0C;
  1195   0011A0  0E0C               	movlw	12
  1196   0011A2  013E               	movlb	62	; () banked
  1197   0011A4  6F9C               	movwf	156,b	;volatile
  1198   0011A6                     
  1199                           ; BSR set to: 62
  1200                           ;vend.c: 20:     _delay((unsigned long)((250)*(12000000/4000.0)));
  1201   0011A6  0E04               	movlw	4
  1202   0011A8  6E39               	movwf	(??_vend_init+1)^0,c
  1203   0011AA  0ECF               	movlw	207
  1204   0011AC  6E38               	movwf	??_vend_init^0,c
  1205   0011AE  0E02               	movlw	2
  1206   0011B0                     u2357:
  1207   0011B0  2EE8               	decfsz	wreg,f,c
  1208   0011B2  D7FE               	bra	u2357
  1209   0011B4  2E38               	decfsz	??_vend_init^0,f,c
  1210   0011B6  D7FC               	bra	u2357
  1211   0011B8  2E39               	decfsz	(??_vend_init+1)^0,f,c
  1212   0011BA  D7FA               	bra	u2357
  1213   0011BC  0E02               	movlw	2
  1214   0011BE  EC10  F00D         	call	_DATAEE_ReadByte
  1215   0011C2  0900               	iorlw	0
  1216   0011C4  B4D8               	btfsc	status,2,c
  1217   0011C6  EFE7  F008         	goto	u791
  1218   0011CA  EFE9  F008         	goto	u790
  1219   0011CE                     u791:
  1220   0011CE  EFED  F008         	goto	l1077
  1221   0011D2                     u790:
  1222   0011D2  98BA               	bcf	186,4,c	;volatile
  1223   0011D4                     
  1224                           ;vend.c: 24:         venflags.error = 1;
  1225   0011D4  8201               	bsf	_venflags^0,1,c
  1226                           
  1227                           ;vend.c: 25:     }
  1228   0011D6  EFEF  F008         	goto	l1079
  1229   0011DA                     l1077:
  1230   0011DA  88BA               	bsf	186,4,c	;volatile
  1231   0011DC                     
  1232                           ;vend.c: 29:         venflags.error = 0;
  1233   0011DC  9201               	bcf	_venflags^0,1,c
  1234   0011DE                     l1079:
  1235   0011DE  0012               	return		;funcret
  1236   0011E0                     __end_of_vend_init:
  1237                           	callstack 0
  1238                           
  1239 ;; *************** function _mdb_init *****************
  1240 ;; Defined at:
  1241 ;;		line 21 in file "mdb.c"
  1242 ;; Parameters:    Size  Location     Type
  1243 ;;		None
  1244 ;; Auto vars:     Size  Location     Type
  1245 ;;  i               1    0        unsigned char 
  1246 ;; Return value:  Size  Location     Type
  1247 ;;                  1    wreg      void 
  1248 ;; Registers used:
  1249 ;;		wreg, fsr2l, fsr2h, status,2, status,0, pcl, pclath, pclatu, tosl, cstack
  1250 ;; Tracked objects:
  1251 ;;		On entry : 0/0
  1252 ;;		On exit  : 0/0
  1253 ;;		Unchanged: 0/0
  1254 ;; Data sizes:     COMRAM   BANK0   BANK1   BANK2   BANK3   BANK4   BANK5   BANK6   BANK7
  1255 ;;      Params:         0       0       0       0       0       0       0       0       0
  1256 ;;      Locals:         0       0       0       0       0       0       0       0       0
  1257 ;;      Temps:          2       0       0       0       0       0       0       0       0
  1258 ;;      Totals:         2       0       0       0       0       0       0       0       0
  1259 ;;Total ram usage:        2 bytes
  1260 ;; Hardware stack levels used: 1
  1261 ;; Hardware stack levels required when called: 13
  1262 ;; This function calls:
  1263 ;;		_DATAEE_ReadByte
  1264 ;;		_mdb_comm
  1265 ;;		_mdb_noten
  1266 ;;		_mdb_reset
  1267 ;;		_mdb_security
  1268 ;; This function is called by:
  1269 ;;		_main
  1270 ;; This function uses a non-reentrant model
  1271 ;;
  1272                           
  1273                           	psect	text2
  1274   00163A                     __ptext2:
  1275                           	callstack 0
  1276   00163A                     _mdb_init:
  1277                           	callstack 17
  1278   00163A                     
  1279                           ;mdb.c: 23:     _delay((unsigned long)((250)*(12000000/4000.0)));
  1280   00163A  0E04               	movlw	4
  1281   00163C  6E3F               	movwf	(??_mdb_init+1)^0,c
  1282   00163E  0ECF               	movlw	207
  1283   001640  6E3E               	movwf	??_mdb_init^0,c
  1284   001642  0E02               	movlw	2
  1285   001644                     u2367:
  1286   001644  2EE8               	decfsz	wreg,f,c
  1287   001646  D7FE               	bra	u2367
  1288   001648  2E3E               	decfsz	??_mdb_init^0,f,c
  1289   00164A  D7FC               	bra	u2367
  1290   00164C  2E3F               	decfsz	(??_mdb_init+1)^0,f,c
  1291   00164E  D7FA               	bra	u2367
  1292   001650  0E18               	movlw	24
  1293   001652  EC10  F00D         	call	_DATAEE_ReadByte
  1294   001656  6E1B               	movwf	_noteen_byte^0,c	;volatile
  1295   001658                     
  1296                           ;mdb.c: 25:     ((uint8_t*) &noteen)[0] = noteen_byte;
  1297   001658  C01B  F01C         	movff	_noteen_byte,_noteen	;volatile
  1298   00165C                     
  1299                           ;mdb.c: 27:     mdbflags.noteerr = 0;
  1300   00165C  921D               	bcf	_mdbflags^0,1,c
  1301   00165E                     
  1302                           ;mdb.c: 28:     mdbflags.isdata = 0;
  1303   00165E  901D               	bcf	_mdbflags^0,0,c
  1304   001660                     
  1305                           ;mdb.c: 29:     mdb_reset();
  1306   001660  EC0E  F00A         	call	_mdb_reset	;wreg free
  1307   001664                     
  1308                           ;mdb.c: 30:     mdb_noten();
  1309   001664  EC45  F00C         	call	_mdb_noten	;wreg free
  1310   001668                     
  1311                           ;mdb.c: 31:     mdb_security();
  1312   001668  EC7B  F00D         	call	_mdb_security	;wreg free
  1313   00166C  0E00               	movlw	0
  1314   00166E  6E39               	movwf	mdb_comm@mcount^0,c
  1315   001670  0E33               	movlw	51
  1316   001672  ECC7  F005         	call	_mdb_comm
  1317   001676  0012               	return		;funcret
  1318   001678                     __end_of_mdb_init:
  1319                           	callstack 0
  1320                           
  1321 ;; *************** function _mdb_security *****************
  1322 ;; Defined at:
  1323 ;;		line 153 in file "mdb.c"
  1324 ;; Parameters:    Size  Location     Type
  1325 ;;		None
  1326 ;; Auto vars:     Size  Location     Type
  1327 ;;		None
  1328 ;; Return value:  Size  Location     Type
  1329 ;;                  1    wreg      void 
  1330 ;; Registers used:
  1331 ;;		wreg, fsr2l, fsr2h, status,2, status,0, pcl, pclath, pclatu, tosl, cstack
  1332 ;; Tracked objects:
  1333 ;;		On entry : 0/0
  1334 ;;		On exit  : 0/0
  1335 ;;		Unchanged: 0/0
  1336 ;; Data sizes:     COMRAM   BANK0   BANK1   BANK2   BANK3   BANK4   BANK5   BANK6   BANK7
  1337 ;;      Params:         0       0       0       0       0       0       0       0       0
  1338 ;;      Locals:         0       0       0       0       0       0       0       0       0
  1339 ;;      Temps:          0       0       0       0       0       0       0       0       0
  1340 ;;      Totals:         0       0       0       0       0       0       0       0       0
  1341 ;;Total ram usage:        0 bytes
  1342 ;; Hardware stack levels used: 1
  1343 ;; Hardware stack levels required when called: 12
  1344 ;; This function calls:
  1345 ;;		_init_mdbdata
  1346 ;;		_mdb_comm
  1347 ;; This function is called by:
  1348 ;;		_mdb_init
  1349 ;; This function uses a non-reentrant model
  1350 ;;
  1351                           
  1352                           	psect	text3
  1353   001AF6                     __ptext3:
  1354                           	callstack 0
  1355   001AF6                     _mdb_security:
  1356                           	callstack 17
  1357   001AF6                     
  1358                           ;mdb.c: 155:     init_mdbdata(0x00);
  1359   001AF6  0E00               	movlw	0
  1360   001AF8  EC5B  F00C         	call	_init_mdbdata
  1361   001AFC  0E01               	movlw	1
  1362   001AFE  6E39               	movwf	mdb_comm@mcount^0,c
  1363   001B00  0E32               	movlw	50
  1364   001B02  ECC7  F005         	call	_mdb_comm
  1365   001B06  0012               	return		;funcret
  1366   001B08                     __end_of_mdb_security:
  1367                           	callstack 0
  1368                           
  1369 ;; *************** function _mdb_reset *****************
  1370 ;; Defined at:
  1371 ;;		line 36 in file "mdb.c"
  1372 ;; Parameters:    Size  Location     Type
  1373 ;;		None
  1374 ;; Auto vars:     Size  Location     Type
  1375 ;;  i               1    0        unsigned char 
  1376 ;;  i               1   19[COMRAM] unsigned char 
  1377 ;; Return value:  Size  Location     Type
  1378 ;;                  1    wreg      unsigned char 
  1379 ;; Registers used:
  1380 ;;		wreg, fsr2l, fsr2h, status,2, status,0, pcl, pclath, pclatu, tosl, cstack
  1381 ;; Tracked objects:
  1382 ;;		On entry : 0/0
  1383 ;;		On exit  : 0/0
  1384 ;;		Unchanged: 0/0
  1385 ;; Data sizes:     COMRAM   BANK0   BANK1   BANK2   BANK3   BANK4   BANK5   BANK6   BANK7
  1386 ;;      Params:         0       0       0       0       0       0       0       0       0
  1387 ;;      Locals:         1       0       0       0       0       0       0       0       0
  1388 ;;      Temps:          1       0       0       0       0       0       0       0       0
  1389 ;;      Totals:         2       0       0       0       0       0       0       0       0
  1390 ;;Total ram usage:        2 bytes
  1391 ;; Hardware stack levels used: 1
  1392 ;; Hardware stack levels required when called: 12
  1393 ;; This function calls:
  1394 ;;		_mdb_comm
  1395 ;; This function is called by:
  1396 ;;		_mdb_init
  1397 ;; This function uses a non-reentrant model
  1398 ;;
  1399                           
  1400                           	psect	text4
  1401   00141C                     __ptext4:
  1402                           	callstack 0
  1403   00141C                     _mdb_reset:
  1404                           	callstack 17
  1405   00141C                     
  1406                           ;mdb.c: 41:     mdbflags.timeout = 1;
  1407   00141C  861D               	bsf	_mdbflags^0,3,c
  1408                           
  1409                           ;mdb.c: 42:     while(mdbflags.timeout)
  1410   00141E  EF16  F00A         	goto	l4154
  1411   001422                     l4152:
  1412   001422  0E00               	movlw	0
  1413   001424  6E39               	movwf	mdb_comm@mcount^0,c
  1414   001426  0E30               	movlw	48
  1415   001428  ECC7  F005         	call	_mdb_comm
  1416   00142C                     l4154:
  1417                           
  1418                           ;mdb.c: 42:     while(mdbflags.timeout)
  1419   00142C  B61D               	btfsc	_mdbflags^0,3,c
  1420   00142E  EF1B  F00A         	goto	u1971
  1421   001432  EF1D  F00A         	goto	u1970
  1422   001436                     u1971:
  1423   001436  EF11  F00A         	goto	l4152
  1424   00143A                     u1970:
  1425   00143A  F000               	nop		;# 
  1426   00143C  0E00               	movlw	0
  1427   00143E  6E39               	movwf	mdb_comm@mcount^0,c
  1428   001440  0E33               	movlw	51
  1429   001442  ECC7  F005         	call	_mdb_comm
  1430   001446  6E3D               	movwf	mdb_reset@i_2642^0,c
  1431   001448  063D               	decf	mdb_reset@i_2642^0,f,c
  1432   00144A  0E60               	movlw	low _mdbdata
  1433   00144C  243D               	addwf	mdb_reset@i_2642^0,w,c
  1434   00144E  6ED9               	movwf	fsr2l,c
  1435   001450  6ADA               	clrf	fsr2h,c
  1436   001452  0E00               	movlw	high _mdbdata
  1437   001454  22DA               	addwfc	fsr2h,f,c
  1438   001456  0E06               	movlw	6
  1439   001458  18DE               	xorwf	postinc2,w,c
  1440   00145A  A4D8               	btfss	status,2,c
  1441   00145C  EF32  F00A         	goto	u1981
  1442   001460  EF34  F00A         	goto	u1980
  1443   001464                     u1981:
  1444   001464  EF39  F00A         	goto	l1327
  1445   001468                     u1980:
  1446   001468  0E00               	movlw	0
  1447   00146A  6E39               	movwf	mdb_comm@mcount^0,c
  1448   00146C  0E33               	movlw	51
  1449   00146E  ECC7  F005         	call	_mdb_comm
  1450   001472                     l1327:
  1451   001472  0012               	return		;funcret
  1452   001474                     __end_of_mdb_reset:
  1453                           	callstack 0
  1454                           
  1455 ;; *************** function _mdb_noten *****************
  1456 ;; Defined at:
  1457 ;;		line 137 in file "mdb.c"
  1458 ;; Parameters:    Size  Location     Type
  1459 ;;		None
  1460 ;; Auto vars:     Size  Location     Type
  1461 ;;		None
  1462 ;; Return value:  Size  Location     Type
  1463 ;;                  1    wreg      void 
  1464 ;; Registers used:
  1465 ;;		wreg, fsr2l, fsr2h, status,2, status,0, pcl, pclath, pclatu, tosl, cstack
  1466 ;; Tracked objects:
  1467 ;;		On entry : 0/0
  1468 ;;		On exit  : 0/0
  1469 ;;		Unchanged: 0/0
  1470 ;; Data sizes:     COMRAM   BANK0   BANK1   BANK2   BANK3   BANK4   BANK5   BANK6   BANK7
  1471 ;;      Params:         0       0       0       0       0       0       0       0       0
  1472 ;;      Locals:         0       0       0       0       0       0       0       0       0
  1473 ;;      Temps:          0       0       0       0       0       0       0       0       0
  1474 ;;      Totals:         0       0       0       0       0       0       0       0       0
  1475 ;;Total ram usage:        0 bytes
  1476 ;; Hardware stack levels used: 1
  1477 ;; Hardware stack levels required when called: 12
  1478 ;; This function calls:
  1479 ;;		_init_mdbdata
  1480 ;;		_mdb_comm
  1481 ;; This function is called by:
  1482 ;;		_mdb_init
  1483 ;;		_note_disable
  1484 ;; This function uses a non-reentrant model
  1485 ;;
  1486                           
  1487                           	psect	text5
  1488   00188A                     __ptext5:
  1489                           	callstack 0
  1490   00188A                     _mdb_noten:
  1491                           	callstack 17
  1492   00188A                     
  1493                           ;mdb.c: 140:     init_mdbdata(0x00);
  1494   00188A  0E00               	movlw	0
  1495   00188C  EC5B  F00C         	call	_init_mdbdata
  1496   001890                     
  1497                           ;mdb.c: 142:     mcount = 3;
  1498   001890  0E03               	movlw	3
  1499   001892  6E20               	movwf	_mcount^0,c
  1500   001894                     
  1501                           ;mdb.c: 144:     mdbdata[0] = 0x00;
  1502   001894  0E00               	movlw	0
  1503   001896  0100               	movlb	0	; () banked
  1504   001898  6F60               	movwf	_mdbdata& (0+255),b
  1505   00189A                     
  1506                           ; BSR set to: 0
  1507                           ;mdb.c: 145:     mdbdata[1] = 0x00;
  1508   00189A  0E00               	movlw	0
  1509   00189C  6F61               	movwf	(_mdbdata+1)& (0+255),b
  1510   00189E                     
  1511                           ; BSR set to: 0
  1512                           ;mdb.c: 147:     mdbdata[2] = noteen_byte;
  1513   00189E  C01B  F062         	movff	_noteen_byte,_mdbdata+2	;volatile
  1514   0018A2                     
  1515                           ; BSR set to: 0
  1516                           ;mdb.c: 149:     mdbdata[3] = 0x00;
  1517   0018A2  0E00               	movlw	0
  1518   0018A4  6F63               	movwf	(_mdbdata+3)& (0+255),b
  1519   0018A6                     
  1520                           ; BSR set to: 0
  1521   0018A6  C020  F039         	movff	_mcount,mdb_comm@mcount
  1522   0018AA  0E34               	movlw	52
  1523   0018AC  ECC7  F005         	call	_mdb_comm
  1524   0018B0  6E20               	movwf	_mcount^0,c
  1525   0018B2                     
  1526                           ;mdb.c: 151:     mdbflags.vending = 0;
  1527   0018B2  981D               	bcf	_mdbflags^0,4,c
  1528   0018B4  0012               	return		;funcret
  1529   0018B6                     __end_of_mdb_noten:
  1530                           	callstack 0
  1531                           
  1532 ;; *************** function _mdb_comm *****************
  1533 ;; Defined at:
  1534 ;;		line 291 in file "mdb.c"
  1535 ;; Parameters:    Size  Location     Type
  1536 ;;  slvadd          1    wreg     unsigned char 
  1537 ;;  mcount          1   15[COMRAM] unsigned char 
  1538 ;; Auto vars:     Size  Location     Type
  1539 ;;  slvadd          1   16[COMRAM] unsigned char 
  1540 ;;  i               1   17[COMRAM] unsigned char 
  1541 ;; Return value:  Size  Location     Type
  1542 ;;                  1    wreg      unsigned char 
  1543 ;; Registers used:
  1544 ;;		wreg, fsr2l, fsr2h, status,2, status,0, pcl, pclath, pclatu, tosl, cstack
  1545 ;; Tracked objects:
  1546 ;;		On entry : 0/0
  1547 ;;		On exit  : 0/0
  1548 ;;		Unchanged: 0/0
  1549 ;; Data sizes:     COMRAM   BANK0   BANK1   BANK2   BANK3   BANK4   BANK5   BANK6   BANK7
  1550 ;;      Params:         1       0       0       0       0       0       0       0       0
  1551 ;;      Locals:         2       0       0       0       0       0       0       0       0
  1552 ;;      Temps:          0       0       0       0       0       0       0       0       0
  1553 ;;      Totals:         3       0       0       0       0       0       0       0       0
  1554 ;;Total ram usage:        3 bytes
  1555 ;; Hardware stack levels used: 1
  1556 ;; Hardware stack levels required when called: 11
  1557 ;; This function calls:
  1558 ;;		_TMR0_Initialize
  1559 ;;		_UART1_Read
  1560 ;;		_UART1_SetAddresstoTransmit
  1561 ;;		_init_mdbdata
  1562 ;;		_mdb_transmit
  1563 ;;		_mdb_waitr
  1564 ;; This function is called by:
  1565 ;;		_mdb_init
  1566 ;;		_mdb_reset
  1567 ;;		_mdb_noten
  1568 ;;		_mdb_security
  1569 ;; This function uses a non-reentrant model
  1570 ;;
  1571                           
  1572                           	psect	text6
  1573   000B8E                     __ptext6:
  1574                           	callstack 0
  1575   000B8E                     _mdb_comm:
  1576                           	callstack 17
  1577                           
  1578                           ;incstack = 0
  1579                           ;mdb_comm@slvadd stored from wreg
  1580   000B8E  6E3A               	movwf	mdb_comm@slvadd^0,c
  1581   000B90                     
  1582                           ;mdb.c: 303:     UART1_SetAddresstoTransmit(slvadd);
  1583   000B90  503A               	movf	mdb_comm@slvadd^0,w,c
  1584   000B92  ECE4  F00D         	call	_UART1_SetAddresstoTransmit
  1585   000B96                     
  1586                           ;mdb.c: 304:     mdbflags.nodata = 0;
  1587   000B96  9E1D               	bcf	_mdbflags^0,7,c
  1588   000B98                     
  1589                           ;mdb.c: 305:     if(!mcount)
  1590   000B98  5039               	movf	mdb_comm@mcount^0,w,c
  1591   000B9A  A4D8               	btfss	status,2,c
  1592   000B9C  EFD2  F005         	goto	u1771
  1593   000BA0  EFD4  F005         	goto	u1770
  1594   000BA4                     u1771:
  1595   000BA4  EFD8  F005         	goto	l3962
  1596   000BA8                     u1770:
  1597   000BA8                     
  1598                           ;mdb.c: 306:     {;mdb.c: 307:         mdb_transmit(slvadd);
  1599   000BA8  503A               	movf	mdb_comm@slvadd^0,w,c
  1600   000BAA  ECB1  F00D         	call	_mdb_transmit
  1601   000BAE                     
  1602                           ;mdb.c: 308:         mdbflags.nodata = 1;
  1603   000BAE  8E1D               	bsf	_mdbflags^0,7,c
  1604   000BB0                     l3962:
  1605                           
  1606                           ;mdb.c: 313:     chkbyte = slvadd;
  1607   000BB0  C03A  F01E         	movff	mdb_comm@slvadd,_chkbyte
  1608   000BB4                     
  1609                           ;mdb.c: 314:     if(!mdbflags.nodata)
  1610   000BB4  BE1D               	btfsc	_mdbflags^0,7,c
  1611   000BB6  EFDF  F005         	goto	u1781
  1612   000BBA  EFE1  F005         	goto	u1780
  1613   000BBE                     u1781:
  1614   000BBE  EF01  F006         	goto	l1389
  1615   000BC2                     u1780:
  1616   000BC2                     
  1617                           ;mdb.c: 315:     {;mdb.c: 316:         i = mcount + 1;
  1618   000BC2  2839               	incf	mdb_comm@mcount^0,w,c
  1619   000BC4  6E3B               	movwf	mdb_comm@i^0,c
  1620                           
  1621                           ;mdb.c: 317:         while(i != 0)
  1622   000BC6  EFF9  F005         	goto	l3976
  1623   000BCA                     l3968:
  1624                           
  1625                           ;mdb.c: 318:         {;mdb.c: 319:             mdb_transmit(mdbdata[mcount]);
  1626   000BCA  0E60               	movlw	low _mdbdata
  1627   000BCC  2439               	addwf	mdb_comm@mcount^0,w,c
  1628   000BCE  6ED9               	movwf	fsr2l,c
  1629   000BD0  6ADA               	clrf	fsr2h,c
  1630   000BD2  0E00               	movlw	high _mdbdata
  1631   000BD4  22DA               	addwfc	fsr2h,f,c
  1632   000BD6  50DF               	movf	indf2,w,c
  1633   000BD8  ECB1  F00D         	call	_mdb_transmit
  1634   000BDC                     
  1635                           ;mdb.c: 322:             chkbyte = chkbyte + mdbdata[mcount];
  1636   000BDC  0E60               	movlw	low _mdbdata
  1637   000BDE  2439               	addwf	mdb_comm@mcount^0,w,c
  1638   000BE0  6ED9               	movwf	fsr2l,c
  1639   000BE2  6ADA               	clrf	fsr2h,c
  1640   000BE4  0E00               	movlw	high _mdbdata
  1641   000BE6  22DA               	addwfc	fsr2h,f,c
  1642   000BE8  50DF               	movf	indf2,w,c
  1643   000BEA  241E               	addwf	_chkbyte^0,w,c
  1644   000BEC  6E1E               	movwf	_chkbyte^0,c
  1645   000BEE                     
  1646                           ;mdb.c: 323:             i--;
  1647   000BEE  063B               	decf	mdb_comm@i^0,f,c
  1648   000BF0                     
  1649                           ;mdb.c: 324:             mcount--;
  1650   000BF0  0639               	decf	mdb_comm@mcount^0,f,c
  1651   000BF2                     l3976:
  1652                           
  1653                           ;mdb.c: 317:         while(i != 0)
  1654   000BF2  503B               	movf	mdb_comm@i^0,w,c
  1655   000BF4  A4D8               	btfss	status,2,c
  1656   000BF6  EFFF  F005         	goto	u1791
  1657   000BFA  EF01  F006         	goto	u1790
  1658   000BFE                     u1791:
  1659   000BFE  EFE5  F005         	goto	l3968
  1660   000C02                     u1790:
  1661   000C02                     l1389:
  1662                           
  1663                           ;mdb.c: 327:     if(!mdbflags.nodata)
  1664   000C02  BE1D               	btfsc	_mdbflags^0,7,c
  1665   000C04  EF06  F006         	goto	u1801
  1666   000C08  EF08  F006         	goto	u1800
  1667   000C0C                     u1801:
  1668   000C0C  EF0B  F006         	goto	l3980
  1669   000C10                     u1800:
  1670   000C10                     
  1671                           ;mdb.c: 328:     {;mdb.c: 329:         mdb_transmit(chkbyte);
  1672   000C10  501E               	movf	_chkbyte^0,w,c
  1673   000C12  ECB1  F00D         	call	_mdb_transmit
  1674   000C16                     l3980:
  1675                           
  1676                           ;mdb.c: 337:     init_mdbdata(0xFF);
  1677   000C16  0EFF               	movlw	255
  1678   000C18  EC5B  F00C         	call	_init_mdbdata
  1679   000C1C                     
  1680                           ;mdb.c: 338:     TMR0_Initialize();
  1681   000C1C  EC50  F00D         	call	_TMR0_Initialize	;wreg free
  1682   000C20                     
  1683                           ;mdb.c: 339:     dbcount = 0;
  1684   000C20  0E00               	movlw	0
  1685   000C22  6E04               	movwf	(_dbcount+1)^0,c
  1686   000C24  0E00               	movlw	0
  1687   000C26  6E03               	movwf	_dbcount^0,c
  1688   000C28                     
  1689                           ;mdb.c: 340:     mdbflags.isdata = 0;
  1690   000C28  901D               	bcf	_mdbflags^0,0,c
  1691   000C2A                     
  1692                           ;mdb.c: 341:     i = 0;
  1693   000C2A  0E00               	movlw	0
  1694   000C2C  6E3B               	movwf	mdb_comm@i^0,c
  1695                           
  1696                           ;mdb.c: 343:     while(!T0CON0bits.OUT && !mdbflags.isdata)
  1697   000C2E  EF41  F006         	goto	l1394
  1698   000C32                     l3990:
  1699                           
  1700                           ;mdb.c: 344:     {;mdb.c: 346:         dbcount++;
  1701   000C32  4A03               	infsnz	_dbcount^0,f,c
  1702   000C34  2A04               	incf	(_dbcount+1)^0,f,c
  1703   000C36                     
  1704                           ;mdb.c: 347:         mdbflags.isdata = 0;
  1705   000C36  901D               	bcf	_mdbflags^0,0,c
  1706                           
  1707                           ;mdb.c: 350:         while(PIR3bits.U1RXIF && !mdbflags.isdata)
  1708   000C38  EF32  F006         	goto	l4004
  1709   000C3C                     l3994:
  1710                           
  1711                           ; BSR set to: 57
  1712                           ;mdb.c: 351:         {;mdb.c: 354:             mdbdata[i] = UART1_Read();
  1713   000C3C  0E60               	movlw	low _mdbdata
  1714   000C3E  243B               	addwf	mdb_comm@i^0,w,c
  1715   000C40  6ED9               	movwf	fsr2l,c
  1716   000C42  6ADA               	clrf	fsr2h,c
  1717   000C44  0E00               	movlw	high _mdbdata
  1718   000C46  22DA               	addwfc	fsr2h,f,c
  1719   000C48  EC85  F007         	call	_UART1_Read	;wreg free
  1720   000C4C  6EDF               	movwf	indf2,c
  1721   000C4E                     
  1722                           ;mdb.c: 355:             mdb_waitr();
  1723   000C4E  EC84  F00D         	call	_mdb_waitr	;wreg free
  1724   000C52                     
  1725                           ;mdb.c: 357:             mdbflags.isdata = U1ERRIRbits.PERIF;
  1726   000C52  013D               	movlb	61	; () banked
  1727   000C54  ADF9               	btfss	249,6,b	;volatile
  1728   000C56  D002               	bra	u1815
  1729   000C58  801D               	bsf	_mdbflags^0,0,c
  1730   000C5A  D001               	bra	u1817
  1731   000C5C                     u1815:
  1732   000C5C  901D               	bcf	_mdbflags^0,0,c
  1733   000C5E                     u1817:
  1734   000C5E                     
  1735                           ;mdb.c: 358:             TMR0_Initialize();
  1736   000C5E  EC50  F00D         	call	_TMR0_Initialize	;wreg free
  1737   000C62                     
  1738                           ;mdb.c: 359:             i++;
  1739   000C62  2A3B               	incf	mdb_comm@i^0,f,c
  1740   000C64                     l4004:
  1741                           
  1742                           ;mdb.c: 350:         while(PIR3bits.U1RXIF && !mdbflags.isdata)
  1743   000C64  0139               	movlb	57	; () banked
  1744   000C66  A7A3               	btfss	163,3,b	;volatile
  1745   000C68  EF38  F006         	goto	u1821
  1746   000C6C  EF3A  F006         	goto	u1820
  1747   000C70                     u1821:
  1748   000C70  EF41  F006         	goto	l1394
  1749   000C74                     u1820:
  1750   000C74                     
  1751                           ; BSR set to: 57
  1752   000C74  A01D               	btfss	_mdbflags^0,0,c
  1753   000C76  EF3F  F006         	goto	u1831
  1754   000C7A  EF41  F006         	goto	u1830
  1755   000C7E                     u1831:
  1756   000C7E  EF1E  F006         	goto	l3994
  1757   000C82                     u1830:
  1758   000C82                     l1394:
  1759                           
  1760                           ;mdb.c: 343:     while(!T0CON0bits.OUT && !mdbflags.isdata)
  1761   000C82  BAB8               	btfsc	184,5,c	;volatile
  1762   000C84  EF46  F006         	goto	u1841
  1763   000C88  EF48  F006         	goto	u1840
  1764   000C8C                     u1841:
  1765   000C8C  EF4F  F006         	goto	l4010
  1766   000C90                     u1840:
  1767   000C90  A01D               	btfss	_mdbflags^0,0,c
  1768   000C92  EF4D  F006         	goto	u1851
  1769   000C96  EF4F  F006         	goto	u1850
  1770   000C9A                     u1851:
  1771   000C9A  EF19  F006         	goto	l3990
  1772   000C9E                     u1850:
  1773   000C9E                     l4010:
  1774                           
  1775                           ;mdb.c: 365:     i--;
  1776   000C9E  063B               	decf	mdb_comm@i^0,f,c
  1777   000CA0                     
  1778                           ;mdb.c: 367:     mdbflags.timeout = T0CON0bits.OUT;
  1779   000CA0  AAB8               	btfss	184,5,c	;volatile
  1780   000CA2  D002               	bra	u1865
  1781   000CA4  861D               	bsf	_mdbflags^0,3,c
  1782   000CA6  D001               	bra	u1867
  1783   000CA8                     u1865:
  1784   000CA8  961D               	bcf	_mdbflags^0,3,c
  1785   000CAA                     u1867:
  1786   000CAA                     
  1787                           ;mdb.c: 369:     if(mdbflags.isdata == 1 && mdbdata[i] != 0x00)
  1788   000CAA  A01D               	btfss	_mdbflags^0,0,c
  1789   000CAC  EF5A  F006         	goto	u1871
  1790   000CB0  EF5C  F006         	goto	u1870
  1791   000CB4                     u1871:
  1792   000CB4  EF6D  F006         	goto	l4020
  1793   000CB8                     u1870:
  1794   000CB8  0E60               	movlw	low _mdbdata
  1795   000CBA  243B               	addwf	mdb_comm@i^0,w,c
  1796   000CBC  6ED9               	movwf	fsr2l,c
  1797   000CBE  6ADA               	clrf	fsr2h,c
  1798   000CC0  0E00               	movlw	high _mdbdata
  1799   000CC2  22DA               	addwfc	fsr2h,f,c
  1800   000CC4  50DF               	movf	indf2,w,c
  1801   000CC6  B4D8               	btfsc	status,2,c
  1802   000CC8  EF68  F006         	goto	u1881
  1803   000CCC  EF6A  F006         	goto	u1880
  1804   000CD0                     u1881:
  1805   000CD0  EF6D  F006         	goto	l4020
  1806   000CD4                     u1880:
  1807   000CD4                     
  1808                           ;mdb.c: 370:     {;mdb.c: 371:         mdb_transmit(0x00);
  1809   000CD4  0E00               	movlw	0
  1810   000CD6  ECB1  F00D         	call	_mdb_transmit
  1811   000CDA                     l4020:
  1812                           
  1813                           ;mdb.c: 375:     return(i);
  1814   000CDA  503B               	movf	mdb_comm@i^0,w,c
  1815   000CDC  0012               	return		;funcret
  1816   000CDE                     __end_of_mdb_comm:
  1817                           	callstack 0
  1818                           
  1819 ;; *************** function _mdb_waitr *****************
  1820 ;; Defined at:
  1821 ;;		line 399 in file "mdb.c"
  1822 ;; Parameters:    Size  Location     Type
  1823 ;;		None
  1824 ;; Auto vars:     Size  Location     Type
  1825 ;;		None
  1826 ;; Return value:  Size  Location     Type
  1827 ;;                  1    wreg      void 
  1828 ;; Registers used:
  1829 ;;		None
  1830 ;; Tracked objects:
  1831 ;;		On entry : 0/0
  1832 ;;		On exit  : 0/0
  1833 ;;		Unchanged: 0/0
  1834 ;; Data sizes:     COMRAM   BANK0   BANK1   BANK2   BANK3   BANK4   BANK5   BANK6   BANK7
  1835 ;;      Params:         0       0       0       0       0       0       0       0       0
  1836 ;;      Locals:         0       0       0       0       0       0       0       0       0
  1837 ;;      Temps:          0       0       0       0       0       0       0       0       0
  1838 ;;      Totals:         0       0       0       0       0       0       0       0       0
  1839 ;;Total ram usage:        0 bytes
  1840 ;; Hardware stack levels used: 1
  1841 ;; Hardware stack levels required when called: 9
  1842 ;; This function calls:
  1843 ;;		Nothing
  1844 ;; This function is called by:
  1845 ;;		_mdb_comm
  1846 ;; This function uses a non-reentrant model
  1847 ;;
  1848                           
  1849                           	psect	text7
  1850   001B08                     __ptext7:
  1851                           	callstack 0
  1852   001B08                     _mdb_waitr:
  1853                           	callstack 18
  1854   001B08                     l1417:
  1855                           
  1856                           ;mdb.c: 401:     while(!PIR3bits.U1RXIF)
  1857   001B08  0139               	movlb	57	; () banked
  1858   001B0A  A7A3               	btfss	163,3,b	;volatile
  1859   001B0C  EF8A  F00D         	goto	u1731
  1860   001B10  EF8C  F00D         	goto	u1730
  1861   001B14                     u1731:
  1862   001B14  EF84  F00D         	goto	l1417
  1863   001B18                     u1730:
  1864   001B18                     
  1865                           ; BSR set to: 57
  1866   001B18  0012               	return		;funcret
  1867   001B1A                     __end_of_mdb_waitr:
  1868                           	callstack 0
  1869                           
  1870 ;; *************** function _mdb_transmit *****************
  1871 ;; Defined at:
  1872 ;;		line 496 in file "mdb.c"
  1873 ;; Parameters:    Size  Location     Type
  1874 ;;  txbyte          1    wreg     unsigned char 
  1875 ;; Auto vars:     Size  Location     Type
  1876 ;;  txbyte          1   14[COMRAM] unsigned char 
  1877 ;; Return value:  Size  Location     Type
  1878 ;;                  1    wreg      void 
  1879 ;; Registers used:
  1880 ;;		wreg, status,2, cstack
  1881 ;; Tracked objects:
  1882 ;;		On entry : 0/0
  1883 ;;		On exit  : 0/0
  1884 ;;		Unchanged: 0/0
  1885 ;; Data sizes:     COMRAM   BANK0   BANK1   BANK2   BANK3   BANK4   BANK5   BANK6   BANK7
  1886 ;;      Params:         0       0       0       0       0       0       0       0       0
  1887 ;;      Locals:         1       0       0       0       0       0       0       0       0
  1888 ;;      Temps:          0       0       0       0       0       0       0       0       0
  1889 ;;      Totals:         1       0       0       0       0       0       0       0       0
  1890 ;;Total ram usage:        1 bytes
  1891 ;; Hardware stack levels used: 1
  1892 ;; Hardware stack levels required when called: 10
  1893 ;; This function calls:
  1894 ;;		_UART1_Write
  1895 ;;		_mdb_waitx
  1896 ;; This function is called by:
  1897 ;;		_mdb_comm
  1898 ;;		_mdb_test
  1899 ;; This function uses a non-reentrant model
  1900 ;;
  1901                           
  1902                           	psect	text8
  1903   001B62                     __ptext8:
  1904                           	callstack 0
  1905   001B62                     _mdb_transmit:
  1906                           	callstack 17
  1907                           
  1908                           ; BSR set to: 57
  1909                           ;incstack = 0
  1910                           ;mdb_transmit@txbyte stored from wreg
  1911   001B62  6E38               	movwf	mdb_transmit@txbyte^0,c
  1912   001B64                     
  1913                           ;mdb.c: 496: void mdb_transmit(uint8_t txbyte);mdb.c: 497: {;mdb.c: 498:     UART1_Write
      +                          (txbyte);
  1914   001B64  5038               	movf	mdb_transmit@txbyte^0,w,c
  1915   001B66  EC03  F00D         	call	_UART1_Write
  1916   001B6A                     
  1917                           ;mdb.c: 499:     mdb_waitx();
  1918   001B6A  EC8D  F00D         	call	_mdb_waitx	;wreg free
  1919   001B6E  0012               	return		;funcret
  1920   001B70                     __end_of_mdb_transmit:
  1921                           	callstack 0
  1922                           
  1923 ;; *************** function _mdb_waitx *****************
  1924 ;; Defined at:
  1925 ;;		line 391 in file "mdb.c"
  1926 ;; Parameters:    Size  Location     Type
  1927 ;;		None
  1928 ;; Auto vars:     Size  Location     Type
  1929 ;;		None
  1930 ;; Return value:  Size  Location     Type
  1931 ;;                  1    wreg      void 
  1932 ;; Registers used:
  1933 ;;		None
  1934 ;; Tracked objects:
  1935 ;;		On entry : 0/0
  1936 ;;		On exit  : 0/0
  1937 ;;		Unchanged: 0/0
  1938 ;; Data sizes:     COMRAM   BANK0   BANK1   BANK2   BANK3   BANK4   BANK5   BANK6   BANK7
  1939 ;;      Params:         0       0       0       0       0       0       0       0       0
  1940 ;;      Locals:         0       0       0       0       0       0       0       0       0
  1941 ;;      Temps:          0       0       0       0       0       0       0       0       0
  1942 ;;      Totals:         0       0       0       0       0       0       0       0       0
  1943 ;;Total ram usage:        0 bytes
  1944 ;; Hardware stack levels used: 1
  1945 ;; Hardware stack levels required when called: 9
  1946 ;; This function calls:
  1947 ;;		Nothing
  1948 ;; This function is called by:
  1949 ;;		_mdb_transmit
  1950 ;; This function uses a non-reentrant model
  1951 ;;
  1952                           
  1953                           	psect	text9
  1954   001B1A                     __ptext9:
  1955                           	callstack 0
  1956   001B1A                     _mdb_waitx:
  1957                           	callstack 17
  1958   001B1A                     l1411:
  1959                           
  1960                           ;mdb.c: 393:     while(!U1ERRIRbits.TXMTIF)
  1961   001B1A  013D               	movlb	61	; () banked
  1962   001B1C  AFF9               	btfss	249,7,b	;volatile
  1963   001B1E  EF93  F00D         	goto	u1591
  1964   001B22  EF95  F00D         	goto	u1590
  1965   001B26                     u1591:
  1966   001B26  EF8D  F00D         	goto	l1411
  1967   001B2A                     u1590:
  1968   001B2A                     
  1969                           ; BSR set to: 61
  1970   001B2A  0012               	return		;funcret
  1971   001B2C                     __end_of_mdb_waitx:
  1972                           	callstack 0
  1973                           
  1974 ;; *************** function _UART1_Write *****************
  1975 ;; Defined at:
  1976 ;;		line 170 in file "mcc_generated_files/uart1.c"
  1977 ;; Parameters:    Size  Location     Type
  1978 ;;  txData          1    wreg     unsigned char 
  1979 ;; Auto vars:     Size  Location     Type
  1980 ;;  txData          1   13[COMRAM] unsigned char 
  1981 ;; Return value:  Size  Location     Type
  1982 ;;                  1    wreg      void 
  1983 ;; Registers used:
  1984 ;;		wreg
  1985 ;; Tracked objects:
  1986 ;;		On entry : 0/0
  1987 ;;		On exit  : 0/0
  1988 ;;		Unchanged: 0/0
  1989 ;; Data sizes:     COMRAM   BANK0   BANK1   BANK2   BANK3   BANK4   BANK5   BANK6   BANK7
  1990 ;;      Params:         0       0       0       0       0       0       0       0       0
  1991 ;;      Locals:         1       0       0       0       0       0       0       0       0
  1992 ;;      Temps:          0       0       0       0       0       0       0       0       0
  1993 ;;      Totals:         1       0       0       0       0       0       0       0       0
  1994 ;;Total ram usage:        1 bytes
  1995 ;; Hardware stack levels used: 1
  1996 ;; Hardware stack levels required when called: 9
  1997 ;; This function calls:
  1998 ;;		Nothing
  1999 ;; This function is called by:
  2000 ;;		_mdb_transmit
  2001 ;; This function uses a non-reentrant model
  2002 ;;
  2003                           
  2004                           	psect	text10
  2005   001A06                     __ptext10:
  2006                           	callstack 0
  2007   001A06                     _UART1_Write:
  2008                           	callstack 17
  2009                           
  2010                           ; BSR set to: 61
  2011                           ;incstack = 0
  2012                           ;UART1_Write@txData stored from wreg
  2013   001A06  6E37               	movwf	UART1_Write@txData^0,c
  2014   001A08                     l531:
  2015                           
  2016                           ;mcc_generated_files/uart1.c: 172:     while(0 == PIR3bits.U1TXIF)
  2017   001A08  0139               	movlb	57	; () banked
  2018   001A0A  A9A3               	btfss	163,4,b	;volatile
  2019   001A0C  EF0A  F00D         	goto	u1581
  2020   001A10  EF0C  F00D         	goto	u1580
  2021   001A14                     u1581:
  2022   001A14  EF04  F00D         	goto	l531
  2023   001A18                     u1580:
  2024   001A18                     
  2025                           ; BSR set to: 57
  2026                           ;mcc_generated_files/uart1.c: 176:     U1TXB = txData;
  2027   001A18  0060  F0DF  FDEA   	movff	UART1_Write@txData,15850	;volatile
  2028   001A1E                     
  2029                           ; BSR set to: 57
  2030   001A1E  0012               	return		;funcret
  2031   001A20                     __end_of_UART1_Write:
  2032                           	callstack 0
  2033                           
  2034 ;; *************** function _init_mdbdata *****************
  2035 ;; Defined at:
  2036 ;;		line 13 in file "mdb.c"
  2037 ;; Parameters:    Size  Location     Type
  2038 ;;  initdata        1    wreg     unsigned char 
  2039 ;; Auto vars:     Size  Location     Type
  2040 ;;  initdata        1   13[COMRAM] unsigned char 
  2041 ;;  i               1   14[COMRAM] unsigned char 
  2042 ;; Return value:  Size  Location     Type
  2043 ;;                  1    wreg      void 
  2044 ;; Registers used:
  2045 ;;		wreg, fsr2l, fsr2h, status,2, status,0
  2046 ;; Tracked objects:
  2047 ;;		On entry : 0/0
  2048 ;;		On exit  : 0/0
  2049 ;;		Unchanged: 0/0
  2050 ;; Data sizes:     COMRAM   BANK0   BANK1   BANK2   BANK3   BANK4   BANK5   BANK6   BANK7
  2051 ;;      Params:         0       0       0       0       0       0       0       0       0
  2052 ;;      Locals:         2       0       0       0       0       0       0       0       0
  2053 ;;      Temps:          0       0       0       0       0       0       0       0       0
  2054 ;;      Totals:         2       0       0       0       0       0       0       0       0
  2055 ;;Total ram usage:        2 bytes
  2056 ;; Hardware stack levels used: 1
  2057 ;; Hardware stack levels required when called: 9
  2058 ;; This function calls:
  2059 ;;		Nothing
  2060 ;; This function is called by:
  2061 ;;		_mdb_noten
  2062 ;;		_mdb_security
  2063 ;;		_mdb_comm
  2064 ;; This function uses a non-reentrant model
  2065 ;;
  2066                           
  2067                           	psect	text11
  2068   0018B6                     __ptext11:
  2069                           	callstack 0
  2070   0018B6                     _init_mdbdata:
  2071                           	callstack 18
  2072                           
  2073                           ; BSR set to: 57
  2074                           ;incstack = 0
  2075                           ;init_mdbdata@initdata stored from wreg
  2076   0018B6  6E37               	movwf	init_mdbdata@initdata^0,c
  2077   0018B8                     
  2078                           ;mdb.c: 13: void init_mdbdata(uint8_t initdata);mdb.c: 14: {;mdb.c: 15:     for(uint8_t 
      +                          i = 0;i < 33; i++)
  2079   0018B8  0E00               	movlw	0
  2080   0018BA  6E38               	movwf	init_mdbdata@i^0,c
  2081   0018BC                     l3778:
  2082                           
  2083                           ;mdb.c: 16:     {;mdb.c: 17:         mdbdata[i] = initdata;
  2084   0018BC  0E60               	movlw	low _mdbdata
  2085   0018BE  2438               	addwf	init_mdbdata@i^0,w,c
  2086   0018C0  6ED9               	movwf	fsr2l,c
  2087   0018C2  6ADA               	clrf	fsr2h,c
  2088   0018C4  0E00               	movlw	high _mdbdata
  2089   0018C6  22DA               	addwfc	fsr2h,f,c
  2090   0018C8  0060  F0DF  FFDF   	movff	init_mdbdata@initdata,indf2
  2091   0018CE                     
  2092                           ;mdb.c: 18:     }
  2093   0018CE  2A38               	incf	init_mdbdata@i^0,f,c
  2094   0018D0  0E20               	movlw	32
  2095   0018D2  6438               	cpfsgt	init_mdbdata@i^0,c
  2096   0018D4  EF6E  F00C         	goto	u1711
  2097   0018D8  EF70  F00C         	goto	u1710
  2098   0018DC                     u1711:
  2099   0018DC  EF5E  F00C         	goto	l3778
  2100   0018E0                     u1710:
  2101   0018E0  0012               	return		;funcret
  2102   0018E2                     __end_of_init_mdbdata:
  2103                           	callstack 0
  2104                           
  2105 ;; *************** function _UART1_SetAddresstoTransmit *****************
  2106 ;; Defined at:
  2107 ;;		line 179 in file "mcc_generated_files/uart1.c"
  2108 ;; Parameters:    Size  Location     Type
  2109 ;;  txAddress       1    wreg     unsigned char 
  2110 ;; Auto vars:     Size  Location     Type
  2111 ;;  txAddress       1   13[COMRAM] unsigned char 
  2112 ;; Return value:  Size  Location     Type
  2113 ;;                  1    wreg      void 
  2114 ;; Registers used:
  2115 ;;		wreg
  2116 ;; Tracked objects:
  2117 ;;		On entry : 0/0
  2118 ;;		On exit  : 0/0
  2119 ;;		Unchanged: 0/0
  2120 ;; Data sizes:     COMRAM   BANK0   BANK1   BANK2   BANK3   BANK4   BANK5   BANK6   BANK7
  2121 ;;      Params:         0       0       0       0       0       0       0       0       0
  2122 ;;      Locals:         1       0       0       0       0       0       0       0       0
  2123 ;;      Temps:          0       0       0       0       0       0       0       0       0
  2124 ;;      Totals:         1       0       0       0       0       0       0       0       0
  2125 ;;Total ram usage:        1 bytes
  2126 ;; Hardware stack levels used: 1
  2127 ;; Hardware stack levels required when called: 9
  2128 ;; This function calls:
  2129 ;;		Nothing
  2130 ;; This function is called by:
  2131 ;;		_mdb_comm
  2132 ;; This function uses a non-reentrant model
  2133 ;;
  2134                           
  2135                           	psect	text12
  2136   001BC8                     __ptext12:
  2137                           	callstack 0
  2138   001BC8                     _UART1_SetAddresstoTransmit:
  2139                           	callstack 18
  2140                           
  2141                           ;incstack = 0
  2142                           ;UART1_SetAddresstoTransmit@txAddress stored from wreg
  2143   001BC8  6E37               	movwf	UART1_SetAddresstoTransmit@txAddress^0,c
  2144   001BCA                     
  2145                           ;mcc_generated_files/uart1.c: 179: void UART1_SetAddresstoTransmit(uint8_t txAddress);mc
      +                          c_generated_files/uart1.c: 180: {;mcc_generated_files/uart1.c: 181:     U1P1L = txAddres
      +                          s;
  2146   001BCA  0060  F0DF  FDEC   	movff	UART1_SetAddresstoTransmit@txAddress,15852	;volatile
  2147   001BD0  0012               	return		;funcret
  2148   001BD2                     __end_of_UART1_SetAddresstoTransmit:
  2149                           	callstack 0
  2150                           
  2151 ;; *************** function _UART1_Read *****************
  2152 ;; Defined at:
  2153 ;;		line 145 in file "mcc_generated_files/uart1.c"
  2154 ;; Parameters:    Size  Location     Type
  2155 ;;		None
  2156 ;; Auto vars:     Size  Location     Type
  2157 ;;		None
  2158 ;; Return value:  Size  Location     Type
  2159 ;;                  1    wreg      unsigned char 
  2160 ;; Registers used:
  2161 ;;		wreg, status,2, pcl, pclath, pclatu, tosl, cstack
  2162 ;; Tracked objects:
  2163 ;;		On entry : 0/0
  2164 ;;		On exit  : 0/0
  2165 ;;		Unchanged: 0/0
  2166 ;; Data sizes:     COMRAM   BANK0   BANK1   BANK2   BANK3   BANK4   BANK5   BANK6   BANK7
  2167 ;;      Params:         0       0       0       0       0       0       0       0       0
  2168 ;;      Locals:         0       0       0       0       0       0       0       0       0
  2169 ;;      Temps:          0       0       0       0       0       0       0       0       0
  2170 ;;      Totals:         0       0       0       0       0       0       0       0       0
  2171 ;;Total ram usage:        0 bytes
  2172 ;; Hardware stack levels used: 1
  2173 ;; Hardware stack levels required when called: 10
  2174 ;; This function calls:
  2175 ;;		Absolute function
  2176 ;;		_UART1_DefaultErrorHandler
  2177 ;;		_UART1_DefaultFramingErrorHandler
  2178 ;;		_UART1_DefaultOverrunErrorHandler
  2179 ;; This function is called by:
  2180 ;;		_mdb_comm
  2181 ;; This function uses a non-reentrant model
  2182 ;;
  2183                           
  2184                           	psect	text13
  2185   000F0A                     __ptext13:
  2186                           	callstack 0
  2187   000F0A                     _UART1_Read:
  2188                           	callstack 17
  2189   000F0A                     l522:
  2190                           
  2191                           ;mcc_generated_files/uart1.c: 147:     while(!PIR3bits.U1RXIF)
  2192   000F0A  0139               	movlb	57	; () banked
  2193   000F0C  A7A3               	btfss	163,3,b	;volatile
  2194   000F0E  EF8B  F007         	goto	u1641
  2195   000F12  EF8D  F007         	goto	u1640
  2196   000F16                     u1641:
  2197   000F16  EF85  F007         	goto	l522
  2198   000F1A                     u1640:
  2199   000F1A                     
  2200                           ; BSR set to: 57
  2201                           ;mcc_generated_files/uart1.c: 151:     uart1RxLastError.status = 0;
  2202   000F1A  0E00               	movlw	0
  2203   000F1C  6E27               	movwf	_uart1RxLastError^0,c	;volatile
  2204   000F1E                     
  2205                           ; BSR set to: 57
  2206                           ;mcc_generated_files/uart1.c: 153:     if(U1ERRIRbits.FERIF){
  2207   000F1E  013D               	movlb	61	; () banked
  2208   000F20  A7F9               	btfss	249,3,b	;volatile
  2209   000F22  EF95  F007         	goto	u1651
  2210   000F26  EF97  F007         	goto	u1650
  2211   000F2A                     u1651:
  2212   000F2A  EFA5  F007         	goto	l3756
  2213   000F2E                     u1650:
  2214   000F2E                     
  2215                           ; BSR set to: 61
  2216                           ;mcc_generated_files/uart1.c: 154:         uart1RxLastError.ferr = 1;
  2217   000F2E  8227               	bsf	_uart1RxLastError^0,1,c	;volatile
  2218   000F30                     
  2219                           ; BSR set to: 61
  2220                           ;mcc_generated_files/uart1.c: 155:         UART1_FramingErrorHandler();
  2221   000F30  D802               	call	u1668
  2222   000F32  EFA5  F007         	goto	u1669
  2223   000F36                     u1668:
  2224   000F36  0005               	push	
  2225   000F38  6EFA               	movwf	pclath,c
  2226   000F3A  5011               	movf	_UART1_FramingErrorHandler^0,w,c
  2227   000F3C  6EFD               	movwf	tosl,c
  2228   000F3E  5012               	movf	(_UART1_FramingErrorHandler+1)^0,w,c
  2229   000F40  6EFE               	movwf	tosh,c
  2230   000F42  50F8               	movf	tblptru,w,c
  2231   000F44  6EFF               	movwf	tosu,c
  2232   000F46  50FA               	movf	pclath,w,c
  2233   000F48  0012               	return		;indir
  2234   000F4A                     u1669:
  2235   000F4A                     l3756:
  2236                           
  2237                           ;mcc_generated_files/uart1.c: 158:     if(U1ERRIRbits.RXFOIF){
  2238   000F4A  013D               	movlb	61	; () banked
  2239   000F4C  A3F9               	btfss	249,1,b	;volatile
  2240   000F4E  EFAB  F007         	goto	u1671
  2241   000F52  EFAD  F007         	goto	u1670
  2242   000F56                     u1671:
  2243   000F56  EFBB  F007         	goto	l3762
  2244   000F5A                     u1670:
  2245   000F5A                     
  2246                           ; BSR set to: 61
  2247                           ;mcc_generated_files/uart1.c: 159:         uart1RxLastError.oerr = 1;
  2248   000F5A  8427               	bsf	_uart1RxLastError^0,2,c	;volatile
  2249   000F5C                     
  2250                           ; BSR set to: 61
  2251                           ;mcc_generated_files/uart1.c: 160:         UART1_OverrunErrorHandler();
  2252   000F5C  D802               	call	u1688
  2253   000F5E  EFBB  F007         	goto	u1689
  2254   000F62                     u1688:
  2255   000F62  0005               	push	
  2256   000F64  6EFA               	movwf	pclath,c
  2257   000F66  500F               	movf	_UART1_OverrunErrorHandler^0,w,c
  2258   000F68  6EFD               	movwf	tosl,c
  2259   000F6A  5010               	movf	(_UART1_OverrunErrorHandler+1)^0,w,c
  2260   000F6C  6EFE               	movwf	tosh,c
  2261   000F6E  50F8               	movf	tblptru,w,c
  2262   000F70  6EFF               	movwf	tosu,c
  2263   000F72  50FA               	movf	pclath,w,c
  2264   000F74  0012               	return		;indir
  2265   000F76                     u1689:
  2266   000F76                     l3762:
  2267                           
  2268                           ;mcc_generated_files/uart1.c: 163:     if(uart1RxLastError.status){
  2269   000F76  5027               	movf	_uart1RxLastError^0,w,c	;volatile
  2270   000F78  B4D8               	btfsc	status,2,c
  2271   000F7A  EFC1  F007         	goto	u1691
  2272   000F7E  EFC3  F007         	goto	u1690
  2273   000F82                     u1691:
  2274   000F82  EFD0  F007         	goto	l3766
  2275   000F86                     u1690:
  2276   000F86                     
  2277                           ;mcc_generated_files/uart1.c: 164:         UART1_ErrorHandler();
  2278   000F86  D802               	call	u1708
  2279   000F88  EFD0  F007         	goto	u1709
  2280   000F8C                     u1708:
  2281   000F8C  0005               	push	
  2282   000F8E  6EFA               	movwf	pclath,c
  2283   000F90  500D               	movf	_UART1_ErrorHandler^0,w,c
  2284   000F92  6EFD               	movwf	tosl,c
  2285   000F94  500E               	movf	(_UART1_ErrorHandler+1)^0,w,c
  2286   000F96  6EFE               	movwf	tosh,c
  2287   000F98  50F8               	movf	tblptru,w,c
  2288   000F9A  6EFF               	movwf	tosu,c
  2289   000F9C  50FA               	movf	pclath,w,c
  2290   000F9E  0012               	return		;indir
  2291   000FA0                     u1709:
  2292   000FA0                     l3766:
  2293                           
  2294                           ;mcc_generated_files/uart1.c: 167:     return U1RXB;
  2295   000FA0  013D               	movlb	61	; () banked
  2296   000FA2  51E8               	movf	232,w,b	;volatile
  2297   000FA4                     
  2298                           ; BSR set to: 61
  2299   000FA4  0012               	return		;funcret
  2300   000FA6                     __end_of_UART1_Read:
  2301                           	callstack 0
  2302                           
  2303 ;; *************** function _UART1_DefaultOverrunErrorHandler *****************
  2304 ;; Defined at:
  2305 ;;		line 190 in file "mcc_generated_files/uart1.c"
  2306 ;; Parameters:    Size  Location     Type
  2307 ;;		None
  2308 ;; Auto vars:     Size  Location     Type
  2309 ;;		None
  2310 ;; Return value:  Size  Location     Type
  2311 ;;                  1    wreg      void 
  2312 ;; Registers used:
  2313 ;;		None
  2314 ;; Tracked objects:
  2315 ;;		On entry : 0/0
  2316 ;;		On exit  : 0/0
  2317 ;;		Unchanged: 0/0
  2318 ;; Data sizes:     COMRAM   BANK0   BANK1   BANK2   BANK3   BANK4   BANK5   BANK6   BANK7
  2319 ;;      Params:         0       0       0       0       0       0       0       0       0
  2320 ;;      Locals:         0       0       0       0       0       0       0       0       0
  2321 ;;      Temps:          0       0       0       0       0       0       0       0       0
  2322 ;;      Totals:         0       0       0       0       0       0       0       0       0
  2323 ;;Total ram usage:        0 bytes
  2324 ;; Hardware stack levels used: 1
  2325 ;; Hardware stack levels required when called: 9
  2326 ;; This function calls:
  2327 ;;		Nothing
  2328 ;; This function is called by:
  2329 ;;		_UART1_Initialize
  2330 ;;		i2_UART1_Read
  2331 ;;		_UART1_Read
  2332 ;; This function uses a non-reentrant model
  2333 ;;
  2334                           
  2335                           	psect	text14
  2336   001B8C                     __ptext14:
  2337                           	callstack 0
  2338   001B8C                     _UART1_DefaultOverrunErrorHandler:
  2339                           	callstack 0
  2340                           
  2341                           ; BSR set to: 61
  2342   000000                     
  2343                           ;Skip over the trampoline to the duplicate function for level 2
  2344   001B8C  AED3               	btfss	211,7,c
  2345   001B8E  EFCB  F00D         	goto	_UART1_DefaultOverrunErrorHandler$intlevel0
  2346   001B92  EF1D  F00E         	goto	i2_UART1_DefaultOverrunErrorHandler
  2347   001B96                     _UART1_DefaultOverrunErrorHandler$intlevel0:
  2348                           	callstack 17
  2349   001B96  0012               	return		;funcret
  2350   001B98                     __end_of_UART1_DefaultOverrunErrorHandler:
  2351                           	callstack 0
  2352                           
  2353 ;; *************** function _UART1_DefaultFramingErrorHandler *****************
  2354 ;; Defined at:
  2355 ;;		line 188 in file "mcc_generated_files/uart1.c"
  2356 ;; Parameters:    Size  Location     Type
  2357 ;;		None
  2358 ;; Auto vars:     Size  Location     Type
  2359 ;;		None
  2360 ;; Return value:  Size  Location     Type
  2361 ;;                  1    wreg      void 
  2362 ;; Registers used:
  2363 ;;		None
  2364 ;; Tracked objects:
  2365 ;;		On entry : 0/0
  2366 ;;		On exit  : 0/0
  2367 ;;		Unchanged: 0/0
  2368 ;; Data sizes:     COMRAM   BANK0   BANK1   BANK2   BANK3   BANK4   BANK5   BANK6   BANK7
  2369 ;;      Params:         0       0       0       0       0       0       0       0       0
  2370 ;;      Locals:         0       0       0       0       0       0       0       0       0
  2371 ;;      Temps:          0       0       0       0       0       0       0       0       0
  2372 ;;      Totals:         0       0       0       0       0       0       0       0       0
  2373 ;;Total ram usage:        0 bytes
  2374 ;; Hardware stack levels used: 1
  2375 ;; Hardware stack levels required when called: 9
  2376 ;; This function calls:
  2377 ;;		Nothing
  2378 ;; This function is called by:
  2379 ;;		_UART1_Initialize
  2380 ;;		i2_UART1_Read
  2381 ;;		_UART1_Read
  2382 ;; This function uses a non-reentrant model
  2383 ;;
  2384                           
  2385                           	psect	text15
  2386   001B98                     __ptext15:
  2387                           	callstack 0
  2388   001B98                     _UART1_DefaultFramingErrorHandler:
  2389                           	callstack 0
  2390                           
  2391                           ;Skip over the trampoline to the duplicate function for level 2
  2392   001B98  AED3               	btfss	211,7,c
  2393   001B9A  EFD1  F00D         	goto	_UART1_DefaultFramingErrorHandler$intlevel0
  2394   001B9E  EF1E  F00E         	goto	i2_UART1_DefaultFramingErrorHandler
  2395   001BA2                     _UART1_DefaultFramingErrorHandler$intlevel0:
  2396                           	callstack 17
  2397   001BA2  0012               	return		;funcret
  2398   001BA4                     __end_of_UART1_DefaultFramingErrorHandler:
  2399                           	callstack 0
  2400                           
  2401 ;; *************** function _UART1_DefaultErrorHandler *****************
  2402 ;; Defined at:
  2403 ;;		line 192 in file "mcc_generated_files/uart1.c"
  2404 ;; Parameters:    Size  Location     Type
  2405 ;;		None
  2406 ;; Auto vars:     Size  Location     Type
  2407 ;;		None
  2408 ;; Return value:  Size  Location     Type
  2409 ;;                  1    wreg      void 
  2410 ;; Registers used:
  2411 ;;		None
  2412 ;; Tracked objects:
  2413 ;;		On entry : 0/0
  2414 ;;		On exit  : 0/0
  2415 ;;		Unchanged: 0/0
  2416 ;; Data sizes:     COMRAM   BANK0   BANK1   BANK2   BANK3   BANK4   BANK5   BANK6   BANK7
  2417 ;;      Params:         0       0       0       0       0       0       0       0       0
  2418 ;;      Locals:         0       0       0       0       0       0       0       0       0
  2419 ;;      Temps:          0       0       0       0       0       0       0       0       0
  2420 ;;      Totals:         0       0       0       0       0       0       0       0       0
  2421 ;;Total ram usage:        0 bytes
  2422 ;; Hardware stack levels used: 1
  2423 ;; Hardware stack levels required when called: 9
  2424 ;; This function calls:
  2425 ;;		Nothing
  2426 ;; This function is called by:
  2427 ;;		_UART1_Initialize
  2428 ;;		i2_UART1_Read
  2429 ;;		_UART1_Read
  2430 ;; This function uses a non-reentrant model
  2431 ;;
  2432                           
  2433                           	psect	text16
  2434   001BA4                     __ptext16:
  2435                           	callstack 0
  2436   001BA4                     _UART1_DefaultErrorHandler:
  2437                           	callstack 0
  2438                           
  2439                           ;Skip over the trampoline to the duplicate function for level 2
  2440   001BA4  AED3               	btfss	211,7,c
  2441   001BA6  EFD7  F00D         	goto	_UART1_DefaultErrorHandler$intlevel0
  2442   001BAA  EF1F  F00E         	goto	i2_UART1_DefaultErrorHandler
  2443   001BAE                     _UART1_DefaultErrorHandler$intlevel0:
  2444                           	callstack 17
  2445   001BAE  0012               	return		;funcret
  2446   001BB0                     __end_of_UART1_DefaultErrorHandler:
  2447                           	callstack 0
  2448                           
  2449 ;; *************** function _enter_service *****************
  2450 ;; Defined at:
  2451 ;;		line 131 in file "vend.c"
  2452 ;; Parameters:    Size  Location     Type
  2453 ;;		None
  2454 ;; Auto vars:     Size  Location     Type
  2455 ;;		None
  2456 ;; Return value:  Size  Location     Type
  2457 ;;                  1    wreg      void 
  2458 ;; Registers used:
  2459 ;;		wreg, fsr2l, fsr2h, status,2, status,0, cstack
  2460 ;; Tracked objects:
  2461 ;;		On entry : 0/0
  2462 ;;		On exit  : 0/0
  2463 ;;		Unchanged: 0/0
  2464 ;; Data sizes:     COMRAM   BANK0   BANK1   BANK2   BANK3   BANK4   BANK5   BANK6   BANK7
  2465 ;;      Params:         0       0       0       0       0       0       0       0       0
  2466 ;;      Locals:         0       0       0       0       0       0       0       0       0
  2467 ;;      Temps:          2       0       0       0       0       0       0       0       0
  2468 ;;      Totals:         2       0       0       0       0       0       0       0       0
  2469 ;;Total ram usage:        2 bytes
  2470 ;; Hardware stack levels used: 1
  2471 ;; Hardware stack levels required when called: 11
  2472 ;; This function calls:
  2473 ;;		_DATAEE_WriteByte
  2474 ;;		_Set_Timeout
  2475 ;;		_button_flash
  2476 ;;		_switch_read
  2477 ;; This function is called by:
  2478 ;;		_main
  2479 ;; This function uses a non-reentrant model
  2480 ;;
  2481                           
  2482                           	psect	text17
  2483   000E2E                     __ptext17:
  2484                           	callstack 0
  2485   000E2E                     _enter_service:
  2486                           	callstack 19
  2487   000E2E  0E00               	movlw	0
  2488   000E30  6E37               	movwf	DATAEE_WriteByte@bData^0,c
  2489   000E32  0E02               	movlw	2
  2490   000E34  ECB6  F00A         	call	_DATAEE_WriteByte
  2491   000E38  0E00               	movlw	0
  2492   000E3A  6E37               	movwf	DATAEE_WriteByte@bData^0,c
  2493   000E3C  0E00               	movlw	0
  2494   000E3E  ECB6  F00A         	call	_DATAEE_WriteByte
  2495   000E42                     
  2496                           ;vend.c: 136:     credit = 0x00;
  2497   000E42  0E00               	movlw	0
  2498   000E44  6E25               	movwf	_credit^0,c	;volatile
  2499   000E46                     
  2500                           ;vend.c: 137:     venflags.priceset = 0;
  2501   000E46  9801               	bcf	_venflags^0,4,c
  2502   000E48  88BA               	bsf	186,4,c	;volatile
  2503   000E4A                     l1131:
  2504   000E4A  A6CA               	btfss	202,3,c	;volatile
  2505   000E4C  EF2A  F007         	goto	u2011
  2506   000E50  EF2C  F007         	goto	u2010
  2507   000E54                     u2011:
  2508   000E54  EF25  F007         	goto	l1131
  2509   000E58                     u2010:
  2510   000E58                     
  2511                           ;vend.c: 140:     _delay((unsigned long)((500)*(12000000/4000.0)));
  2512   000E58  0E08               	movlw	8
  2513   000E5A  6E44               	movwf	(??_enter_service+1)^0,c
  2514   000E5C  0E9D               	movlw	157
  2515   000E5E  6E43               	movwf	??_enter_service^0,c
  2516   000E60  0E06               	movlw	6
  2517   000E62                     u2377:
  2518   000E62  2EE8               	decfsz	wreg,f,c
  2519   000E64  D7FE               	bra	u2377
  2520   000E66  2E43               	decfsz	??_enter_service^0,f,c
  2521   000E68  D7FC               	bra	u2377
  2522   000E6A  2E44               	decfsz	(??_enter_service+1)^0,f,c
  2523   000E6C  D7FA               	bra	u2377
  2524                           
  2525                           ;vend.c: 141:     while(PORTAbits.RA3)
  2526   000E6E  EF64  F007         	goto	l4268
  2527   000E72                     l4252:
  2528                           
  2529                           ;vend.c: 142:     {;vend.c: 143:         button_flash();
  2530   000E72  EC66  F00A         	call	_button_flash	;wreg free
  2531   000E76                     
  2532                           ;vend.c: 144:         if(!PORTAbits.RA6 && !venflags.priceset)
  2533   000E76  BCCA               	btfsc	202,6,c	;volatile
  2534   000E78  EF40  F007         	goto	u2021
  2535   000E7C  EF42  F007         	goto	u2020
  2536   000E80                     u2021:
  2537   000E80  EF4D  F007         	goto	l4260
  2538   000E84                     u2020:
  2539   000E84  B801               	btfsc	_venflags^0,4,c
  2540   000E86  EF47  F007         	goto	u2031
  2541   000E8A  EF49  F007         	goto	u2030
  2542   000E8E                     u2031:
  2543   000E8E  EF4D  F007         	goto	l4260
  2544   000E92                     u2030:
  2545   000E92  98BA               	bcf	186,4,c	;volatile
  2546   000E94                     
  2547                           ;vend.c: 147:             Set_Timeout();
  2548   000E94  EC21  F008         	call	_Set_Timeout	;wreg free
  2549   000E98  00FF               	reset		;# 
  2550   000E9A                     l4260:
  2551                           
  2552                           ;vend.c: 150:         if(switch_read())
  2553   000E9A  EC32  F009         	call	_switch_read	;wreg free
  2554   000E9E  0900               	iorlw	0
  2555   000EA0  B4D8               	btfsc	status,2,c
  2556   000EA2  EF55  F007         	goto	u2041
  2557   000EA6  EF57  F007         	goto	u2040
  2558   000EAA                     u2041:
  2559   000EAA  EF64  F007         	goto	l4268
  2560   000EAE                     u2040:
  2561   000EAE                     
  2562                           ;vend.c: 151:         {;vend.c: 152:             venflags.priceset = 1;
  2563   000EAE  8801               	bsf	_venflags^0,4,c
  2564   000EB0                     l4264:
  2565   000EB0  EC32  F009         	call	_switch_read	;wreg free
  2566   000EB4  0900               	iorlw	0
  2567   000EB6  A4D8               	btfss	status,2,c
  2568   000EB8  EF60  F007         	goto	u2051
  2569   000EBC  EF62  F007         	goto	u2050
  2570   000EC0                     u2051:
  2571   000EC0  EF58  F007         	goto	l4264
  2572   000EC4                     u2050:
  2573   000EC4                     
  2574                           ;vend.c: 154:             credit++;
  2575   000EC4  2A25               	incf	_credit^0,f,c	;volatile
  2576   000EC6  F000               	nop		;# 
  2577   000EC8                     l4268:
  2578                           
  2579                           ;vend.c: 141:     while(PORTAbits.RA3)
  2580   000EC8  B6CA               	btfsc	202,3,c	;volatile
  2581   000ECA  EF69  F007         	goto	u2061
  2582   000ECE  EF6B  F007         	goto	u2060
  2583   000ED2                     u2061:
  2584   000ED2  EF39  F007         	goto	l4252
  2585   000ED6                     u2060:
  2586   000ED6                     
  2587                           ;vend.c: 158:     if(venflags.priceset)
  2588   000ED6  A801               	btfss	_venflags^0,4,c
  2589   000ED8  EF70  F007         	goto	u2071
  2590   000EDC  EF72  F007         	goto	u2070
  2591   000EE0                     u2071:
  2592   000EE0  EF77  F007         	goto	l4272
  2593   000EE4                     u2070:
  2594   000EE4  C025  F037         	movff	_credit,DATAEE_WriteByte@bData	;volatile
  2595   000EE8  0E01               	movlw	1
  2596   000EEA  ECB6  F00A         	call	_DATAEE_WriteByte
  2597   000EEE                     l4272:
  2598   000EEE  9CBC               	bcf	188,6,c	;volatile
  2599   000EF0                     
  2600                           ;vend.c: 164:     _delay((unsigned long)((1000)*(12000000/4000.0)));
  2601   000EF0  0E10               	movlw	16
  2602   000EF2  6E44               	movwf	(??_enter_service+1)^0,c
  2603   000EF4  0E39               	movlw	57
  2604   000EF6  6E43               	movwf	??_enter_service^0,c
  2605   000EF8  0E0E               	movlw	14
  2606   000EFA                     u2387:
  2607   000EFA  2EE8               	decfsz	wreg,f,c
  2608   000EFC  D7FE               	bra	u2387
  2609   000EFE  2E43               	decfsz	??_enter_service^0,f,c
  2610   000F00  D7FC               	bra	u2387
  2611   000F02  2E44               	decfsz	(??_enter_service+1)^0,f,c
  2612   000F04  D7FA               	bra	u2387
  2613   000F06  00FF               	reset		;# 
  2614   000F08  0012               	return		;funcret
  2615   000F0A                     __end_of_enter_service:
  2616                           	callstack 0
  2617                           
  2618 ;; *************** function _button_flash *****************
  2619 ;; Defined at:
  2620 ;;		line 116 in file "vend.c"
  2621 ;; Parameters:    Size  Location     Type
  2622 ;;		None
  2623 ;; Auto vars:     Size  Location     Type
  2624 ;;		None
  2625 ;; Return value:  Size  Location     Type
  2626 ;;                  1    wreg      void 
  2627 ;; Registers used:
  2628 ;;		wreg, status,2, status,0, cstack
  2629 ;; Tracked objects:
  2630 ;;		On entry : 0/0
  2631 ;;		On exit  : 0/0
  2632 ;;		Unchanged: 0/0
  2633 ;; Data sizes:     COMRAM   BANK0   BANK1   BANK2   BANK3   BANK4   BANK5   BANK6   BANK7
  2634 ;;      Params:         0       0       0       0       0       0       0       0       0
  2635 ;;      Locals:         0       0       0       0       0       0       0       0       0
  2636 ;;      Temps:          1       0       0       0       0       0       0       0       0
  2637 ;;      Totals:         1       0       0       0       0       0       0       0       0
  2638 ;;Total ram usage:        1 bytes
  2639 ;; Hardware stack levels used: 1
  2640 ;; Hardware stack levels required when called: 10
  2641 ;; This function calls:
  2642 ;;		_TMR3_Initialize
  2643 ;; This function is called by:
  2644 ;;		_main
  2645 ;;		_enter_service
  2646 ;; This function uses a non-reentrant model
  2647 ;;
  2648                           
  2649                           	psect	text18
  2650   0014CC                     __ptext18:
  2651                           	callstack 0
  2652   0014CC                     _button_flash:
  2653                           	callstack 19
  2654   0014CC                     
  2655                           ;vend.c: 118:     if(!venflags.bflash)
  2656   0014CC  B202               	btfsc	(_venflags+1)^0,1,c
  2657   0014CE  EF6B  F00A         	goto	u591
  2658   0014D2  EF6D  F00A         	goto	u590
  2659   0014D6                     u591:
  2660   0014D6  EF71  F00A         	goto	l2782
  2661   0014DA                     u590:
  2662   0014DA                     
  2663                           ;vend.c: 119:     {;vend.c: 120:         venflags.bflash = 1;
  2664   0014DA  8202               	bsf	(_venflags+1)^0,1,c
  2665   0014DC                     
  2666                           ;vend.c: 121:         TMR3_Initialize();
  2667   0014DC  ECB1  F00B         	call	_TMR3_Initialize	;wreg free
  2668   0014E0  8CBC               	bsf	188,6,c	;volatile
  2669   0014E2                     l2782:
  2670                           
  2671                           ;vend.c: 124:     if(PIR6bits.TMR3IF)
  2672   0014E2  0139               	movlb	57	; () banked
  2673   0014E4  ADA6               	btfss	166,6,b	;volatile
  2674   0014E6  EF77  F00A         	goto	u601
  2675   0014EA  EF79  F00A         	goto	u600
  2676   0014EE                     u601:
  2677   0014EE  EF8D  F00A         	goto	l1126
  2678   0014F2                     u600:
  2679   0014F2                     
  2680                           ; BSR set to: 57
  2681                           ;vend.c: 125:     {;vend.c: 126:         LATCbits.LC2 = ~LATCbits.LC2;
  2682   0014F2  B4BC               	btfsc	188,2,c	;volatile
  2683   0014F4  EF7E  F00A         	goto	u611
  2684   0014F8  EF81  F00A         	goto	u610
  2685   0014FC                     u611:
  2686   0014FC  0E01               	movlw	1
  2687   0014FE  EF82  F00A         	goto	u616
  2688   001502                     u610:
  2689   001502  0E00               	movlw	0
  2690   001504                     u616:
  2691   001504  0AFF               	xorlw	255
  2692   001506  6E39               	movwf	??_button_flash^0,c
  2693   001508  4639               	rlncf	??_button_flash^0,f,c
  2694   00150A  4639               	rlncf	??_button_flash^0,f,c
  2695   00150C  50BC               	movf	188,w,c	;volatile
  2696   00150E  1839               	xorwf	??_button_flash^0,w,c
  2697   001510  0BFB               	andlw	-5
  2698   001512  1839               	xorwf	??_button_flash^0,w,c
  2699   001514  6EBC               	movwf	188,c	;volatile
  2700   001516                     
  2701                           ; BSR set to: 57
  2702                           ;vend.c: 127:         TMR3_Initialize();
  2703   001516  ECB1  F00B         	call	_TMR3_Initialize	;wreg free
  2704   00151A                     l1126:
  2705   00151A  0012               	return		;funcret
  2706   00151C                     __end_of_button_flash:
  2707                           	callstack 0
  2708                           
  2709 ;; *************** function _Set_Timeout *****************
  2710 ;; Defined at:
  2711 ;;		line 168 in file "vend.c"
  2712 ;; Parameters:    Size  Location     Type
  2713 ;;		None
  2714 ;; Auto vars:     Size  Location     Type
  2715 ;;  timeval         2   23[COMRAM] PTR unsigned char 
  2716 ;;		 -> timeout(2), 
  2717 ;;  readValHigh     1   22[COMRAM] unsigned char 
  2718 ;;  readValLow      1   21[COMRAM] unsigned char 
  2719 ;; Return value:  Size  Location     Type
  2720 ;;                  1    wreg      void 
  2721 ;; Registers used:
  2722 ;;		wreg, fsr2l, fsr2h, status,2, status,0, cstack
  2723 ;; Tracked objects:
  2724 ;;		On entry : 0/0
  2725 ;;		On exit  : 0/0
  2726 ;;		Unchanged: 0/0
  2727 ;; Data sizes:     COMRAM   BANK0   BANK1   BANK2   BANK3   BANK4   BANK5   BANK6   BANK7
  2728 ;;      Params:         0       0       0       0       0       0       0       0       0
  2729 ;;      Locals:         4       0       0       0       0       0       0       0       0
  2730 ;;      Temps:          0       0       0       0       0       0       0       0       0
  2731 ;;      Totals:         4       0       0       0       0       0       0       0       0
  2732 ;;Total ram usage:        4 bytes
  2733 ;; Hardware stack levels used: 1
  2734 ;; Hardware stack levels required when called: 10
  2735 ;; This function calls:
  2736 ;;		_DATAEE_WriteByte
  2737 ;;		_TMR1_Initialize
  2738 ;;		_TMR1_ReadTimer
  2739 ;;		_TMR1_StopTimer
  2740 ;; This function is called by:
  2741 ;;		_enter_service
  2742 ;; This function uses a non-reentrant model
  2743 ;;
  2744                           
  2745                           	psect	text19
  2746   001042                     __ptext19:
  2747                           	callstack 0
  2748   001042                     _Set_Timeout:
  2749                           	callstack 19
  2750   001042                     
  2751                           ;vend.c: 170:     TMR1_Initialize();
  2752   001042  ECCC  F00B         	call	_TMR1_Initialize	;wreg free
  2753                           
  2754                           ;vend.c: 171:     while(!PIR4bits.TMR1IF)
  2755   001046  EF5F  F008         	goto	l1150
  2756   00104A                     l1152:
  2757                           
  2758                           ; BSR set to: 57
  2759   00104A  80BB               	bsf	187,0,c	;volatile
  2760   00104C                     
  2761                           ; BSR set to: 57
  2762                           ;vend.c: 174:         if(!CM1CON0bits.C1OUT)
  2763   00104C  013E               	movlb	62	; () banked
  2764   00104E  BDBC               	btfsc	188,6,b	;volatile
  2765   001050  EF2C  F008         	goto	u1951
  2766   001054  EF2E  F008         	goto	u1950
  2767   001058                     u1951:
  2768   001058  EF5F  F008         	goto	l1150
  2769   00105C                     u1950:
  2770   00105C                     
  2771                           ; BSR set to: 62
  2772   00105C  90BB               	bcf	187,0,c	;volatile
  2773   00105E                     
  2774                           ; BSR set to: 62
  2775                           ;vend.c: 177:             TMR1_StopTimer();
  2776   00105E  EC16  F00E         	call	_TMR1_StopTimer	;wreg free
  2777   001062                     
  2778                           ;vend.c: 178:             timeout = TMR1_ReadTimer();
  2779   001062  ECDF  F00C         	call	_TMR1_ReadTimer	;wreg free
  2780   001066  C037  F028         	movff	?_TMR1_ReadTimer,_timeout	;volatile
  2781   00106A  C038  F029         	movff	?_TMR1_ReadTimer+1,_timeout+1	;volatile
  2782   00106E                     
  2783                           ;vend.c: 179:             timeout = 0x00 - timeout;
  2784   00106E  5028               	movf	_timeout^0,w,c	;volatile
  2785   001070  0800               	sublw	0
  2786   001072  6E28               	movwf	_timeout^0,c	;volatile
  2787   001074  5029               	movf	(_timeout+1)^0,w,c	;volatile
  2788   001076  A0D8               	btfss	status,0,c
  2789   001078  2AE8               	incf	wreg,f,c
  2790   00107A  0800               	sublw	0
  2791   00107C  6E29               	movwf	(_timeout+1)^0,c	;volatile
  2792   00107E                     
  2793                           ;vend.c: 180:             uint8_t *timeval = &timeout;
  2794   00107E  0E28               	movlw	low _timeout
  2795   001080  6E41               	movwf	Set_Timeout@timeval^0,c
  2796   001082  0E00               	movlw	high _timeout
  2797   001084  6E42               	movwf	(Set_Timeout@timeval+1)^0,c
  2798   001086                     
  2799                           ;vend.c: 181:             uint8_t readValLow = timeval[0];
  2800   001086  0060  F107  FFD9   	movff	Set_Timeout@timeval,fsr2l
  2801   00108C  0060  F10B  FFDA   	movff	Set_Timeout@timeval+1,fsr2h
  2802   001092  50DF               	movf	indf2,w,c
  2803   001094  6E3F               	movwf	Set_Timeout@readValLow^0,c
  2804   001096                     
  2805                           ;vend.c: 182:             uint8_t readValHigh = timeval[1];
  2806   001096  EE20 F001          	lfsr	2,1
  2807   00109A  5041               	movf	Set_Timeout@timeval^0,w,c
  2808   00109C  26D9               	addwf	fsr2l,f,c
  2809   00109E  5042               	movf	(Set_Timeout@timeval+1)^0,w,c
  2810   0010A0  22DA               	addwfc	fsr2h,f,c
  2811   0010A2  50DF               	movf	indf2,w,c
  2812   0010A4  6E40               	movwf	Set_Timeout@readValHigh^0,c
  2813   0010A6  C03F  F037         	movff	Set_Timeout@readValLow,DATAEE_WriteByte@bData
  2814   0010AA  0E03               	movlw	3
  2815   0010AC  ECB6  F00A         	call	_DATAEE_WriteByte
  2816   0010B0  C040  F037         	movff	Set_Timeout@readValHigh,DATAEE_WriteByte@bData
  2817   0010B4  0E04               	movlw	4
  2818   0010B6  ECB6  F00A         	call	_DATAEE_WriteByte
  2819                           
  2820                           ;vend.c: 185:             break;
  2821   0010BA  EF67  F008         	goto	l1158
  2822   0010BE                     l1150:
  2823                           
  2824                           ;vend.c: 171:     while(!PIR4bits.TMR1IF)
  2825   0010BE  0139               	movlb	57	; () banked
  2826   0010C0  A1A4               	btfss	164,0,b	;volatile
  2827   0010C2  EF65  F008         	goto	u1961
  2828   0010C6  EF67  F008         	goto	u1960
  2829   0010CA                     u1961:
  2830   0010CA  EF25  F008         	goto	l1152
  2831   0010CE                     u1960:
  2832   0010CE                     l1158:
  2833   0010CE  0012               	return		;funcret
  2834   0010D0                     __end_of_Set_Timeout:
  2835                           	callstack 0
  2836                           
  2837 ;; *************** function _TMR1_ReadTimer *****************
  2838 ;; Defined at:
  2839 ;;		line 104 in file "mcc_generated_files/tmr1.c"
  2840 ;; Parameters:    Size  Location     Type
  2841 ;;		None
  2842 ;; Auto vars:     Size  Location     Type
  2843 ;;  readVal         2   17[COMRAM] unsigned short 
  2844 ;;  readValLow      1   20[COMRAM] unsigned char 
  2845 ;;  readValHigh     1   19[COMRAM] unsigned char 
  2846 ;; Return value:  Size  Location     Type
  2847 ;;                  2   13[COMRAM] unsigned short 
  2848 ;; Registers used:
  2849 ;;		wreg, status,2
  2850 ;; Tracked objects:
  2851 ;;		On entry : 0/0
  2852 ;;		On exit  : 0/0
  2853 ;;		Unchanged: 0/0
  2854 ;; Data sizes:     COMRAM   BANK0   BANK1   BANK2   BANK3   BANK4   BANK5   BANK6   BANK7
  2855 ;;      Params:         2       0       0       0       0       0       0       0       0
  2856 ;;      Locals:         4       0       0       0       0       0       0       0       0
  2857 ;;      Temps:          2       0       0       0       0       0       0       0       0
  2858 ;;      Totals:         8       0       0       0       0       0       0       0       0
  2859 ;;Total ram usage:        8 bytes
  2860 ;; Hardware stack levels used: 1
  2861 ;; Hardware stack levels required when called: 9
  2862 ;; This function calls:
  2863 ;;		Nothing
  2864 ;; This function is called by:
  2865 ;;		_Set_Timeout
  2866 ;; This function uses a non-reentrant model
  2867 ;;
  2868                           
  2869                           	psect	text20
  2870   0019BE                     __ptext20:
  2871                           	callstack 0
  2872   0019BE                     _TMR1_ReadTimer:
  2873                           	callstack 19
  2874   0019BE                     
  2875                           ;mcc_generated_files/tmr1.c: 106:     uint16_t readVal;;mcc_generated_files/tmr1.c: 107:
      +                               uint8_t readValHigh;;mcc_generated_files/tmr1.c: 108:     uint8_t readValLow;;mcc_g
      +                          enerated_files/tmr1.c: 110:     T1CONbits.T1RD16 = 1;
  2876   0019BE  82B2               	bsf	178,1,c	;volatile
  2877                           
  2878                           ;mcc_generated_files/tmr1.c: 112:     readValLow = TMR1L;
  2879   0019C0  006F FEC0  F03E    	movff	16304,TMR1_ReadTimer@readValLow	;volatile
  2880                           
  2881                           ;mcc_generated_files/tmr1.c: 113:     readValHigh = TMR1H;
  2882   0019C6  006F FEC4  F03D    	movff	16305,TMR1_ReadTimer@readValHigh	;volatile
  2883   0019CC                     
  2884                           ;mcc_generated_files/tmr1.c: 115:     readVal = ((uint16_t)readValHigh << 8) | readValLo
      +                          w;
  2885   0019CC  503D               	movf	TMR1_ReadTimer@readValHigh^0,w,c
  2886   0019CE  6E39               	movwf	??_TMR1_ReadTimer^0,c
  2887   0019D0  503E               	movf	TMR1_ReadTimer@readValLow^0,w,c
  2888   0019D2  6E3B               	movwf	TMR1_ReadTimer@readVal^0,c
  2889   0019D4  C039  F03C         	movff	??_TMR1_ReadTimer,TMR1_ReadTimer@readVal+1
  2890   0019D8                     
  2891                           ;mcc_generated_files/tmr1.c: 117:     return readVal;
  2892   0019D8  C03B  F037         	movff	TMR1_ReadTimer@readVal,?_TMR1_ReadTimer
  2893   0019DC  C03C  F038         	movff	TMR1_ReadTimer@readVal+1,?_TMR1_ReadTimer+1
  2894   0019E0  0012               	return		;funcret
  2895   0019E2                     __end_of_TMR1_ReadTimer:
  2896                           	callstack 0
  2897                           
  2898 ;; *************** function _dispense *****************
  2899 ;; Defined at:
  2900 ;;		line 81 in file "vend.c"
  2901 ;; Parameters:    Size  Location     Type
  2902 ;;		None
  2903 ;; Auto vars:     Size  Location     Type
  2904 ;;		None
  2905 ;; Return value:  Size  Location     Type
  2906 ;;                  1    wreg      void 
  2907 ;; Registers used:
  2908 ;;		wreg, status,2, status,0, cstack
  2909 ;; Tracked objects:
  2910 ;;		On entry : 0/0
  2911 ;;		On exit  : 0/0
  2912 ;;		Unchanged: 0/0
  2913 ;; Data sizes:     COMRAM   BANK0   BANK1   BANK2   BANK3   BANK4   BANK5   BANK6   BANK7
  2914 ;;      Params:         0       0       0       0       0       0       0       0       0
  2915 ;;      Locals:         0       0       0       0       0       0       0       0       0
  2916 ;;      Temps:          0       0       0       0       0       0       0       0       0
  2917 ;;      Totals:         0       0       0       0       0       0       0       0       0
  2918 ;;Total ram usage:        0 bytes
  2919 ;; Hardware stack levels used: 1
  2920 ;; Hardware stack levels required when called: 11
  2921 ;; This function calls:
  2922 ;;		_DATAEE_WriteByte
  2923 ;;		_TMR1_Initialize
  2924 ;;		_TMR1_StartTimer
  2925 ;;		_TMR1_StopTimer
  2926 ;;		_TMR1_WriteTimer
  2927 ;;		_credit_subtract
  2928 ;; This function is called by:
  2929 ;;		_main
  2930 ;; This function uses a non-reentrant model
  2931 ;;
  2932                           
  2933                           	psect	text21
  2934   0012E6                     __ptext21:
  2935                           	callstack 0
  2936   0012E6                     _dispense:
  2937                           	callstack 19
  2938   0012E6  98BA               	bcf	186,4,c	;volatile
  2939   0012E8                     
  2940                           ;vend.c: 84:     TMR1_Initialize();
  2941   0012E8  ECCC  F00B         	call	_TMR1_Initialize	;wreg free
  2942   0012EC                     
  2943                           ;vend.c: 85:     TMR1_StopTimer();
  2944   0012EC  EC16  F00E         	call	_TMR1_StopTimer	;wreg free
  2945   0012F0                     
  2946                           ;vend.c: 86:     TMR1_WriteTimer(timeout);
  2947   0012F0  C028  F037         	movff	_timeout,TMR1_WriteTimer@timerVal	;volatile
  2948   0012F4  C029  F038         	movff	_timeout+1,TMR1_WriteTimer@timerVal+1	;volatile
  2949   0012F8  EC71  F00C         	call	_TMR1_WriteTimer	;wreg free
  2950   0012FC                     
  2951                           ;vend.c: 87:     TMR1_StartTimer();
  2952   0012FC  EC18  F00E         	call	_TMR1_StartTimer	;wreg free
  2953   001300                     
  2954                           ;vend.c: 88:     DAC1CON1 = 0x0C;
  2955   001300  0E0C               	movlw	12
  2956   001302  013E               	movlb	62	; () banked
  2957   001304  6F9C               	movwf	156,b	;volatile
  2958                           
  2959                           ;vend.c: 89:     while(!PIR4bits.TMR1IF && CM1CON0bits.C1OUT)
  2960   001306  EF86  F009         	goto	l1105
  2961   00130A                     l1107:
  2962                           
  2963                           ; BSR set to: 62
  2964   00130A  80BB               	bsf	187,0,c	;volatile
  2965   00130C                     l1105:
  2966                           
  2967                           ; BSR set to: 62
  2968                           ;vend.c: 89:     while(!PIR4bits.TMR1IF && CM1CON0bits.C1OUT)
  2969   00130C  0139               	movlb	57	; () banked
  2970   00130E  B1A4               	btfsc	164,0,b	;volatile
  2971   001310  EF8C  F009         	goto	u2111
  2972   001314  EF8E  F009         	goto	u2110
  2973   001318                     u2111:
  2974   001318  EF96  F009         	goto	l1112
  2975   00131C                     u2110:
  2976   00131C                     
  2977                           ; BSR set to: 57
  2978   00131C  013E               	movlb	62	; () banked
  2979   00131E  BDBC               	btfsc	188,6,b	;volatile
  2980   001320  EF94  F009         	goto	u2121
  2981   001324  EF96  F009         	goto	u2120
  2982   001328                     u2121:
  2983   001328  EF85  F009         	goto	l1107
  2984   00132C                     u2120:
  2985   00132C                     l1112:
  2986   00132C  90BB               	bcf	187,0,c	;volatile
  2987   00132E                     
  2988                           ;vend.c: 94:     if(PIR4bits.TMR1IF)
  2989   00132E  0139               	movlb	57	; () banked
  2990   001330  A1A4               	btfss	164,0,b	;volatile
  2991   001332  EF9D  F009         	goto	u2131
  2992   001336  EF9F  F009         	goto	u2130
  2993   00133A                     u2131:
  2994   00133A  EFA7  F009         	goto	l4302
  2995   00133E                     u2130:
  2996   00133E                     
  2997                           ; BSR set to: 57
  2998   00133E  0EAA               	movlw	170
  2999   001340  6E37               	movwf	DATAEE_WriteByte@bData^0,c
  3000   001342  0E02               	movlw	2
  3001   001344  ECB6  F00A         	call	_DATAEE_WriteByte
  3002   001348  00FF               	reset		;# 
  3003                           
  3004                           ;vend.c: 98:     }
  3005   00134A  EFAB  F009         	goto	l1116
  3006   00134E                     l4302:
  3007                           
  3008                           ; BSR set to: 57
  3009                           ;vend.c: 100:     {;vend.c: 101:         credit_subtract(vendprice);
  3010   00134E  5022               	movf	_vendprice^0,w,c	;volatile
  3011   001350  EC00  F00C         	call	_credit_subtract
  3012   001354  00FF               	reset		;# 
  3013   001356                     l1116:
  3014   001356  0012               	return		;funcret
  3015   001358                     __end_of_dispense:
  3016                           	callstack 0
  3017                           
  3018 ;; *************** function _credit_subtract *****************
  3019 ;; Defined at:
  3020 ;;		line 68 in file "vend.c"
  3021 ;; Parameters:    Size  Location     Type
  3022 ;;  credit          1    wreg     unsigned char 
  3023 ;; Auto vars:     Size  Location     Type
  3024 ;;  credit          1   16[COMRAM] unsigned char 
  3025 ;; Return value:  Size  Location     Type
  3026 ;;                  1    wreg      void 
  3027 ;; Registers used:
  3028 ;;		wreg, status,2, status,0, cstack
  3029 ;; Tracked objects:
  3030 ;;		On entry : 0/0
  3031 ;;		On exit  : 0/0
  3032 ;;		Unchanged: 0/0
  3033 ;; Data sizes:     COMRAM   BANK0   BANK1   BANK2   BANK3   BANK4   BANK5   BANK6   BANK7
  3034 ;;      Params:         0       0       0       0       0       0       0       0       0
  3035 ;;      Locals:         1       0       0       0       0       0       0       0       0
  3036 ;;      Temps:          0       0       0       0       0       0       0       0       0
  3037 ;;      Totals:         1       0       0       0       0       0       0       0       0
  3038 ;;Total ram usage:        1 bytes
  3039 ;; Hardware stack levels used: 1
  3040 ;; Hardware stack levels required when called: 10
  3041 ;; This function calls:
  3042 ;;		_DATAEE_ReadByte
  3043 ;;		_DATAEE_WriteByte
  3044 ;; This function is called by:
  3045 ;;		_dispense
  3046 ;; This function uses a non-reentrant model
  3047 ;;
  3048                           
  3049                           	psect	text22
  3050   001800                     __ptext22:
  3051                           	callstack 0
  3052   001800                     _credit_subtract:
  3053                           	callstack 19
  3054                           
  3055                           ;incstack = 0
  3056                           ;credit_subtract@credit stored from wreg
  3057   001800  6E3A               	movwf	credit_subtract@credit^0,c
  3058   001802  0E00               	movlw	0
  3059   001804  EC10  F00D         	call	_DATAEE_ReadByte
  3060   001808  6E24               	movwf	_cash^0,c	;volatile
  3061   00180A                     
  3062                           ;vend.c: 71:     cash = (cash - credit) & 0xFF;
  3063   00180A  503A               	movf	credit_subtract@credit^0,w,c
  3064   00180C  5C24               	subwf	_cash^0,w,c	;volatile
  3065   00180E  6E24               	movwf	_cash^0,c	;volatile
  3066   001810  C024  F037         	movff	_cash,DATAEE_WriteByte@bData	;volatile
  3067   001814  0E00               	movlw	0
  3068   001816  ECB6  F00A         	call	_DATAEE_WriteByte
  3069   00181A                     
  3070                           ;vend.c: 73:     if(cash == 0)
  3071   00181A  5024               	movf	_cash^0,w,c	;volatile
  3072   00181C  A4D8               	btfss	status,2,c
  3073   00181E  EF13  F00C         	goto	u1941
  3074   001822  EF15  F00C         	goto	u1940
  3075   001826                     u1941:
  3076   001826  EF16  F00C         	goto	l1100
  3077   00182A                     u1940:
  3078   00182A                     
  3079                           ;vend.c: 74:     {;vend.c: 75:         venflags.iscredit = 0;
  3080   00182A  9001               	bcf	_venflags^0,0,c
  3081   00182C                     l1100:
  3082   00182C  0012               	return		;funcret
  3083   00182E                     __end_of_credit_subtract:
  3084                           	callstack 0
  3085                           
  3086 ;; *************** function _TMR1_WriteTimer *****************
  3087 ;; Defined at:
  3088 ;;		line 120 in file "mcc_generated_files/tmr1.c"
  3089 ;; Parameters:    Size  Location     Type
  3090 ;;  timerVal        2   13[COMRAM] unsigned short 
  3091 ;; Auto vars:     Size  Location     Type
  3092 ;;		None
  3093 ;; Return value:  Size  Location     Type
  3094 ;;                  1    wreg      void 
  3095 ;; Registers used:
  3096 ;;		wreg, status,2
  3097 ;; Tracked objects:
  3098 ;;		On entry : 0/0
  3099 ;;		On exit  : 0/0
  3100 ;;		Unchanged: 0/0
  3101 ;; Data sizes:     COMRAM   BANK0   BANK1   BANK2   BANK3   BANK4   BANK5   BANK6   BANK7
  3102 ;;      Params:         2       0       0       0       0       0       0       0       0
  3103 ;;      Locals:         0       0       0       0       0       0       0       0       0
  3104 ;;      Temps:          0       0       0       0       0       0       0       0       0
  3105 ;;      Totals:         2       0       0       0       0       0       0       0       0
  3106 ;;Total ram usage:        2 bytes
  3107 ;; Hardware stack levels used: 1
  3108 ;; Hardware stack levels required when called: 9
  3109 ;; This function calls:
  3110 ;;		Nothing
  3111 ;; This function is called by:
  3112 ;;		_dispense
  3113 ;;		_TMR1_Reload
  3114 ;; This function uses a non-reentrant model
  3115 ;;
  3116                           
  3117                           	psect	text23
  3118   0018E2                     __ptext23:
  3119                           	callstack 0
  3120   0018E2                     _TMR1_WriteTimer:
  3121                           	callstack 20
  3122   0018E2                     
  3123                           ;mcc_generated_files/tmr1.c: 120: void TMR1_WriteTimer(uint16_t timerVal);mcc_generated_
      +                          files/tmr1.c: 121: {;mcc_generated_files/tmr1.c: 122:     if (T1CONbits.NOT_SYNC == 1)
  3124   0018E2  A4B2               	btfss	178,2,c	;volatile
  3125   0018E4  EF76  F00C         	goto	u1921
  3126   0018E8  EF78  F00C         	goto	u1920
  3127   0018EC                     u1921:
  3128   0018EC  EF81  F00C         	goto	l4108
  3129   0018F0                     u1920:
  3130   0018F0                     
  3131                           ;mcc_generated_files/tmr1.c: 123:     {;mcc_generated_files/tmr1.c: 125:         T1CONbi
      +                          ts.TMR1ON = 0;
  3132   0018F0  90B2               	bcf	178,0,c	;volatile
  3133   0018F2                     
  3134                           ;mcc_generated_files/tmr1.c: 128:         TMR1H = (timerVal >> 8);
  3135   0018F2  5038               	movf	(TMR1_WriteTimer@timerVal+1)^0,w,c
  3136   0018F4  6EB1               	movwf	177,c	;volatile
  3137   0018F6                     
  3138                           ;mcc_generated_files/tmr1.c: 129:         TMR1L = timerVal;
  3139   0018F6  0060  F0DF  FFB0   	movff	TMR1_WriteTimer@timerVal,16304	;volatile
  3140   0018FC                     
  3141                           ;mcc_generated_files/tmr1.c: 132:         T1CONbits.TMR1ON =1;
  3142   0018FC  80B2               	bsf	178,0,c	;volatile
  3143                           
  3144                           ;mcc_generated_files/tmr1.c: 133:     }
  3145   0018FE  EF86  F00C         	goto	l265
  3146   001902                     l4108:
  3147                           
  3148                           ;mcc_generated_files/tmr1.c: 135:     {;mcc_generated_files/tmr1.c: 137:         TMR1H =
      +                           (timerVal >> 8);
  3149   001902  5038               	movf	(TMR1_WriteTimer@timerVal+1)^0,w,c
  3150   001904  6EB1               	movwf	177,c	;volatile
  3151   001906                     
  3152                           ;mcc_generated_files/tmr1.c: 138:         TMR1L = timerVal;
  3153   001906  0060  F0DF  FFB0   	movff	TMR1_WriteTimer@timerVal,16304	;volatile
  3154   00190C                     l265:
  3155   00190C  0012               	return		;funcret
  3156   00190E                     __end_of_TMR1_WriteTimer:
  3157                           	callstack 0
  3158                           
  3159 ;; *************** function _TMR1_StopTimer *****************
  3160 ;; Defined at:
  3161 ;;		line 98 in file "mcc_generated_files/tmr1.c"
  3162 ;; Parameters:    Size  Location     Type
  3163 ;;		None
  3164 ;; Auto vars:     Size  Location     Type
  3165 ;;		None
  3166 ;; Return value:  Size  Location     Type
  3167 ;;                  1    wreg      void 
  3168 ;; Registers used:
  3169 ;;		None
  3170 ;; Tracked objects:
  3171 ;;		On entry : 0/0
  3172 ;;		On exit  : 0/0
  3173 ;;		Unchanged: 0/0
  3174 ;; Data sizes:     COMRAM   BANK0   BANK1   BANK2   BANK3   BANK4   BANK5   BANK6   BANK7
  3175 ;;      Params:         0       0       0       0       0       0       0       0       0
  3176 ;;      Locals:         0       0       0       0       0       0       0       0       0
  3177 ;;      Temps:          0       0       0       0       0       0       0       0       0
  3178 ;;      Totals:         0       0       0       0       0       0       0       0       0
  3179 ;;Total ram usage:        0 bytes
  3180 ;; Hardware stack levels used: 1
  3181 ;; Hardware stack levels required when called: 9
  3182 ;; This function calls:
  3183 ;;		Nothing
  3184 ;; This function is called by:
  3185 ;;		_dispense
  3186 ;;		_Set_Timeout
  3187 ;; This function uses a non-reentrant model
  3188 ;;
  3189                           
  3190                           	psect	text24
  3191   001C2C                     __ptext24:
  3192                           	callstack 0
  3193   001C2C                     _TMR1_StopTimer:
  3194                           	callstack 19
  3195   001C2C                     
  3196                           ;mcc_generated_files/tmr1.c: 101:     T1CONbits.TMR1ON = 0;
  3197   001C2C  90B2               	bcf	178,0,c	;volatile
  3198   001C2E  0012               	return		;funcret
  3199   001C30                     __end_of_TMR1_StopTimer:
  3200                           	callstack 0
  3201                           
  3202 ;; *************** function _TMR1_StartTimer *****************
  3203 ;; Defined at:
  3204 ;;		line 92 in file "mcc_generated_files/tmr1.c"
  3205 ;; Parameters:    Size  Location     Type
  3206 ;;		None
  3207 ;; Auto vars:     Size  Location     Type
  3208 ;;		None
  3209 ;; Return value:  Size  Location     Type
  3210 ;;                  1    wreg      void 
  3211 ;; Registers used:
  3212 ;;		None
  3213 ;; Tracked objects:
  3214 ;;		On entry : 0/0
  3215 ;;		On exit  : 0/0
  3216 ;;		Unchanged: 0/0
  3217 ;; Data sizes:     COMRAM   BANK0   BANK1   BANK2   BANK3   BANK4   BANK5   BANK6   BANK7
  3218 ;;      Params:         0       0       0       0       0       0       0       0       0
  3219 ;;      Locals:         0       0       0       0       0       0       0       0       0
  3220 ;;      Temps:          0       0       0       0       0       0       0       0       0
  3221 ;;      Totals:         0       0       0       0       0       0       0       0       0
  3222 ;;Total ram usage:        0 bytes
  3223 ;; Hardware stack levels used: 1
  3224 ;; Hardware stack levels required when called: 9
  3225 ;; This function calls:
  3226 ;;		Nothing
  3227 ;; This function is called by:
  3228 ;;		_dispense
  3229 ;; This function uses a non-reentrant model
  3230 ;;
  3231                           
  3232                           	psect	text25
  3233   001C30                     __ptext25:
  3234                           	callstack 0
  3235   001C30                     _TMR1_StartTimer:
  3236                           	callstack 20
  3237   001C30                     
  3238                           ;mcc_generated_files/tmr1.c: 95:     T1CONbits.TMR1ON = 1;
  3239   001C30  80B2               	bsf	178,0,c	;volatile
  3240   001C32  0012               	return		;funcret
  3241   001C34                     __end_of_TMR1_StartTimer:
  3242                           	callstack 0
  3243                           
  3244 ;; *************** function _coin_in *****************
  3245 ;; Defined at:
  3246 ;;		line 33 in file "vend.c"
  3247 ;; Parameters:    Size  Location     Type
  3248 ;;		None
  3249 ;; Auto vars:     Size  Location     Type
  3250 ;;		None
  3251 ;; Return value:  Size  Location     Type
  3252 ;;                  1    wreg      void 
  3253 ;; Registers used:
  3254 ;;		wreg, status,2, status,0, cstack
  3255 ;; Tracked objects:
  3256 ;;		On entry : 0/0
  3257 ;;		On exit  : 0/0
  3258 ;;		Unchanged: 0/0
  3259 ;; Data sizes:     COMRAM   BANK0   BANK1   BANK2   BANK3   BANK4   BANK5   BANK6   BANK7
  3260 ;;      Params:         0       0       0       0       0       0       0       0       0
  3261 ;;      Locals:         0       0       0       0       0       0       0       0       0
  3262 ;;      Temps:          1       0       0       0       0       0       0       0       0
  3263 ;;      Totals:         1       0       0       0       0       0       0       0       0
  3264 ;;Total ram usage:        1 bytes
  3265 ;; Hardware stack levels used: 1
  3266 ;; Hardware stack levels required when called: 11
  3267 ;; This function calls:
  3268 ;;		_TMR5_Initialize
  3269 ;;		_credit_add
  3270 ;;		_credit_check
  3271 ;;		_switch_read
  3272 ;; This function is called by:
  3273 ;;		_main
  3274 ;; This function uses a non-reentrant model
  3275 ;;
  3276                           
  3277                           	psect	text26
  3278   00151C                     __ptext26:
  3279                           	callstack 0
  3280   00151C                     _coin_in:
  3281                           	callstack 19
  3282   00151C                     
  3283                           ;vend.c: 35:     TMR5_Initialize();
  3284   00151C  EC96  F00B         	call	_TMR5_Initialize	;wreg free
  3285   001520                     
  3286                           ;vend.c: 36:     venflags.t5time = 0;
  3287   001520  9602               	bcf	(_venflags+1)^0,3,c
  3288   001522                     
  3289                           ;vend.c: 37:     if(switch_read())
  3290   001522  EC32  F009         	call	_switch_read	;wreg free
  3291   001526  0900               	iorlw	0
  3292   001528  B4D8               	btfsc	status,2,c
  3293   00152A  EF99  F00A         	goto	u2081
  3294   00152E  EF9B  F00A         	goto	u2080
  3295   001532                     u2081:
  3296   001532  EFA8  F00A         	goto	l1082
  3297   001536                     u2080:
  3298   001536                     l4284:
  3299   001536  EC32  F009         	call	_switch_read	;wreg free
  3300   00153A  0900               	iorlw	0
  3301   00153C  A4D8               	btfss	status,2,c
  3302   00153E  EFA3  F00A         	goto	u2091
  3303   001542  EFA5  F00A         	goto	u2090
  3304   001546                     u2091:
  3305   001546  EF9B  F00A         	goto	l4284
  3306   00154A                     u2090:
  3307   00154A                     
  3308                           ;vend.c: 40:         credit_add(0x01);
  3309   00154A  0E01               	movlw	1
  3310   00154C  EC17  F00C         	call	_credit_add
  3311   001550                     l1082:
  3312                           
  3313                           ;vend.c: 42:     if(credit_check() >= vendprice)
  3314   001550  ECD8  F00D         	call	_credit_check	;wreg free
  3315   001554  6E3B               	movwf	??_coin_in^0,c
  3316   001556  5022               	movf	_vendprice^0,w,c	;volatile
  3317   001558  5C3B               	subwf	??_coin_in^0,w,c
  3318   00155A  A0D8               	btfss	status,0,c
  3319   00155C  EFB2  F00A         	goto	u2101
  3320   001560  EFB4  F00A         	goto	u2100
  3321   001564                     u2101:
  3322   001564  EFB5  F00A         	goto	l1089
  3323   001568                     u2100:
  3324   001568  8CBC               	bsf	188,6,c	;volatile
  3325   00156A                     l1089:
  3326   00156A  0012               	return		;funcret
  3327   00156C                     __end_of_coin_in:
  3328                           	callstack 0
  3329                           
  3330 ;; *************** function _switch_read *****************
  3331 ;; Defined at:
  3332 ;;		line 190 in file "vend.c"
  3333 ;; Parameters:    Size  Location     Type
  3334 ;;		None
  3335 ;; Auto vars:     Size  Location     Type
  3336 ;;		None
  3337 ;; Return value:  Size  Location     Type
  3338 ;;                  1    wreg      _Bool 
  3339 ;; Registers used:
  3340 ;;		wreg, status,2
  3341 ;; Tracked objects:
  3342 ;;		On entry : 0/0
  3343 ;;		On exit  : 0/0
  3344 ;;		Unchanged: 0/0
  3345 ;; Data sizes:     COMRAM   BANK0   BANK1   BANK2   BANK3   BANK4   BANK5   BANK6   BANK7
  3346 ;;      Params:         0       0       0       0       0       0       0       0       0
  3347 ;;      Locals:         0       0       0       0       0       0       0       0       0
  3348 ;;      Temps:          1       0       0       0       0       0       0       0       0
  3349 ;;      Totals:         1       0       0       0       0       0       0       0       0
  3350 ;;Total ram usage:        1 bytes
  3351 ;; Hardware stack levels used: 1
  3352 ;; Hardware stack levels required when called: 9
  3353 ;; This function calls:
  3354 ;;		Nothing
  3355 ;; This function is called by:
  3356 ;;		_coin_in
  3357 ;;		_enter_service
  3358 ;; This function uses a non-reentrant model
  3359 ;;
  3360                           
  3361                           	psect	text27
  3362   001264                     __ptext27:
  3363                           	callstack 0
  3364   001264                     _switch_read:
  3365                           	callstack 20
  3366   001264                     
  3367                           ;vend.c: 192:     if(PORTAbits.RA5 == venflags.swclosed)
  3368   001264  B002               	btfsc	(_venflags+1)^0,0,c
  3369   001266  EF37  F009         	goto	u621
  3370   00126A  EF3A  F009         	goto	u620
  3371   00126E                     u621:
  3372   00126E  0E01               	movlw	1
  3373   001270  EF3B  F009         	goto	u622
  3374   001274                     u620:
  3375   001274  0E00               	movlw	0
  3376   001276                     u622:
  3377   001276  6E37               	movwf	??_switch_read^0,c
  3378   001278  BACA               	btfsc	202,5,c	;volatile
  3379   00127A  EF41  F009         	goto	u631
  3380   00127E  EF44  F009         	goto	u630
  3381   001282                     u631:
  3382   001282  0E01               	movlw	1
  3383   001284  EF45  F009         	goto	u632
  3384   001288                     u630:
  3385   001288  0E00               	movlw	0
  3386   00128A                     u632:
  3387   00128A  1A37               	xorwf	??_switch_read^0,f,c
  3388   00128C  A4D8               	btfss	status,2,c
  3389   00128E  EF4B  F009         	goto	u641
  3390   001292  EF4D  F009         	goto	u640
  3391   001296                     u641:
  3392   001296  EF65  F009         	goto	l2802
  3393   00129A                     u640:
  3394   00129A                     
  3395                           ;vend.c: 193:     {;vend.c: 194:         if(venflags.swclosed)
  3396   00129A  A002               	btfss	(_venflags+1)^0,0,c
  3397   00129C  EF52  F009         	goto	u651
  3398   0012A0  EF54  F009         	goto	u650
  3399   0012A4                     u651:
  3400   0012A4  EF5E  F009         	goto	l2800
  3401   0012A8                     u650:
  3402   0012A8                     
  3403                           ;vend.c: 195:         {;vend.c: 196:             _delay((unsigned long)((2500)*(12000000
      +                          /4000000.0)));
  3404   0012A8  0E0A               	movlw	10
  3405   0012AA  6E37               	movwf	??_switch_read^0,c
  3406   0012AC  0EBC               	movlw	188
  3407   0012AE                     u2397:
  3408   0012AE  2EE8               	decfsz	wreg,f,c
  3409   0012B0  D7FE               	bra	u2397
  3410   0012B2  2E37               	decfsz	??_switch_read^0,f,c
  3411   0012B4  D7FC               	bra	u2397
  3412   0012B6  D000               	nop2	
  3413                           
  3414                           ;vend.c: 197:         }
  3415   0012B8  EF65  F009         	goto	l2802
  3416   0012BC                     l2800:
  3417                           
  3418                           ;vend.c: 199:         {;vend.c: 200:             _delay((unsigned long)((15)*(12000000/4
      +                          000.0)));
  3419   0012BC  0E3B               	movlw	59
  3420   0012BE  6E37               	movwf	??_switch_read^0,c
  3421   0012C0  0E70               	movlw	112
  3422   0012C2                     u2407:
  3423   0012C2  2EE8               	decfsz	wreg,f,c
  3424   0012C4  D7FE               	bra	u2407
  3425   0012C6  2E37               	decfsz	??_switch_read^0,f,c
  3426   0012C8  D7FC               	bra	u2407
  3427   0012CA                     l2802:
  3428                           
  3429                           ;vend.c: 203:     if(PORTAbits.RA5)
  3430   0012CA  AACA               	btfss	202,5,c	;volatile
  3431   0012CC  EF6A  F009         	goto	u661
  3432   0012D0  EF6C  F009         	goto	u660
  3433   0012D4                     u661:
  3434   0012D4  EF70  F009         	goto	l1164
  3435   0012D8                     u660:
  3436   0012D8                     
  3437                           ;vend.c: 204:     {;vend.c: 205:         venflags.swclosed = 0;
  3438   0012D8  9002               	bcf	(_venflags+1)^0,0,c
  3439   0012DA                     
  3440                           ;vend.c: 206:         return 0;
  3441   0012DA  0E00               	movlw	0
  3442   0012DC  EF72  F009         	goto	l1165
  3443   0012E0                     l1164:
  3444                           
  3445                           ;vend.c: 209:     {;vend.c: 210:         venflags.swclosed = 1;
  3446   0012E0  8002               	bsf	(_venflags+1)^0,0,c
  3447   0012E2                     
  3448                           ;vend.c: 211:         return 1;
  3449   0012E2  0E01               	movlw	1
  3450   0012E4                     l1165:
  3451   0012E4  0012               	return		;funcret
  3452   0012E6                     __end_of_switch_read:
  3453                           	callstack 0
  3454                           
  3455 ;; *************** function _credit_check *****************
  3456 ;; Defined at:
  3457 ;;		line 50 in file "vend.c"
  3458 ;; Parameters:    Size  Location     Type
  3459 ;;		None
  3460 ;; Auto vars:     Size  Location     Type
  3461 ;;		None
  3462 ;; Return value:  Size  Location     Type
  3463 ;;                  1    wreg      unsigned char 
  3464 ;; Registers used:
  3465 ;;		wreg, status,2, cstack
  3466 ;; Tracked objects:
  3467 ;;		On entry : 0/0
  3468 ;;		On exit  : 0/0
  3469 ;;		Unchanged: 0/0
  3470 ;; Data sizes:     COMRAM   BANK0   BANK1   BANK2   BANK3   BANK4   BANK5   BANK6   BANK7
  3471 ;;      Params:         0       0       0       0       0       0       0       0       0
  3472 ;;      Locals:         0       0       0       0       0       0       0       0       0
  3473 ;;      Temps:          0       0       0       0       0       0       0       0       0
  3474 ;;      Totals:         0       0       0       0       0       0       0       0       0
  3475 ;;Total ram usage:        0 bytes
  3476 ;; Hardware stack levels used: 1
  3477 ;; Hardware stack levels required when called: 10
  3478 ;; This function calls:
  3479 ;;		_DATAEE_ReadByte
  3480 ;; This function is called by:
  3481 ;;		_main
  3482 ;;		_coin_in
  3483 ;; This function uses a non-reentrant model
  3484 ;;
  3485                           
  3486                           	psect	text28
  3487   001BB0                     __ptext28:
  3488                           	callstack 0
  3489   001BB0                     _credit_check:
  3490                           	callstack 20
  3491   001BB0  0E00               	movlw	0
  3492   001BB2  EC10  F00D         	call	_DATAEE_ReadByte
  3493   001BB6  6E24               	movwf	_cash^0,c	;volatile
  3494   001BB8                     
  3495                           ;vend.c: 53:     return(cash);
  3496   001BB8  5024               	movf	_cash^0,w,c	;volatile
  3497   001BBA  0012               	return		;funcret
  3498   001BBC                     __end_of_credit_check:
  3499                           	callstack 0
  3500                           
  3501 ;; *************** function _credit_add *****************
  3502 ;; Defined at:
  3503 ;;		line 56 in file "vend.c"
  3504 ;; Parameters:    Size  Location     Type
  3505 ;;  credit          1    wreg     unsigned char 
  3506 ;; Auto vars:     Size  Location     Type
  3507 ;;  credit          1   16[COMRAM] unsigned char 
  3508 ;; Return value:  Size  Location     Type
  3509 ;;                  1    wreg      void 
  3510 ;; Registers used:
  3511 ;;		wreg, status,2, status,0, cstack
  3512 ;; Tracked objects:
  3513 ;;		On entry : 0/0
  3514 ;;		On exit  : 0/0
  3515 ;;		Unchanged: 0/0
  3516 ;; Data sizes:     COMRAM   BANK0   BANK1   BANK2   BANK3   BANK4   BANK5   BANK6   BANK7
  3517 ;;      Params:         0       0       0       0       0       0       0       0       0
  3518 ;;      Locals:         1       0       0       0       0       0       0       0       0
  3519 ;;      Temps:          0       0       0       0       0       0       0       0       0
  3520 ;;      Totals:         1       0       0       0       0       0       0       0       0
  3521 ;;Total ram usage:        1 bytes
  3522 ;; Hardware stack levels used: 1
  3523 ;; Hardware stack levels required when called: 10
  3524 ;; This function calls:
  3525 ;;		_DATAEE_ReadByte
  3526 ;;		_DATAEE_WriteByte
  3527 ;; This function is called by:
  3528 ;;		_coin_in
  3529 ;; This function uses a non-reentrant model
  3530 ;;
  3531                           
  3532                           	psect	text29
  3533   00182E                     __ptext29:
  3534                           	callstack 0
  3535   00182E                     _credit_add:
  3536                           	callstack 19
  3537                           
  3538                           ;incstack = 0
  3539                           ;credit_add@credit stored from wreg
  3540   00182E  6E3A               	movwf	credit_add@credit^0,c
  3541   001830  0E00               	movlw	0
  3542   001832  EC10  F00D         	call	_DATAEE_ReadByte
  3543   001836  6E24               	movwf	_cash^0,c	;volatile
  3544   001838                     
  3545                           ;vend.c: 59:     cash = cash + credit;
  3546   001838  5024               	movf	_cash^0,w,c	;volatile
  3547   00183A  243A               	addwf	credit_add@credit^0,w,c
  3548   00183C  6E24               	movwf	_cash^0,c	;volatile
  3549   00183E  C024  F037         	movff	_cash,DATAEE_WriteByte@bData	;volatile
  3550   001842  0E00               	movlw	0
  3551   001844  ECB6  F00A         	call	_DATAEE_WriteByte
  3552   001848                     
  3553                           ;vend.c: 61:     if(cash != 0)
  3554   001848  5024               	movf	_cash^0,w,c	;volatile
  3555   00184A  B4D8               	btfsc	status,2,c
  3556   00184C  EF2A  F00C         	goto	u1931
  3557   001850  EF2C  F00C         	goto	u1930
  3558   001854                     u1931:
  3559   001854  EF2D  F00C         	goto	l1096
  3560   001858                     u1930:
  3561   001858                     
  3562                           ;vend.c: 62:     {;vend.c: 63:         venflags.iscredit = 1;
  3563   001858  8001               	bsf	_venflags^0,0,c
  3564   00185A                     l1096:
  3565   00185A  0012               	return		;funcret
  3566   00185C                     __end_of_credit_add:
  3567                           	callstack 0
  3568                           
  3569 ;; *************** function _DATAEE_WriteByte *****************
  3570 ;; Defined at:
  3571 ;;		line 165 in file "mcc_generated_files/memory.c"
  3572 ;; Parameters:    Size  Location     Type
  3573 ;;  bAdd            1    wreg     unsigned char 
  3574 ;;  bData           1   13[COMRAM] unsigned char 
  3575 ;; Auto vars:     Size  Location     Type
  3576 ;;  bAdd            1   14[COMRAM] unsigned char 
  3577 ;;  GIEBitValue     1   15[COMRAM] unsigned char 
  3578 ;; Return value:  Size  Location     Type
  3579 ;;                  1    wreg      void 
  3580 ;; Registers used:
  3581 ;;		wreg, status,2
  3582 ;; Tracked objects:
  3583 ;;		On entry : 0/0
  3584 ;;		On exit  : 0/0
  3585 ;;		Unchanged: 0/0
  3586 ;; Data sizes:     COMRAM   BANK0   BANK1   BANK2   BANK3   BANK4   BANK5   BANK6   BANK7
  3587 ;;      Params:         1       0       0       0       0       0       0       0       0
  3588 ;;      Locals:         2       0       0       0       0       0       0       0       0
  3589 ;;      Temps:          0       0       0       0       0       0       0       0       0
  3590 ;;      Totals:         3       0       0       0       0       0       0       0       0
  3591 ;;Total ram usage:        3 bytes
  3592 ;; Hardware stack levels used: 1
  3593 ;; Hardware stack levels required when called: 9
  3594 ;; This function calls:
  3595 ;;		Nothing
  3596 ;; This function is called by:
  3597 ;;		_main
  3598 ;;		_credit_add
  3599 ;;		_credit_subtract
  3600 ;;		_dispense
  3601 ;;		_enter_service
  3602 ;;		_Set_Timeout
  3603 ;;		_save_notes
  3604 ;; This function uses a non-reentrant model
  3605 ;;
  3606                           
  3607                           	psect	text30
  3608   00156C                     __ptext30:
  3609                           	callstack 0
  3610   00156C                     _DATAEE_WriteByte:
  3611                           	callstack 19
  3612                           
  3613                           ;incstack = 0
  3614                           ;DATAEE_WriteByte@bAdd stored from wreg
  3615   00156C  6E38               	movwf	DATAEE_WriteByte@bAdd^0,c
  3616   00156E                     
  3617                           ;mcc_generated_files/memory.c: 165: void DATAEE_WriteByte(uint8_t bAdd, uint8_t bData);m
      +                          cc_generated_files/memory.c: 166: {;mcc_generated_files/memory.c: 167:     uint8_t GIEBi
      +                          tValue = INTCON0bits.GIE;
  3618   00156E  0E00               	movlw	0
  3619   001570  BED2               	btfsc	210,7,c	;volatile
  3620   001572  0E01               	movlw	1
  3621   001574  6E39               	movwf	DATAEE_WriteByte@GIEBitValue^0,c
  3622   001576                     
  3623                           ;mcc_generated_files/memory.c: 169:     NVMADRL = (uint8_t)(bAdd & 0xFF);
  3624   001576  0060  F0E3  F9E0   	movff	DATAEE_WriteByte@bAdd,14816	;volatile
  3625   00157C                     
  3626                           ;mcc_generated_files/memory.c: 170:     NVMDAT = bData;
  3627   00157C  0060  F0DF  F9E3   	movff	DATAEE_WriteByte@bData,14819	;volatile
  3628   001582                     
  3629                           ;mcc_generated_files/memory.c: 171:     NVMCON1bits.NVMREG = 0;
  3630   001582  0E3F               	movlw	-193
  3631   001584  0139               	movlb	57	; () banked
  3632   001586  17E5               	andwf	229,f,b	;volsfr
  3633   001588                     
  3634                           ; BSR set to: 57
  3635                           ;mcc_generated_files/memory.c: 172:     NVMCON1bits.WREN = 1;
  3636   001588  85E5               	bsf	229,2,b	;volsfr
  3637   00158A                     
  3638                           ; BSR set to: 57
  3639                           ;mcc_generated_files/memory.c: 173:     INTCON0bits.GIE = 0;
  3640   00158A  9ED2               	bcf	210,7,c	;volatile
  3641   00158C                     
  3642                           ; BSR set to: 57
  3643                           ;mcc_generated_files/memory.c: 174:     NVMCON2 = 0x55;
  3644   00158C  0E55               	movlw	85
  3645   00158E  6FE6               	movwf	230,b	;volsfr
  3646   001590                     
  3647                           ; BSR set to: 57
  3648                           ;mcc_generated_files/memory.c: 175:     NVMCON2 = 0xAA;
  3649   001590  0EAA               	movlw	170
  3650   001592  6FE6               	movwf	230,b	;volsfr
  3651   001594                     
  3652                           ; BSR set to: 57
  3653                           ;mcc_generated_files/memory.c: 176:     NVMCON1bits.WR = 1;
  3654   001594  83E5               	bsf	229,1,b	;volsfr
  3655   001596                     l156:
  3656                           
  3657                           ; BSR set to: 57
  3658                           ;mcc_generated_files/memory.c: 178:     while (NVMCON1bits.WR)
  3659   001596  B3E5               	btfsc	229,1,b	;volsfr
  3660   001598  EFD0  F00A         	goto	u1751
  3661   00159C  EFD2  F00A         	goto	u1750
  3662   0015A0                     u1751:
  3663   0015A0  EFCB  F00A         	goto	l156
  3664   0015A4                     u1750:
  3665   0015A4                     
  3666                           ; BSR set to: 57
  3667                           ;mcc_generated_files/memory.c: 182:     NVMCON1bits.WREN = 0;
  3668   0015A4  95E5               	bcf	229,2,b	;volsfr
  3669                           
  3670                           ;mcc_generated_files/memory.c: 183:     INTCON0bits.GIE = GIEBitValue;
  3671   0015A6  B039               	btfsc	DATAEE_WriteByte@GIEBitValue^0,0,c
  3672   0015A8  D002               	bra	u1765
  3673   0015AA  9ED2               	bcf	210,7,c	;volatile
  3674   0015AC  D001               	bra	u1766
  3675   0015AE                     u1765:
  3676   0015AE  8ED2               	bsf	210,7,c	;volatile
  3677   0015B0                     u1766:
  3678   0015B0  0012               	return		;funcret
  3679   0015B2                     __end_of_DATAEE_WriteByte:
  3680                           	callstack 0
  3681                           
  3682 ;; *************** function _DATAEE_ReadByte *****************
  3683 ;; Defined at:
  3684 ;;		line 186 in file "mcc_generated_files/memory.c"
  3685 ;; Parameters:    Size  Location     Type
  3686 ;;  bAdd            1    wreg     unsigned char 
  3687 ;; Auto vars:     Size  Location     Type
  3688 ;;  bAdd            1   13[COMRAM] unsigned char 
  3689 ;; Return value:  Size  Location     Type
  3690 ;;                  1    wreg      unsigned char 
  3691 ;; Registers used:
  3692 ;;		wreg, status,2
  3693 ;; Tracked objects:
  3694 ;;		On entry : 0/0
  3695 ;;		On exit  : 0/0
  3696 ;;		Unchanged: 0/0
  3697 ;; Data sizes:     COMRAM   BANK0   BANK1   BANK2   BANK3   BANK4   BANK5   BANK6   BANK7
  3698 ;;      Params:         0       0       0       0       0       0       0       0       0
  3699 ;;      Locals:         1       0       0       0       0       0       0       0       0
  3700 ;;      Temps:          0       0       0       0       0       0       0       0       0
  3701 ;;      Totals:         1       0       0       0       0       0       0       0       0
  3702 ;;Total ram usage:        1 bytes
  3703 ;; Hardware stack levels used: 1
  3704 ;; Hardware stack levels required when called: 9
  3705 ;; This function calls:
  3706 ;;		Nothing
  3707 ;; This function is called by:
  3708 ;;		_vend_init
  3709 ;;		_credit_check
  3710 ;;		_credit_add
  3711 ;;		_credit_subtract
  3712 ;;		_mdb_init
  3713 ;; This function uses a non-reentrant model
  3714 ;;
  3715                           
  3716                           	psect	text31
  3717   001A20                     __ptext31:
  3718                           	callstack 0
  3719   001A20                     _DATAEE_ReadByte:
  3720                           	callstack 20
  3721                           
  3722                           ;incstack = 0
  3723                           ;DATAEE_ReadByte@bAdd stored from wreg
  3724   001A20  6E37               	movwf	DATAEE_ReadByte@bAdd^0,c
  3725   001A22                     
  3726                           ;mcc_generated_files/memory.c: 186: uint8_t DATAEE_ReadByte(uint8_t bAdd);mcc_generated_
      +                          files/memory.c: 187: {;mcc_generated_files/memory.c: 188:     NVMADRL = (uint8_t)(bAdd &
      +                           0xFF);
  3727   001A22  0060  F0DF  F9E0   	movff	DATAEE_ReadByte@bAdd,14816	;volatile
  3728   001A28                     
  3729                           ;mcc_generated_files/memory.c: 189:     NVMCON1bits.NVMREG = 0;
  3730   001A28  0E3F               	movlw	-193
  3731   001A2A  0139               	movlb	57	; () banked
  3732   001A2C  17E5               	andwf	229,f,b	;volsfr
  3733   001A2E                     
  3734                           ; BSR set to: 57
  3735                           ;mcc_generated_files/memory.c: 190:     NVMCON1bits.RD = 1;
  3736   001A2E  81E5               	bsf	229,0,b	;volsfr
  3737   001A30                     
  3738                           ; BSR set to: 57
  3739                           ;mcc_generated_files/memory.c: 191:     __nop();
  3740   001A30  F000               	nop	
  3741   001A32                     
  3742                           ;mcc_generated_files/memory.c: 192:     __nop();
  3743   001A32  F000               	nop	
  3744   001A34                     
  3745                           ;mcc_generated_files/memory.c: 194:     return (NVMDAT);
  3746   001A34  0139               	movlb	57	; () banked
  3747   001A36  51E3               	movf	227,w,b	;volatile
  3748   001A38                     
  3749                           ; BSR set to: 57
  3750   001A38  0012               	return		;funcret
  3751   001A3A                     __end_of_DATAEE_ReadByte:
  3752                           	callstack 0
  3753                           
  3754 ;; *************** function _SYSTEM_Initialize *****************
  3755 ;; Defined at:
  3756 ;;		line 50 in file "mcc_generated_files/mcc.c"
  3757 ;; Parameters:    Size  Location     Type
  3758 ;;		None
  3759 ;; Auto vars:     Size  Location     Type
  3760 ;;		None
  3761 ;; Return value:  Size  Location     Type
  3762 ;;                  1    wreg      void 
  3763 ;; Registers used:
  3764 ;;		wreg, status,2, status,0, cstack
  3765 ;; Tracked objects:
  3766 ;;		On entry : 0/0
  3767 ;;		On exit  : 0/0
  3768 ;;		Unchanged: 0/0
  3769 ;; Data sizes:     COMRAM   BANK0   BANK1   BANK2   BANK3   BANK4   BANK5   BANK6   BANK7
  3770 ;;      Params:         0       0       0       0       0       0       0       0       0
  3771 ;;      Locals:         0       0       0       0       0       0       0       0       0
  3772 ;;      Temps:          0       0       0       0       0       0       0       0       0
  3773 ;;      Totals:         0       0       0       0       0       0       0       0       0
  3774 ;;Total ram usage:        0 bytes
  3775 ;; Hardware stack levels used: 1
  3776 ;; Hardware stack levels required when called: 11
  3777 ;; This function calls:
  3778 ;;		_CMP1_Initialize
  3779 ;;		_DAC1_Initialize
  3780 ;;		_INTERRUPT_Initialize
  3781 ;;		_OSCILLATOR_Initialize
  3782 ;;		_PIN_MANAGER_Initialize
  3783 ;;		_PMD_Initialize
  3784 ;;		_SPI1_Initialize
  3785 ;;		_TMR0_Initialize
  3786 ;;		_TMR1_Initialize
  3787 ;;		_TMR2_Initialize
  3788 ;;		_TMR3_Initialize
  3789 ;;		_TMR5_Initialize
  3790 ;;		_UART1_Initialize
  3791 ;;		_UART2_Initialize
  3792 ;; This function is called by:
  3793 ;;		_main
  3794 ;; This function uses a non-reentrant model
  3795 ;;
  3796                           
  3797                           	psect	text32
  3798   0016F2                     __ptext32:
  3799                           	callstack 0
  3800   0016F2                     _SYSTEM_Initialize:
  3801                           	callstack 19
  3802   0016F2                     
  3803                           ;mcc_generated_files/mcc.c: 52:     INTERRUPT_Initialize();
  3804   0016F2  EC1A  F00E         	call	_INTERRUPT_Initialize	;wreg free
  3805   0016F6                     
  3806                           ;mcc_generated_files/mcc.c: 53:     PMD_Initialize();
  3807   0016F6  ECF1  F00C         	call	_PMD_Initialize	;wreg free
  3808   0016FA                     
  3809                           ;mcc_generated_files/mcc.c: 54:     PIN_MANAGER_Initialize();
  3810   0016FA  ECF0  F008         	call	_PIN_MANAGER_Initialize	;wreg free
  3811   0016FE                     
  3812                           ;mcc_generated_files/mcc.c: 55:     OSCILLATOR_Initialize();
  3813   0016FE  EC44  F00D         	call	_OSCILLATOR_Initialize	;wreg free
  3814   001702                     
  3815                           ;mcc_generated_files/mcc.c: 56:     TMR2_Initialize();
  3816   001702  EC87  F00C         	call	_TMR2_Initialize	;wreg free
  3817   001706                     
  3818                           ;mcc_generated_files/mcc.c: 57:     TMR0_Initialize();
  3819   001706  EC50  F00D         	call	_TMR0_Initialize	;wreg free
  3820   00170A                     
  3821                           ;mcc_generated_files/mcc.c: 58:     CMP1_Initialize();
  3822   00170A  EC71  F00D         	call	_CMP1_Initialize	;wreg free
  3823   00170E                     
  3824                           ;mcc_generated_files/mcc.c: 59:     TMR3_Initialize();
  3825   00170E  ECB1  F00B         	call	_TMR3_Initialize	;wreg free
  3826   001712                     
  3827                           ;mcc_generated_files/mcc.c: 60:     DAC1_Initialize();
  3828   001712  ECDE  F00D         	call	_DAC1_Initialize	;wreg free
  3829   001716                     
  3830                           ;mcc_generated_files/mcc.c: 61:     TMR5_Initialize();
  3831   001716  EC96  F00B         	call	_TMR5_Initialize	;wreg free
  3832   00171A                     
  3833                           ;mcc_generated_files/mcc.c: 62:     TMR1_Initialize();
  3834   00171A  ECCC  F00B         	call	_TMR1_Initialize	;wreg free
  3835   00171E                     
  3836                           ;mcc_generated_files/mcc.c: 63:     UART1_Initialize();
  3837   00171E  ECAC  F009         	call	_UART1_Initialize	;wreg free
  3838   001722                     
  3839                           ;mcc_generated_files/mcc.c: 64:     UART2_Initialize();
  3840   001722  ECE0  F009         	call	_UART2_Initialize	;wreg free
  3841   001726                     
  3842                           ;mcc_generated_files/mcc.c: 65:     SPI1_Initialize();
  3843   001726  EC1D  F00D         	call	_SPI1_Initialize	;wreg free
  3844   00172A  0012               	return		;funcret
  3845   00172C                     __end_of_SYSTEM_Initialize:
  3846                           	callstack 0
  3847                           
  3848 ;; *************** function _UART2_Initialize *****************
  3849 ;; Defined at:
  3850 ;;		line 66 in file "mcc_generated_files/uart2.c"
  3851 ;; Parameters:    Size  Location     Type
  3852 ;;		None
  3853 ;; Auto vars:     Size  Location     Type
  3854 ;;		None
  3855 ;; Return value:  Size  Location     Type
  3856 ;;                  1    wreg      void 
  3857 ;; Registers used:
  3858 ;;		wreg, status,2, status,0, cstack
  3859 ;; Tracked objects:
  3860 ;;		On entry : 0/0
  3861 ;;		On exit  : 0/0
  3862 ;;		Unchanged: 0/0
  3863 ;; Data sizes:     COMRAM   BANK0   BANK1   BANK2   BANK3   BANK4   BANK5   BANK6   BANK7
  3864 ;;      Params:         0       0       0       0       0       0       0       0       0
  3865 ;;      Locals:         0       0       0       0       0       0       0       0       0
  3866 ;;      Temps:          0       0       0       0       0       0       0       0       0
  3867 ;;      Totals:         0       0       0       0       0       0       0       0       0
  3868 ;;Total ram usage:        0 bytes
  3869 ;; Hardware stack levels used: 1
  3870 ;; Hardware stack levels required when called: 10
  3871 ;; This function calls:
  3872 ;;		_UART2_SetErrorHandler
  3873 ;;		_UART2_SetFramingErrorHandler
  3874 ;;		_UART2_SetOverrunErrorHandler
  3875 ;; This function is called by:
  3876 ;;		_SYSTEM_Initialize
  3877 ;; This function uses a non-reentrant model
  3878 ;;
  3879                           
  3880                           	psect	text33
  3881   0013C0                     __ptext33:
  3882                           	callstack 0
  3883   0013C0                     _UART2_Initialize:
  3884                           	callstack 19
  3885   0013C0                     
  3886                           ;mcc_generated_files/uart2.c: 73:     U2P1L = 0x00;
  3887   0013C0  0E00               	movlw	0
  3888   0013C2  013D               	movlb	61	; () banked
  3889   0013C4  6FD4               	movwf	212,b	;volatile
  3890                           
  3891                           ;mcc_generated_files/uart2.c: 76:     U2P2L = 0x00;
  3892   0013C6  0E00               	movlw	0
  3893   0013C8  6FD6               	movwf	214,b	;volatile
  3894                           
  3895                           ;mcc_generated_files/uart2.c: 79:     U2P3L = 0x00;
  3896   0013CA  0E00               	movlw	0
  3897   0013CC  6FD8               	movwf	216,b	;volatile
  3898                           
  3899                           ;mcc_generated_files/uart2.c: 82:     U2CON0 = 0xB0;
  3900   0013CE  0EB0               	movlw	176
  3901   0013D0  6FDA               	movwf	218,b	;volatile
  3902                           
  3903                           ;mcc_generated_files/uart2.c: 85:     U2CON1 = 0x80;
  3904   0013D2  0E80               	movlw	128
  3905   0013D4  6FDB               	movwf	219,b	;volatile
  3906                           
  3907                           ;mcc_generated_files/uart2.c: 88:     U2CON2 = 0x00;
  3908   0013D6  0E00               	movlw	0
  3909   0013D8  6FDC               	movwf	220,b	;volatile
  3910                           
  3911                           ;mcc_generated_files/uart2.c: 91:     U2BRGL = 0x38;
  3912   0013DA  0E38               	movlw	56
  3913   0013DC  6FDD               	movwf	221,b	;volatile
  3914                           
  3915                           ;mcc_generated_files/uart2.c: 94:     U2BRGH = 0x01;
  3916   0013DE  0E01               	movlw	1
  3917   0013E0  6FDE               	movwf	222,b	;volatile
  3918                           
  3919                           ;mcc_generated_files/uart2.c: 97:     U2FIFO = 0x00;
  3920   0013E2  0E00               	movlw	0
  3921   0013E4  6FDF               	movwf	223,b	;volatile
  3922                           
  3923                           ;mcc_generated_files/uart2.c: 100:     U2UIR = 0x00;
  3924   0013E6  0E00               	movlw	0
  3925   0013E8  6FE0               	movwf	224,b	;volatile
  3926                           
  3927                           ;mcc_generated_files/uart2.c: 103:     U2ERRIR = 0x00;
  3928   0013EA  0E00               	movlw	0
  3929   0013EC  6FE1               	movwf	225,b	;volatile
  3930                           
  3931                           ;mcc_generated_files/uart2.c: 106:     U2ERRIE = 0x00;
  3932   0013EE  0E00               	movlw	0
  3933   0013F0  6FE2               	movwf	226,b	;volatile
  3934   0013F2                     
  3935                           ; BSR set to: 61
  3936                           ;mcc_generated_files/uart2.c: 109:     UART2_SetFramingErrorHandler(UART2_DefaultFraming
      +                          ErrorHandler);
  3937   0013F2  0E00               	movlw	0
  3938   0013F4  6E37               	movwf	UART2_SetFramingErrorHandler@interruptHandler^0,c
  3939   0013F6  0E00               	movlw	0
  3940   0013F8  6E38               	movwf	(UART2_SetFramingErrorHandler@interruptHandler+1)^0,c
  3941   0013FA  ECEE  F00D         	call	_UART2_SetFramingErrorHandler	;wreg free
  3942   0013FE                     
  3943                           ;mcc_generated_files/uart2.c: 110:     UART2_SetOverrunErrorHandler(UART2_DefaultOverrun
      +                          ErrorHandler);
  3944   0013FE  0E00               	movlw	0
  3945   001400  6E37               	movwf	UART2_SetOverrunErrorHandler@interruptHandler^0,c
  3946   001402  0E00               	movlw	0
  3947   001404  6E38               	movwf	(UART2_SetOverrunErrorHandler@interruptHandler+1)^0,c
  3948   001406  ECE9  F00D         	call	_UART2_SetOverrunErrorHandler	;wreg free
  3949   00140A                     
  3950                           ;mcc_generated_files/uart2.c: 111:     UART2_SetErrorHandler(UART2_DefaultErrorHandler);
  3951   00140A  0E00               	movlw	0
  3952   00140C  6E37               	movwf	UART2_SetErrorHandler@interruptHandler^0,c
  3953   00140E  0E00               	movlw	0
  3954   001410  6E38               	movwf	(UART2_SetErrorHandler@interruptHandler+1)^0,c
  3955   001412  ECF3  F00D         	call	_UART2_SetErrorHandler	;wreg free
  3956   001416                     
  3957                           ;mcc_generated_files/uart2.c: 113:     uart2RxLastError.status = 0;
  3958   001416  0E00               	movlw	0
  3959   001418  6E26               	movwf	_uart2RxLastError^0,c	;volatile
  3960   00141A  0012               	return		;funcret
  3961   00141C                     __end_of_UART2_Initialize:
  3962                           	callstack 0
  3963                           
  3964 ;; *************** function _UART2_SetOverrunErrorHandler *****************
  3965 ;; Defined at:
  3966 ;;		line 185 in file "mcc_generated_files/uart2.c"
  3967 ;; Parameters:    Size  Location     Type
  3968 ;;  interruptHan    2   13[COMRAM] PTR FTN()void 
  3969 ;;		 -> UART2_DefaultOverrunErrorHandler(1), 
  3970 ;; Auto vars:     Size  Location     Type
  3971 ;;		None
  3972 ;; Return value:  Size  Location     Type
  3973 ;;                  1    wreg      void 
  3974 ;; Registers used:
  3975 ;;		wreg, status,2, status,0
  3976 ;; Tracked objects:
  3977 ;;		On entry : 0/0
  3978 ;;		On exit  : 0/0
  3979 ;;		Unchanged: 0/0
  3980 ;; Data sizes:     COMRAM   BANK0   BANK1   BANK2   BANK3   BANK4   BANK5   BANK6   BANK7
  3981 ;;      Params:         2       0       0       0       0       0       0       0       0
  3982 ;;      Locals:         0       0       0       0       0       0       0       0       0
  3983 ;;      Temps:          0       0       0       0       0       0       0       0       0
  3984 ;;      Totals:         2       0       0       0       0       0       0       0       0
  3985 ;;Total ram usage:        2 bytes
  3986 ;; Hardware stack levels used: 1
  3987 ;; Hardware stack levels required when called: 9
  3988 ;; This function calls:
  3989 ;;		Nothing
  3990 ;; This function is called by:
  3991 ;;		_UART2_Initialize
  3992 ;; This function uses a non-reentrant model
  3993 ;;
  3994                           
  3995                           	psect	text34
  3996   001BD2                     __ptext34:
  3997                           	callstack 0
  3998   001BD2                     _UART2_SetOverrunErrorHandler:
  3999                           	callstack 19
  4000   001BD2                     
  4001                           ;mcc_generated_files/uart2.c: 186:     UART2_OverrunErrorHandler = interruptHandler;
  4002   001BD2  C037  F009         	movff	UART2_SetOverrunErrorHandler@interruptHandler,_UART2_OverrunErrorHandler
  4003   001BD6  C038  F00A         	movff	UART2_SetOverrunErrorHandler@interruptHandler+1,_UART2_OverrunErrorHandler+1
  4004   001BDA  0012               	return		;funcret
  4005   001BDC                     __end_of_UART2_SetOverrunErrorHandler:
  4006                           	callstack 0
  4007                           
  4008 ;; *************** function _UART2_SetFramingErrorHandler *****************
  4009 ;; Defined at:
  4010 ;;		line 181 in file "mcc_generated_files/uart2.c"
  4011 ;; Parameters:    Size  Location     Type
  4012 ;;  interruptHan    2   13[COMRAM] PTR FTN()void 
  4013 ;;		 -> UART2_DefaultFramingErrorHandler(1), 
  4014 ;; Auto vars:     Size  Location     Type
  4015 ;;		None
  4016 ;; Return value:  Size  Location     Type
  4017 ;;                  1    wreg      void 
  4018 ;; Registers used:
  4019 ;;		wreg, status,2, status,0
  4020 ;; Tracked objects:
  4021 ;;		On entry : 0/0
  4022 ;;		On exit  : 0/0
  4023 ;;		Unchanged: 0/0
  4024 ;; Data sizes:     COMRAM   BANK0   BANK1   BANK2   BANK3   BANK4   BANK5   BANK6   BANK7
  4025 ;;      Params:         2       0       0       0       0       0       0       0       0
  4026 ;;      Locals:         0       0       0       0       0       0       0       0       0
  4027 ;;      Temps:          0       0       0       0       0       0       0       0       0
  4028 ;;      Totals:         2       0       0       0       0       0       0       0       0
  4029 ;;Total ram usage:        2 bytes
  4030 ;; Hardware stack levels used: 1
  4031 ;; Hardware stack levels required when called: 9
  4032 ;; This function calls:
  4033 ;;		Nothing
  4034 ;; This function is called by:
  4035 ;;		_UART2_Initialize
  4036 ;; This function uses a non-reentrant model
  4037 ;;
  4038                           
  4039                           	psect	text35
  4040   001BDC                     __ptext35:
  4041                           	callstack 0
  4042   001BDC                     _UART2_SetFramingErrorHandler:
  4043                           	callstack 19
  4044   001BDC                     
  4045                           ;mcc_generated_files/uart2.c: 182:     UART2_FramingErrorHandler = interruptHandler;
  4046   001BDC  C037  F00B         	movff	UART2_SetFramingErrorHandler@interruptHandler,_UART2_FramingErrorHandler
  4047   001BE0  C038  F00C         	movff	UART2_SetFramingErrorHandler@interruptHandler+1,_UART2_FramingErrorHandler+1
  4048   001BE4  0012               	return		;funcret
  4049   001BE6                     __end_of_UART2_SetFramingErrorHandler:
  4050                           	callstack 0
  4051                           
  4052 ;; *************** function _UART2_SetErrorHandler *****************
  4053 ;; Defined at:
  4054 ;;		line 189 in file "mcc_generated_files/uart2.c"
  4055 ;; Parameters:    Size  Location     Type
  4056 ;;  interruptHan    2   13[COMRAM] PTR FTN()void 
  4057 ;;		 -> UART2_DefaultErrorHandler(1), 
  4058 ;; Auto vars:     Size  Location     Type
  4059 ;;		None
  4060 ;; Return value:  Size  Location     Type
  4061 ;;                  1    wreg      void 
  4062 ;; Registers used:
  4063 ;;		wreg, status,2, status,0
  4064 ;; Tracked objects:
  4065 ;;		On entry : 0/0
  4066 ;;		On exit  : 0/0
  4067 ;;		Unchanged: 0/0
  4068 ;; Data sizes:     COMRAM   BANK0   BANK1   BANK2   BANK3   BANK4   BANK5   BANK6   BANK7
  4069 ;;      Params:         2       0       0       0       0       0       0       0       0
  4070 ;;      Locals:         0       0       0       0       0       0       0       0       0
  4071 ;;      Temps:          0       0       0       0       0       0       0       0       0
  4072 ;;      Totals:         2       0       0       0       0       0       0       0       0
  4073 ;;Total ram usage:        2 bytes
  4074 ;; Hardware stack levels used: 1
  4075 ;; Hardware stack levels required when called: 9
  4076 ;; This function calls:
  4077 ;;		Nothing
  4078 ;; This function is called by:
  4079 ;;		_UART2_Initialize
  4080 ;; This function uses a non-reentrant model
  4081 ;;
  4082                           
  4083                           	psect	text36
  4084   001BE6                     __ptext36:
  4085                           	callstack 0
  4086   001BE6                     _UART2_SetErrorHandler:
  4087                           	callstack 19
  4088   001BE6                     
  4089                           ;mcc_generated_files/uart2.c: 190:     UART2_ErrorHandler = interruptHandler;
  4090   001BE6  C037  F007         	movff	UART2_SetErrorHandler@interruptHandler,_UART2_ErrorHandler
  4091   001BEA  C038  F008         	movff	UART2_SetErrorHandler@interruptHandler+1,_UART2_ErrorHandler+1
  4092   001BEE  0012               	return		;funcret
  4093   001BF0                     __end_of_UART2_SetErrorHandler:
  4094                           	callstack 0
  4095                           
  4096 ;; *************** function _UART1_Initialize *****************
  4097 ;; Defined at:
  4098 ;;		line 66 in file "mcc_generated_files/uart1.c"
  4099 ;; Parameters:    Size  Location     Type
  4100 ;;		None
  4101 ;; Auto vars:     Size  Location     Type
  4102 ;;		None
  4103 ;; Return value:  Size  Location     Type
  4104 ;;                  1    wreg      void 
  4105 ;; Registers used:
  4106 ;;		wreg, status,2, status,0, cstack
  4107 ;; Tracked objects:
  4108 ;;		On entry : 0/0
  4109 ;;		On exit  : 0/0
  4110 ;;		Unchanged: 0/0
  4111 ;; Data sizes:     COMRAM   BANK0   BANK1   BANK2   BANK3   BANK4   BANK5   BANK6   BANK7
  4112 ;;      Params:         0       0       0       0       0       0       0       0       0
  4113 ;;      Locals:         0       0       0       0       0       0       0       0       0
  4114 ;;      Temps:          0       0       0       0       0       0       0       0       0
  4115 ;;      Totals:         0       0       0       0       0       0       0       0       0
  4116 ;;Total ram usage:        0 bytes
  4117 ;; Hardware stack levels used: 1
  4118 ;; Hardware stack levels required when called: 10
  4119 ;; This function calls:
  4120 ;;		_UART1_SetErrorHandler
  4121 ;;		_UART1_SetFramingErrorHandler
  4122 ;;		_UART1_SetOverrunErrorHandler
  4123 ;; This function is called by:
  4124 ;;		_SYSTEM_Initialize
  4125 ;; This function uses a non-reentrant model
  4126 ;;
  4127                           
  4128                           	psect	text37
  4129   001358                     __ptext37:
  4130                           	callstack 0
  4131   001358                     _UART1_Initialize:
  4132                           	callstack 19
  4133   001358                     
  4134                           ;mcc_generated_files/uart1.c: 73:     U1P1L = 0x00;
  4135   001358  0E00               	movlw	0
  4136   00135A  013D               	movlb	61	; () banked
  4137   00135C  6FEC               	movwf	236,b	;volatile
  4138                           
  4139                           ;mcc_generated_files/uart1.c: 76:     U1P1H = 0x00;
  4140   00135E  0E00               	movlw	0
  4141   001360  6FED               	movwf	237,b	;volatile
  4142                           
  4143                           ;mcc_generated_files/uart1.c: 79:     U1P2L = 0x00;
  4144   001362  0E00               	movlw	0
  4145   001364  6FEE               	movwf	238,b	;volatile
  4146                           
  4147                           ;mcc_generated_files/uart1.c: 82:     U1P2H = 0x00;
  4148   001366  0E00               	movlw	0
  4149   001368  6FEF               	movwf	239,b	;volatile
  4150                           
  4151                           ;mcc_generated_files/uart1.c: 85:     U1P3L = 0x00;
  4152   00136A  0E00               	movlw	0
  4153   00136C  6FF0               	movwf	240,b	;volatile
  4154                           
  4155                           ;mcc_generated_files/uart1.c: 88:     U1P3H = 0x00;
  4156   00136E  0E00               	movlw	0
  4157   001370  6FF1               	movwf	241,b	;volatile
  4158                           
  4159                           ;mcc_generated_files/uart1.c: 91:     U1CON0 = 0xB4;
  4160   001372  0EB4               	movlw	180
  4161   001374  6FF2               	movwf	242,b	;volatile
  4162                           
  4163                           ;mcc_generated_files/uart1.c: 94:     U1CON1 = 0x80;
  4164   001376  0E80               	movlw	128
  4165   001378  6FF3               	movwf	243,b	;volatile
  4166                           
  4167                           ;mcc_generated_files/uart1.c: 97:     U1CON2 = 0x80;
  4168   00137A  0E80               	movlw	128
  4169   00137C  6FF4               	movwf	244,b	;volatile
  4170                           
  4171                           ;mcc_generated_files/uart1.c: 100:     U1BRGL = 0x38;
  4172   00137E  0E38               	movlw	56
  4173   001380  6FF5               	movwf	245,b	;volatile
  4174                           
  4175                           ;mcc_generated_files/uart1.c: 103:     U1BRGH = 0x01;
  4176   001382  0E01               	movlw	1
  4177   001384  6FF6               	movwf	246,b	;volatile
  4178                           
  4179                           ;mcc_generated_files/uart1.c: 106:     U1FIFO = 0x00;
  4180   001386  0E00               	movlw	0
  4181   001388  6FF7               	movwf	247,b	;volatile
  4182                           
  4183                           ;mcc_generated_files/uart1.c: 109:     U1UIR = 0x00;
  4184   00138A  0E00               	movlw	0
  4185   00138C  6FF8               	movwf	248,b	;volatile
  4186                           
  4187                           ;mcc_generated_files/uart1.c: 112:     U1ERRIR = 0x00;
  4188   00138E  0E00               	movlw	0
  4189   001390  6FF9               	movwf	249,b	;volatile
  4190                           
  4191                           ;mcc_generated_files/uart1.c: 115:     U1ERRIE = 0x00;
  4192   001392  0E00               	movlw	0
  4193   001394  6FFA               	movwf	250,b	;volatile
  4194   001396                     
  4195                           ; BSR set to: 61
  4196                           ;mcc_generated_files/uart1.c: 118:     UART1_SetFramingErrorHandler(UART1_DefaultFraming
      +                          ErrorHandler);
  4197   001396  0E98               	movlw	low _UART1_DefaultFramingErrorHandler
  4198   001398  6E37               	movwf	UART1_SetFramingErrorHandler@interruptHandler^0,c
  4199   00139A  0E1B               	movlw	high _UART1_DefaultFramingErrorHandler
  4200   00139C  6E38               	movwf	(UART1_SetFramingErrorHandler@interruptHandler+1)^0,c
  4201   00139E  ECFD  F00D         	call	_UART1_SetFramingErrorHandler	;wreg free
  4202   0013A2                     
  4203                           ;mcc_generated_files/uart1.c: 119:     UART1_SetOverrunErrorHandler(UART1_DefaultOverrun
      +                          ErrorHandler);
  4204   0013A2  0E8C               	movlw	low _UART1_DefaultOverrunErrorHandler
  4205   0013A4  6E37               	movwf	UART1_SetOverrunErrorHandler@interruptHandler^0,c
  4206   0013A6  0E1B               	movlw	high _UART1_DefaultOverrunErrorHandler
  4207   0013A8  6E38               	movwf	(UART1_SetOverrunErrorHandler@interruptHandler+1)^0,c
  4208   0013AA  ECF8  F00D         	call	_UART1_SetOverrunErrorHandler	;wreg free
  4209   0013AE                     
  4210                           ;mcc_generated_files/uart1.c: 120:     UART1_SetErrorHandler(UART1_DefaultErrorHandler);
  4211   0013AE  0EA4               	movlw	low _UART1_DefaultErrorHandler
  4212   0013B0  6E37               	movwf	UART1_SetErrorHandler@interruptHandler^0,c
  4213   0013B2  0E1B               	movlw	high _UART1_DefaultErrorHandler
  4214   0013B4  6E38               	movwf	(UART1_SetErrorHandler@interruptHandler+1)^0,c
  4215   0013B6  EC02  F00E         	call	_UART1_SetErrorHandler	;wreg free
  4216   0013BA                     
  4217                           ;mcc_generated_files/uart1.c: 122:     uart1RxLastError.status = 0;
  4218   0013BA  0E00               	movlw	0
  4219   0013BC  6E27               	movwf	_uart1RxLastError^0,c	;volatile
  4220   0013BE  0012               	return		;funcret
  4221   0013C0                     __end_of_UART1_Initialize:
  4222                           	callstack 0
  4223                           
  4224 ;; *************** function _UART1_SetOverrunErrorHandler *****************
  4225 ;; Defined at:
  4226 ;;		line 199 in file "mcc_generated_files/uart1.c"
  4227 ;; Parameters:    Size  Location     Type
  4228 ;;  interruptHan    2   13[COMRAM] PTR FTN()void 
  4229 ;;		 -> UART1_DefaultOverrunErrorHandler(1), 
  4230 ;; Auto vars:     Size  Location     Type
  4231 ;;		None
  4232 ;; Return value:  Size  Location     Type
  4233 ;;                  1    wreg      void 
  4234 ;; Registers used:
  4235 ;;		wreg, status,2, status,0
  4236 ;; Tracked objects:
  4237 ;;		On entry : 0/0
  4238 ;;		On exit  : 0/0
  4239 ;;		Unchanged: 0/0
  4240 ;; Data sizes:     COMRAM   BANK0   BANK1   BANK2   BANK3   BANK4   BANK5   BANK6   BANK7
  4241 ;;      Params:         2       0       0       0       0       0       0       0       0
  4242 ;;      Locals:         0       0       0       0       0       0       0       0       0
  4243 ;;      Temps:          0       0       0       0       0       0       0       0       0
  4244 ;;      Totals:         2       0       0       0       0       0       0       0       0
  4245 ;;Total ram usage:        2 bytes
  4246 ;; Hardware stack levels used: 1
  4247 ;; Hardware stack levels required when called: 9
  4248 ;; This function calls:
  4249 ;;		Nothing
  4250 ;; This function is called by:
  4251 ;;		_UART1_Initialize
  4252 ;; This function uses a non-reentrant model
  4253 ;;
  4254                           
  4255                           	psect	text38
  4256   001BF0                     __ptext38:
  4257                           	callstack 0
  4258   001BF0                     _UART1_SetOverrunErrorHandler:
  4259                           	callstack 19
  4260   001BF0                     
  4261                           ;mcc_generated_files/uart1.c: 200:     UART1_OverrunErrorHandler = interruptHandler;
  4262   001BF0  C037  F00F         	movff	UART1_SetOverrunErrorHandler@interruptHandler,_UART1_OverrunErrorHandler
  4263   001BF4  C038  F010         	movff	UART1_SetOverrunErrorHandler@interruptHandler+1,_UART1_OverrunErrorHandler+1
  4264   001BF8  0012               	return		;funcret
  4265   001BFA                     __end_of_UART1_SetOverrunErrorHandler:
  4266                           	callstack 0
  4267                           
  4268 ;; *************** function _UART1_SetFramingErrorHandler *****************
  4269 ;; Defined at:
  4270 ;;		line 195 in file "mcc_generated_files/uart1.c"
  4271 ;; Parameters:    Size  Location     Type
  4272 ;;  interruptHan    2   13[COMRAM] PTR FTN()void 
  4273 ;;		 -> UART1_DefaultFramingErrorHandler(1), 
  4274 ;; Auto vars:     Size  Location     Type
  4275 ;;		None
  4276 ;; Return value:  Size  Location     Type
  4277 ;;                  1    wreg      void 
  4278 ;; Registers used:
  4279 ;;		wreg, status,2, status,0
  4280 ;; Tracked objects:
  4281 ;;		On entry : 0/0
  4282 ;;		On exit  : 0/0
  4283 ;;		Unchanged: 0/0
  4284 ;; Data sizes:     COMRAM   BANK0   BANK1   BANK2   BANK3   BANK4   BANK5   BANK6   BANK7
  4285 ;;      Params:         2       0       0       0       0       0       0       0       0
  4286 ;;      Locals:         0       0       0       0       0       0       0       0       0
  4287 ;;      Temps:          0       0       0       0       0       0       0       0       0
  4288 ;;      Totals:         2       0       0       0       0       0       0       0       0
  4289 ;;Total ram usage:        2 bytes
  4290 ;; Hardware stack levels used: 1
  4291 ;; Hardware stack levels required when called: 9
  4292 ;; This function calls:
  4293 ;;		Nothing
  4294 ;; This function is called by:
  4295 ;;		_UART1_Initialize
  4296 ;; This function uses a non-reentrant model
  4297 ;;
  4298                           
  4299                           	psect	text39
  4300   001BFA                     __ptext39:
  4301                           	callstack 0
  4302   001BFA                     _UART1_SetFramingErrorHandler:
  4303                           	callstack 19
  4304   001BFA                     
  4305                           ;mcc_generated_files/uart1.c: 196:     UART1_FramingErrorHandler = interruptHandler;
  4306   001BFA  C037  F011         	movff	UART1_SetFramingErrorHandler@interruptHandler,_UART1_FramingErrorHandler
  4307   001BFE  C038  F012         	movff	UART1_SetFramingErrorHandler@interruptHandler+1,_UART1_FramingErrorHandler+1
  4308   001C02  0012               	return		;funcret
  4309   001C04                     __end_of_UART1_SetFramingErrorHandler:
  4310                           	callstack 0
  4311                           
  4312 ;; *************** function _UART1_SetErrorHandler *****************
  4313 ;; Defined at:
  4314 ;;		line 203 in file "mcc_generated_files/uart1.c"
  4315 ;; Parameters:    Size  Location     Type
  4316 ;;  interruptHan    2   13[COMRAM] PTR FTN()void 
  4317 ;;		 -> UART1_DefaultErrorHandler(1), 
  4318 ;; Auto vars:     Size  Location     Type
  4319 ;;		None
  4320 ;; Return value:  Size  Location     Type
  4321 ;;                  1    wreg      void 
  4322 ;; Registers used:
  4323 ;;		wreg, status,2, status,0
  4324 ;; Tracked objects:
  4325 ;;		On entry : 0/0
  4326 ;;		On exit  : 0/0
  4327 ;;		Unchanged: 0/0
  4328 ;; Data sizes:     COMRAM   BANK0   BANK1   BANK2   BANK3   BANK4   BANK5   BANK6   BANK7
  4329 ;;      Params:         2       0       0       0       0       0       0       0       0
  4330 ;;      Locals:         0       0       0       0       0       0       0       0       0
  4331 ;;      Temps:          0       0       0       0       0       0       0       0       0
  4332 ;;      Totals:         2       0       0       0       0       0       0       0       0
  4333 ;;Total ram usage:        2 bytes
  4334 ;; Hardware stack levels used: 1
  4335 ;; Hardware stack levels required when called: 9
  4336 ;; This function calls:
  4337 ;;		Nothing
  4338 ;; This function is called by:
  4339 ;;		_UART1_Initialize
  4340 ;; This function uses a non-reentrant model
  4341 ;;
  4342                           
  4343                           	psect	text40
  4344   001C04                     __ptext40:
  4345                           	callstack 0
  4346   001C04                     _UART1_SetErrorHandler:
  4347                           	callstack 19
  4348   001C04                     
  4349                           ;mcc_generated_files/uart1.c: 204:     UART1_ErrorHandler = interruptHandler;
  4350   001C04  C037  F00D         	movff	UART1_SetErrorHandler@interruptHandler,_UART1_ErrorHandler
  4351   001C08  C038  F00E         	movff	UART1_SetErrorHandler@interruptHandler+1,_UART1_ErrorHandler+1
  4352   001C0C  0012               	return		;funcret
  4353   001C0E                     __end_of_UART1_SetErrorHandler:
  4354                           	callstack 0
  4355                           
  4356 ;; *************** function _TMR5_Initialize *****************
  4357 ;; Defined at:
  4358 ;;		line 63 in file "mcc_generated_files/tmr5.c"
  4359 ;; Parameters:    Size  Location     Type
  4360 ;;		None
  4361 ;; Auto vars:     Size  Location     Type
  4362 ;;		None
  4363 ;; Return value:  Size  Location     Type
  4364 ;;                  1    wreg      void 
  4365 ;; Registers used:
  4366 ;;		wreg, status,2, status,0
  4367 ;; Tracked objects:
  4368 ;;		On entry : 0/0
  4369 ;;		On exit  : 0/0
  4370 ;;		Unchanged: 0/0
  4371 ;; Data sizes:     COMRAM   BANK0   BANK1   BANK2   BANK3   BANK4   BANK5   BANK6   BANK7
  4372 ;;      Params:         0       0       0       0       0       0       0       0       0
  4373 ;;      Locals:         0       0       0       0       0       0       0       0       0
  4374 ;;      Temps:          2       0       0       0       0       0       0       0       0
  4375 ;;      Totals:         2       0       0       0       0       0       0       0       0
  4376 ;;Total ram usage:        2 bytes
  4377 ;; Hardware stack levels used: 1
  4378 ;; Hardware stack levels required when called: 9
  4379 ;; This function calls:
  4380 ;;		Nothing
  4381 ;; This function is called by:
  4382 ;;		_SYSTEM_Initialize
  4383 ;;		_coin_in
  4384 ;; This function uses a non-reentrant model
  4385 ;;
  4386                           
  4387                           	psect	text41
  4388   00172C                     __ptext41:
  4389                           	callstack 0
  4390   00172C                     _TMR5_Initialize:
  4391                           	callstack 20
  4392   00172C                     
  4393                           ;mcc_generated_files/tmr5.c: 68:     T5GCON = 0x00;
  4394   00172C  0E00               	movlw	0
  4395   00172E  6E9B               	movwf	155,c	;volatile
  4396                           
  4397                           ;mcc_generated_files/tmr5.c: 71:     T5GATE = 0x00;
  4398   001730  0E00               	movlw	0
  4399   001732  6E9C               	movwf	156,c	;volatile
  4400                           
  4401                           ;mcc_generated_files/tmr5.c: 74:     T5CLK = 0x06;
  4402   001734  0E06               	movlw	6
  4403   001736  6E9D               	movwf	157,c	;volatile
  4404                           
  4405                           ;mcc_generated_files/tmr5.c: 77:     TMR5H = 0xF0;
  4406   001738  0EF0               	movlw	240
  4407   00173A  6E99               	movwf	153,c	;volatile
  4408                           
  4409                           ;mcc_generated_files/tmr5.c: 80:     TMR5L = 0xBE;
  4410   00173C  0EBE               	movlw	190
  4411   00173E  6E98               	movwf	152,c	;volatile
  4412   001740                     
  4413                           ;mcc_generated_files/tmr5.c: 83:     PIR8bits.TMR5IF = 0;
  4414   001740  0139               	movlb	57	; () banked
  4415   001742  9DA8               	bcf	168,6,b	;volatile
  4416   001744                     
  4417                           ; BSR set to: 57
  4418                           ;mcc_generated_files/tmr5.c: 86:     timer5ReloadVal=(uint16_t)((TMR5H << 8) | TMR5L);
  4419   001744  5098               	movf	152,w,c	;volatile
  4420   001746  006F FE64  F037    	movff	16281,??_TMR5_Initialize	;volatile
  4421   00174C  6A38               	clrf	(??_TMR5_Initialize+1)^0,c
  4422   00174E  C037  F038         	movff	??_TMR5_Initialize,??_TMR5_Initialize+1
  4423   001752  6A37               	clrf	??_TMR5_Initialize^0,c
  4424   001754  1037               	iorwf	??_TMR5_Initialize^0,w,c
  4425   001756  6E13               	movwf	_timer5ReloadVal^0,c	;volatile
  4426   001758  5038               	movf	(??_TMR5_Initialize+1)^0,w,c
  4427   00175A  6E14               	movwf	(_timer5ReloadVal+1)^0,c	;volatile
  4428   00175C                     
  4429                           ; BSR set to: 57
  4430                           ;mcc_generated_files/tmr5.c: 89:     T5CON = 0x31;
  4431   00175C  0E31               	movlw	49
  4432   00175E  6E9A               	movwf	154,c	;volatile
  4433   001760                     
  4434                           ; BSR set to: 57
  4435   001760  0012               	return		;funcret
  4436   001762                     __end_of_TMR5_Initialize:
  4437                           	callstack 0
  4438                           
  4439 ;; *************** function _TMR3_Initialize *****************
  4440 ;; Defined at:
  4441 ;;		line 63 in file "mcc_generated_files/tmr3.c"
  4442 ;; Parameters:    Size  Location     Type
  4443 ;;		None
  4444 ;; Auto vars:     Size  Location     Type
  4445 ;;		None
  4446 ;; Return value:  Size  Location     Type
  4447 ;;                  1    wreg      void 
  4448 ;; Registers used:
  4449 ;;		wreg, status,2, status,0
  4450 ;; Tracked objects:
  4451 ;;		On entry : 0/0
  4452 ;;		On exit  : 0/0
  4453 ;;		Unchanged: 0/0
  4454 ;; Data sizes:     COMRAM   BANK0   BANK1   BANK2   BANK3   BANK4   BANK5   BANK6   BANK7
  4455 ;;      Params:         0       0       0       0       0       0       0       0       0
  4456 ;;      Locals:         0       0       0       0       0       0       0       0       0
  4457 ;;      Temps:          2       0       0       0       0       0       0       0       0
  4458 ;;      Totals:         2       0       0       0       0       0       0       0       0
  4459 ;;Total ram usage:        2 bytes
  4460 ;; Hardware stack levels used: 1
  4461 ;; Hardware stack levels required when called: 9
  4462 ;; This function calls:
  4463 ;;		Nothing
  4464 ;; This function is called by:
  4465 ;;		_SYSTEM_Initialize
  4466 ;;		_button_flash
  4467 ;; This function uses a non-reentrant model
  4468 ;;
  4469                           
  4470                           	psect	text42
  4471   001762                     __ptext42:
  4472                           	callstack 0
  4473   001762                     _TMR3_Initialize:
  4474                           	callstack 19
  4475   001762                     
  4476                           ;mcc_generated_files/tmr3.c: 68:     T3GCON = 0x00;
  4477   001762  0E00               	movlw	0
  4478   001764  6EA7               	movwf	167,c	;volatile
  4479                           
  4480                           ;mcc_generated_files/tmr3.c: 71:     T3GATE = 0x00;
  4481   001766  0E00               	movlw	0
  4482   001768  6EA8               	movwf	168,c	;volatile
  4483                           
  4484                           ;mcc_generated_files/tmr3.c: 74:     T3CLK = 0x04;
  4485   00176A  0E04               	movlw	4
  4486   00176C  6EA9               	movwf	169,c	;volatile
  4487                           
  4488                           ;mcc_generated_files/tmr3.c: 77:     TMR3H = 0xC3;
  4489   00176E  0EC3               	movlw	195
  4490   001770  6EA5               	movwf	165,c	;volatile
  4491                           
  4492                           ;mcc_generated_files/tmr3.c: 80:     TMR3L = 0x74;
  4493   001772  0E74               	movlw	116
  4494   001774  6EA4               	movwf	164,c	;volatile
  4495   001776                     
  4496                           ;mcc_generated_files/tmr3.c: 83:     PIR6bits.TMR3IF = 0;
  4497   001776  0139               	movlb	57	; () banked
  4498   001778  9DA6               	bcf	166,6,b	;volatile
  4499   00177A                     
  4500                           ; BSR set to: 57
  4501                           ;mcc_generated_files/tmr3.c: 86:     timer3ReloadVal=(uint16_t)((TMR3H << 8) | TMR3L);
  4502   00177A  50A4               	movf	164,w,c	;volatile
  4503   00177C  006F FE94  F037    	movff	16293,??_TMR3_Initialize	;volatile
  4504   001782  6A38               	clrf	(??_TMR3_Initialize+1)^0,c
  4505   001784  C037  F038         	movff	??_TMR3_Initialize,??_TMR3_Initialize+1
  4506   001788  6A37               	clrf	??_TMR3_Initialize^0,c
  4507   00178A  1037               	iorwf	??_TMR3_Initialize^0,w,c
  4508   00178C  6E15               	movwf	_timer3ReloadVal^0,c	;volatile
  4509   00178E  5038               	movf	(??_TMR3_Initialize+1)^0,w,c
  4510   001790  6E16               	movwf	(_timer3ReloadVal+1)^0,c	;volatile
  4511   001792                     
  4512                           ; BSR set to: 57
  4513                           ;mcc_generated_files/tmr3.c: 89:     T3CON = 0x01;
  4514   001792  0E01               	movlw	1
  4515   001794  6EA6               	movwf	166,c	;volatile
  4516   001796                     
  4517                           ; BSR set to: 57
  4518   001796  0012               	return		;funcret
  4519   001798                     __end_of_TMR3_Initialize:
  4520                           	callstack 0
  4521                           
  4522 ;; *************** function _TMR2_Initialize *****************
  4523 ;; Defined at:
  4524 ;;		line 64 in file "mcc_generated_files/tmr2.c"
  4525 ;; Parameters:    Size  Location     Type
  4526 ;;		None
  4527 ;; Auto vars:     Size  Location     Type
  4528 ;;		None
  4529 ;; Return value:  Size  Location     Type
  4530 ;;                  1    wreg      void 
  4531 ;; Registers used:
  4532 ;;		wreg, status,2, status,0, cstack
  4533 ;; Tracked objects:
  4534 ;;		On entry : 0/0
  4535 ;;		On exit  : 0/0
  4536 ;;		Unchanged: 0/0
  4537 ;; Data sizes:     COMRAM   BANK0   BANK1   BANK2   BANK3   BANK4   BANK5   BANK6   BANK7
  4538 ;;      Params:         0       0       0       0       0       0       0       0       0
  4539 ;;      Locals:         0       0       0       0       0       0       0       0       0
  4540 ;;      Temps:          0       0       0       0       0       0       0       0       0
  4541 ;;      Totals:         0       0       0       0       0       0       0       0       0
  4542 ;;Total ram usage:        0 bytes
  4543 ;; Hardware stack levels used: 1
  4544 ;; Hardware stack levels required when called: 10
  4545 ;; This function calls:
  4546 ;;		_TMR2_SetInterruptHandler
  4547 ;; This function is called by:
  4548 ;;		_SYSTEM_Initialize
  4549 ;; This function uses a non-reentrant model
  4550 ;;
  4551                           
  4552                           	psect	text43
  4553   00190E                     __ptext43:
  4554                           	callstack 0
  4555   00190E                     _TMR2_Initialize:
  4556                           	callstack 19
  4557   00190E                     
  4558                           ;mcc_generated_files/tmr2.c: 69:     T2CLKCON = 0x04;
  4559   00190E  0E04               	movlw	4
  4560   001910  6EAE               	movwf	174,c	;volatile
  4561                           
  4562                           ;mcc_generated_files/tmr2.c: 72:     T2HLT = 0x20;
  4563   001912  0E20               	movlw	32
  4564   001914  6EAD               	movwf	173,c	;volatile
  4565                           
  4566                           ;mcc_generated_files/tmr2.c: 75:     T2RST = 0x00;
  4567   001916  0E00               	movlw	0
  4568   001918  6EAF               	movwf	175,c	;volatile
  4569                           
  4570                           ;mcc_generated_files/tmr2.c: 78:     T2PR = 0x90;
  4571   00191A  0E90               	movlw	144
  4572   00191C  6EAB               	movwf	171,c	;volatile
  4573                           
  4574                           ;mcc_generated_files/tmr2.c: 81:     T2TMR = 0x00;
  4575   00191E  0E00               	movlw	0
  4576   001920  6EAA               	movwf	170,c	;volatile
  4577   001922                     
  4578                           ;mcc_generated_files/tmr2.c: 84:     PIR4bits.TMR2IF = 0;
  4579   001922  0139               	movlb	57	; () banked
  4580   001924  95A4               	bcf	164,2,b	;volatile
  4581   001926                     
  4582                           ; BSR set to: 57
  4583                           ;mcc_generated_files/tmr2.c: 87:     PIE4bits.TMR2IE = 1;
  4584   001926  8594               	bsf	148,2,b	;volatile
  4585   001928                     
  4586                           ; BSR set to: 57
  4587                           ;mcc_generated_files/tmr2.c: 90:     TMR2_SetInterruptHandler(TMR2_DefaultInterruptHandl
      +                          er);
  4588   001928  0E38               	movlw	low _TMR2_DefaultInterruptHandler
  4589   00192A  6E37               	movwf	TMR2_SetInterruptHandler@InterruptHandler^0,c
  4590   00192C  0E1C               	movlw	high _TMR2_DefaultInterruptHandler
  4591   00192E  6E38               	movwf	(TMR2_SetInterruptHandler@InterruptHandler+1)^0,c
  4592   001930  EC07  F00E         	call	_TMR2_SetInterruptHandler	;wreg free
  4593   001934                     
  4594                           ;mcc_generated_files/tmr2.c: 93:     T2CON = 0xD0;
  4595   001934  0ED0               	movlw	208
  4596   001936  6EAC               	movwf	172,c	;volatile
  4597   001938  0012               	return		;funcret
  4598   00193A                     __end_of_TMR2_Initialize:
  4599                           	callstack 0
  4600                           
  4601 ;; *************** function _TMR2_SetInterruptHandler *****************
  4602 ;; Defined at:
  4603 ;;		line 178 in file "mcc_generated_files/tmr2.c"
  4604 ;; Parameters:    Size  Location     Type
  4605 ;;  InterruptHan    2   13[COMRAM] PTR FTN()void 
  4606 ;;		 -> InterruptTMR2(1), TMR2_DefaultInterruptHandler(1), 
  4607 ;; Auto vars:     Size  Location     Type
  4608 ;;		None
  4609 ;; Return value:  Size  Location     Type
  4610 ;;                  1    wreg      void 
  4611 ;; Registers used:
  4612 ;;		wreg, status,2, status,0
  4613 ;; Tracked objects:
  4614 ;;		On entry : 0/0
  4615 ;;		On exit  : 0/0
  4616 ;;		Unchanged: 0/0
  4617 ;; Data sizes:     COMRAM   BANK0   BANK1   BANK2   BANK3   BANK4   BANK5   BANK6   BANK7
  4618 ;;      Params:         2       0       0       0       0       0       0       0       0
  4619 ;;      Locals:         0       0       0       0       0       0       0       0       0
  4620 ;;      Temps:          0       0       0       0       0       0       0       0       0
  4621 ;;      Totals:         2       0       0       0       0       0       0       0       0
  4622 ;;Total ram usage:        2 bytes
  4623 ;; Hardware stack levels used: 1
  4624 ;; Hardware stack levels required when called: 9
  4625 ;; This function calls:
  4626 ;;		Nothing
  4627 ;; This function is called by:
  4628 ;;		_TMR2_Initialize
  4629 ;;		_main
  4630 ;; This function uses a non-reentrant model
  4631 ;;
  4632                           
  4633                           	psect	text44
  4634   001C0E                     __ptext44:
  4635                           	callstack 0
  4636   001C0E                     _TMR2_SetInterruptHandler:
  4637                           	callstack 21
  4638   001C0E                     
  4639                           ;mcc_generated_files/tmr2.c: 179:     TMR2_InterruptHandler = InterruptHandler;
  4640   001C0E  C037  F005         	movff	TMR2_SetInterruptHandler@InterruptHandler,_TMR2_InterruptHandler
  4641   001C12  C038  F006         	movff	TMR2_SetInterruptHandler@InterruptHandler+1,_TMR2_InterruptHandler+1
  4642   001C16  0012               	return		;funcret
  4643   001C18                     __end_of_TMR2_SetInterruptHandler:
  4644                           	callstack 0
  4645                           
  4646 ;; *************** function _TMR1_Initialize *****************
  4647 ;; Defined at:
  4648 ;;		line 63 in file "mcc_generated_files/tmr1.c"
  4649 ;; Parameters:    Size  Location     Type
  4650 ;;		None
  4651 ;; Auto vars:     Size  Location     Type
  4652 ;;		None
  4653 ;; Return value:  Size  Location     Type
  4654 ;;                  1    wreg      void 
  4655 ;; Registers used:
  4656 ;;		wreg, status,2, status,0
  4657 ;; Tracked objects:
  4658 ;;		On entry : 0/0
  4659 ;;		On exit  : 0/0
  4660 ;;		Unchanged: 0/0
  4661 ;; Data sizes:     COMRAM   BANK0   BANK1   BANK2   BANK3   BANK4   BANK5   BANK6   BANK7
  4662 ;;      Params:         0       0       0       0       0       0       0       0       0
  4663 ;;      Locals:         0       0       0       0       0       0       0       0       0
  4664 ;;      Temps:          2       0       0       0       0       0       0       0       0
  4665 ;;      Totals:         2       0       0       0       0       0       0       0       0
  4666 ;;Total ram usage:        2 bytes
  4667 ;; Hardware stack levels used: 1
  4668 ;; Hardware stack levels required when called: 9
  4669 ;; This function calls:
  4670 ;;		Nothing
  4671 ;; This function is called by:
  4672 ;;		_SYSTEM_Initialize
  4673 ;;		_dispense
  4674 ;;		_Set_Timeout
  4675 ;; This function uses a non-reentrant model
  4676 ;;
  4677                           
  4678                           	psect	text45
  4679   001798                     __ptext45:
  4680                           	callstack 0
  4681   001798                     _TMR1_Initialize:
  4682                           	callstack 19
  4683   001798                     
  4684                           ;mcc_generated_files/tmr1.c: 68:     T1GCON = 0x00;
  4685   001798  0E00               	movlw	0
  4686   00179A  6EB3               	movwf	179,c	;volatile
  4687                           
  4688                           ;mcc_generated_files/tmr1.c: 71:     T1GATE = 0x00;
  4689   00179C  0E00               	movlw	0
  4690   00179E  6EB4               	movwf	180,c	;volatile
  4691                           
  4692                           ;mcc_generated_files/tmr1.c: 74:     T1CLK = 0x04;
  4693   0017A0  0E04               	movlw	4
  4694   0017A2  6EB5               	movwf	181,c	;volatile
  4695                           
  4696                           ;mcc_generated_files/tmr1.c: 77:     TMR1H = 0x00;
  4697   0017A4  0E00               	movlw	0
  4698   0017A6  6EB1               	movwf	177,c	;volatile
  4699                           
  4700                           ;mcc_generated_files/tmr1.c: 80:     TMR1L = 0x00;
  4701   0017A8  0E00               	movlw	0
  4702   0017AA  6EB0               	movwf	176,c	;volatile
  4703   0017AC                     
  4704                           ;mcc_generated_files/tmr1.c: 83:     PIR4bits.TMR1IF = 0;
  4705   0017AC  0139               	movlb	57	; () banked
  4706   0017AE  91A4               	bcf	164,0,b	;volatile
  4707   0017B0                     
  4708                           ; BSR set to: 57
  4709                           ;mcc_generated_files/tmr1.c: 86:     timer1ReloadVal=(uint16_t)((TMR1H << 8) | TMR1L);
  4710   0017B0  50B0               	movf	176,w,c	;volatile
  4711   0017B2  006F FEC4  F037    	movff	16305,??_TMR1_Initialize	;volatile
  4712   0017B8  6A38               	clrf	(??_TMR1_Initialize+1)^0,c
  4713   0017BA  C037  F038         	movff	??_TMR1_Initialize,??_TMR1_Initialize+1
  4714   0017BE  6A37               	clrf	??_TMR1_Initialize^0,c
  4715   0017C0  1037               	iorwf	??_TMR1_Initialize^0,w,c
  4716   0017C2  6E17               	movwf	_timer1ReloadVal^0,c	;volatile
  4717   0017C4  5038               	movf	(??_TMR1_Initialize+1)^0,w,c
  4718   0017C6  6E18               	movwf	(_timer1ReloadVal+1)^0,c	;volatile
  4719   0017C8                     
  4720                           ; BSR set to: 57
  4721                           ;mcc_generated_files/tmr1.c: 89:     T1CON = 0x33;
  4722   0017C8  0E33               	movlw	51
  4723   0017CA  6EB2               	movwf	178,c	;volatile
  4724   0017CC                     
  4725                           ; BSR set to: 57
  4726   0017CC  0012               	return		;funcret
  4727   0017CE                     __end_of_TMR1_Initialize:
  4728                           	callstack 0
  4729                           
  4730 ;; *************** function _TMR0_Initialize *****************
  4731 ;; Defined at:
  4732 ;;		line 60 in file "mcc_generated_files/tmr0.c"
  4733 ;; Parameters:    Size  Location     Type
  4734 ;;		None
  4735 ;; Auto vars:     Size  Location     Type
  4736 ;;		None
  4737 ;; Return value:  Size  Location     Type
  4738 ;;                  1    wreg      void 
  4739 ;; Registers used:
  4740 ;;		wreg, status,2
  4741 ;; Tracked objects:
  4742 ;;		On entry : 0/0
  4743 ;;		On exit  : 0/0
  4744 ;;		Unchanged: 0/0
  4745 ;; Data sizes:     COMRAM   BANK0   BANK1   BANK2   BANK3   BANK4   BANK5   BANK6   BANK7
  4746 ;;      Params:         0       0       0       0       0       0       0       0       0
  4747 ;;      Locals:         0       0       0       0       0       0       0       0       0
  4748 ;;      Temps:          0       0       0       0       0       0       0       0       0
  4749 ;;      Totals:         0       0       0       0       0       0       0       0       0
  4750 ;;Total ram usage:        0 bytes
  4751 ;; Hardware stack levels used: 1
  4752 ;; Hardware stack levels required when called: 9
  4753 ;; This function calls:
  4754 ;;		Nothing
  4755 ;; This function is called by:
  4756 ;;		_SYSTEM_Initialize
  4757 ;;		_mdb_comm
  4758 ;; This function uses a non-reentrant model
  4759 ;;
  4760                           
  4761                           	psect	text46
  4762   001AA0                     __ptext46:
  4763                           	callstack 0
  4764   001AA0                     _TMR0_Initialize:
  4765                           	callstack 18
  4766   001AA0                     
  4767                           ;mcc_generated_files/tmr0.c: 65:     T0CON1 = 0x80;
  4768   001AA0  0E80               	movlw	128
  4769   001AA2  6EB9               	movwf	185,c	;volatile
  4770                           
  4771                           ;mcc_generated_files/tmr0.c: 68:     TMR0H = 0x9A;
  4772   001AA4  0E9A               	movlw	154
  4773   001AA6  6EB7               	movwf	183,c	;volatile
  4774                           
  4775                           ;mcc_generated_files/tmr0.c: 71:     TMR0L = 0x00;
  4776   001AA8  0E00               	movlw	0
  4777   001AAA  6EB6               	movwf	182,c	;volatile
  4778   001AAC                     
  4779                           ;mcc_generated_files/tmr0.c: 74:     PIR3bits.TMR0IF = 0;
  4780   001AAC  0139               	movlb	57	; () banked
  4781   001AAE  9FA3               	bcf	163,7,b	;volatile
  4782                           
  4783                           ;mcc_generated_files/tmr0.c: 77:     T0CON0 = 0x80;
  4784   001AB0  0E80               	movlw	128
  4785   001AB2  6EB8               	movwf	184,c	;volatile
  4786   001AB4                     
  4787                           ; BSR set to: 57
  4788   001AB4  0012               	return		;funcret
  4789   001AB6                     __end_of_TMR0_Initialize:
  4790                           	callstack 0
  4791                           
  4792 ;; *************** function _SPI1_Initialize *****************
  4793 ;; Defined at:
  4794 ;;		line 64 in file "mcc_generated_files/spi1.c"
  4795 ;; Parameters:    Size  Location     Type
  4796 ;;		None
  4797 ;; Auto vars:     Size  Location     Type
  4798 ;;		None
  4799 ;; Return value:  Size  Location     Type
  4800 ;;                  1    wreg      void 
  4801 ;; Registers used:
  4802 ;;		wreg, status,2
  4803 ;; Tracked objects:
  4804 ;;		On entry : 0/0
  4805 ;;		On exit  : 0/0
  4806 ;;		Unchanged: 0/0
  4807 ;; Data sizes:     COMRAM   BANK0   BANK1   BANK2   BANK3   BANK4   BANK5   BANK6   BANK7
  4808 ;;      Params:         0       0       0       0       0       0       0       0       0
  4809 ;;      Locals:         0       0       0       0       0       0       0       0       0
  4810 ;;      Temps:          0       0       0       0       0       0       0       0       0
  4811 ;;      Totals:         0       0       0       0       0       0       0       0       0
  4812 ;;Total ram usage:        0 bytes
  4813 ;; Hardware stack levels used: 1
  4814 ;; Hardware stack levels required when called: 9
  4815 ;; This function calls:
  4816 ;;		Nothing
  4817 ;; This function is called by:
  4818 ;;		_SYSTEM_Initialize
  4819 ;; This function uses a non-reentrant model
  4820 ;;
  4821                           
  4822                           	psect	text47
  4823   001A3A                     __ptext47:
  4824                           	callstack 0
  4825   001A3A                     _SPI1_Initialize:
  4826                           	callstack 20
  4827   001A3A                     
  4828                           ;mcc_generated_files/spi1.c: 67:     SPI1CON0 = 0x02;
  4829   001A3A  0E02               	movlw	2
  4830   001A3C  013D               	movlb	61	; () banked
  4831   001A3E  6F14               	movwf	20,b	;volatile
  4832                           
  4833                           ;mcc_generated_files/spi1.c: 69:     SPI1CON1 = 0x20;
  4834   001A40  0E20               	movlw	32
  4835   001A42  6F15               	movwf	21,b	;volatile
  4836                           
  4837                           ;mcc_generated_files/spi1.c: 71:     SPI1CON2 = 0x02;
  4838   001A44  0E02               	movlw	2
  4839   001A46  6F16               	movwf	22,b	;volatile
  4840                           
  4841                           ;mcc_generated_files/spi1.c: 73:     SPI1CLK = 0x00;
  4842   001A48  0E00               	movlw	0
  4843   001A4A  6F1C               	movwf	28,b	;volatile
  4844                           
  4845                           ;mcc_generated_files/spi1.c: 75:     SPI1BAUD = 0x00;
  4846   001A4C  0E00               	movlw	0
  4847   001A4E  6F19               	movwf	25,b	;volatile
  4848   001A50                     
  4849                           ; BSR set to: 61
  4850                           ;mcc_generated_files/spi1.c: 76:     TRISBbits.TRISB5 = 0;
  4851   001A50  9AC3               	bcf	195,5,c	;volatile
  4852   001A52                     
  4853                           ; BSR set to: 61
  4854   001A52  0012               	return		;funcret
  4855   001A54                     __end_of_SPI1_Initialize:
  4856                           	callstack 0
  4857                           
  4858 ;; *************** function _PMD_Initialize *****************
  4859 ;; Defined at:
  4860 ;;		line 82 in file "mcc_generated_files/mcc.c"
  4861 ;; Parameters:    Size  Location     Type
  4862 ;;		None
  4863 ;; Auto vars:     Size  Location     Type
  4864 ;;		None
  4865 ;; Return value:  Size  Location     Type
  4866 ;;                  1    wreg      void 
  4867 ;; Registers used:
  4868 ;;		wreg, status,2
  4869 ;; Tracked objects:
  4870 ;;		On entry : 0/0
  4871 ;;		On exit  : 0/0
  4872 ;;		Unchanged: 0/0
  4873 ;; Data sizes:     COMRAM   BANK0   BANK1   BANK2   BANK3   BANK4   BANK5   BANK6   BANK7
  4874 ;;      Params:         0       0       0       0       0       0       0       0       0
  4875 ;;      Locals:         0       0       0       0       0       0       0       0       0
  4876 ;;      Temps:          0       0       0       0       0       0       0       0       0
  4877 ;;      Totals:         0       0       0       0       0       0       0       0       0
  4878 ;;Total ram usage:        0 bytes
  4879 ;; Hardware stack levels used: 1
  4880 ;; Hardware stack levels required when called: 9
  4881 ;; This function calls:
  4882 ;;		Nothing
  4883 ;; This function is called by:
  4884 ;;		_SYSTEM_Initialize
  4885 ;; This function uses a non-reentrant model
  4886 ;;
  4887                           
  4888                           	psect	text48
  4889   0019E2                     __ptext48:
  4890                           	callstack 0
  4891   0019E2                     _PMD_Initialize:
  4892                           	callstack 20
  4893   0019E2                     
  4894                           ;mcc_generated_files/mcc.c: 85:     PMD0 = 0x00;
  4895   0019E2  0E00               	movlw	0
  4896   0019E4  0139               	movlb	57	; () banked
  4897   0019E6  6FC0               	movwf	192,b	;volatile
  4898                           
  4899                           ;mcc_generated_files/mcc.c: 87:     PMD1 = 0x00;
  4900   0019E8  0E00               	movlw	0
  4901   0019EA  6FC1               	movwf	193,b	;volatile
  4902                           
  4903                           ;mcc_generated_files/mcc.c: 89:     PMD2 = 0x00;
  4904   0019EC  0E00               	movlw	0
  4905   0019EE  6FC2               	movwf	194,b	;volatile
  4906                           
  4907                           ;mcc_generated_files/mcc.c: 91:     PMD3 = 0x00;
  4908   0019F0  0E00               	movlw	0
  4909   0019F2  6FC3               	movwf	195,b	;volatile
  4910                           
  4911                           ;mcc_generated_files/mcc.c: 93:     PMD4 = 0x00;
  4912   0019F4  0E00               	movlw	0
  4913   0019F6  6FC4               	movwf	196,b	;volatile
  4914                           
  4915                           ;mcc_generated_files/mcc.c: 95:     PMD5 = 0x00;
  4916   0019F8  0E00               	movlw	0
  4917   0019FA  6FC5               	movwf	197,b	;volatile
  4918                           
  4919                           ;mcc_generated_files/mcc.c: 97:     PMD6 = 0x00;
  4920   0019FC  0E00               	movlw	0
  4921   0019FE  6FC6               	movwf	198,b	;volatile
  4922                           
  4923                           ;mcc_generated_files/mcc.c: 99:     PMD7 = 0x00;
  4924   001A00  0E00               	movlw	0
  4925   001A02  6FC7               	movwf	199,b	;volatile
  4926   001A04                     
  4927                           ; BSR set to: 57
  4928   001A04  0012               	return		;funcret
  4929   001A06                     __end_of_PMD_Initialize:
  4930                           	callstack 0
  4931                           
  4932 ;; *************** function _PIN_MANAGER_Initialize *****************
  4933 ;; Defined at:
  4934 ;;		line 55 in file "mcc_generated_files/pin_manager.c"
  4935 ;; Parameters:    Size  Location     Type
  4936 ;;		None
  4937 ;; Auto vars:     Size  Location     Type
  4938 ;;		None
  4939 ;; Return value:  Size  Location     Type
  4940 ;;                  1    wreg      void 
  4941 ;; Registers used:
  4942 ;;		wreg, status,2
  4943 ;; Tracked objects:
  4944 ;;		On entry : 0/0
  4945 ;;		On exit  : 0/0
  4946 ;;		Unchanged: 0/0
  4947 ;; Data sizes:     COMRAM   BANK0   BANK1   BANK2   BANK3   BANK4   BANK5   BANK6   BANK7
  4948 ;;      Params:         0       0       0       0       0       0       0       0       0
  4949 ;;      Locals:         0       0       0       0       0       0       0       0       0
  4950 ;;      Temps:          0       0       0       0       0       0       0       0       0
  4951 ;;      Totals:         0       0       0       0       0       0       0       0       0
  4952 ;;Total ram usage:        0 bytes
  4953 ;; Hardware stack levels used: 1
  4954 ;; Hardware stack levels required when called: 9
  4955 ;; This function calls:
  4956 ;;		Nothing
  4957 ;; This function is called by:
  4958 ;;		_SYSTEM_Initialize
  4959 ;; This function uses a non-reentrant model
  4960 ;;
  4961                           
  4962                           	psect	text49
  4963   0011E0                     __ptext49:
  4964                           	callstack 0
  4965   0011E0                     _PIN_MANAGER_Initialize:
  4966                           	callstack 20
  4967   0011E0                     
  4968                           ;mcc_generated_files/pin_manager.c: 60:     LATA = 0x00;
  4969   0011E0  0E00               	movlw	0
  4970   0011E2  6EBA               	movwf	186,c	;volatile
  4971                           
  4972                           ;mcc_generated_files/pin_manager.c: 61:     LATB = 0x00;
  4973   0011E4  0E00               	movlw	0
  4974   0011E6  6EBB               	movwf	187,c	;volatile
  4975                           
  4976                           ;mcc_generated_files/pin_manager.c: 62:     LATC = 0x00;
  4977   0011E8  0E00               	movlw	0
  4978   0011EA  6EBC               	movwf	188,c	;volatile
  4979                           
  4980                           ;mcc_generated_files/pin_manager.c: 67:     TRISA = 0xE9;
  4981   0011EC  0EE9               	movlw	233
  4982   0011EE  6EC2               	movwf	194,c	;volatile
  4983                           
  4984                           ;mcc_generated_files/pin_manager.c: 68:     TRISB = 0xCC;
  4985   0011F0  0ECC               	movlw	204
  4986   0011F2  6EC3               	movwf	195,c	;volatile
  4987                           
  4988                           ;mcc_generated_files/pin_manager.c: 69:     TRISC = 0x1D;
  4989   0011F4  0E1D               	movlw	29
  4990   0011F6  6EC4               	movwf	196,c	;volatile
  4991                           
  4992                           ;mcc_generated_files/pin_manager.c: 74:     ANSELC = 0xFA;
  4993   0011F8  0EFA               	movlw	250
  4994   0011FA  013A               	movlb	58	; () banked
  4995   0011FC  6F60               	movwf	96,b	;volatile
  4996                           
  4997                           ;mcc_generated_files/pin_manager.c: 75:     ANSELB = 0xC3;
  4998   0011FE  0EC3               	movlw	195
  4999   001200  6F50               	movwf	80,b	;volatile
  5000                           
  5001                           ;mcc_generated_files/pin_manager.c: 76:     ANSELA = 0x17;
  5002   001202  0E17               	movlw	23
  5003   001204  6F40               	movwf	64,b	;volatile
  5004                           
  5005                           ;mcc_generated_files/pin_manager.c: 81:     WPUE = 0x00;
  5006   001206  0E00               	movlw	0
  5007   001208  6F81               	movwf	129,b	;volatile
  5008                           
  5009                           ;mcc_generated_files/pin_manager.c: 82:     WPUB = 0x00;
  5010   00120A  0E00               	movlw	0
  5011   00120C  6F51               	movwf	81,b	;volatile
  5012                           
  5013                           ;mcc_generated_files/pin_manager.c: 83:     WPUA = 0xE8;
  5014   00120E  0EE8               	movlw	232
  5015   001210  6F41               	movwf	65,b	;volatile
  5016                           
  5017                           ;mcc_generated_files/pin_manager.c: 84:     WPUC = 0x04;
  5018   001212  0E04               	movlw	4
  5019   001214  6F61               	movwf	97,b	;volatile
  5020                           
  5021                           ;mcc_generated_files/pin_manager.c: 89:     RB1I2C = 0x00;
  5022   001216  0E00               	movlw	0
  5023   001218  6F5A               	movwf	90,b	;volatile
  5024                           
  5025                           ;mcc_generated_files/pin_manager.c: 90:     RB2I2C = 0x00;
  5026   00121A  0E00               	movlw	0
  5027   00121C  6F5B               	movwf	91,b	;volatile
  5028                           
  5029                           ;mcc_generated_files/pin_manager.c: 91:     RC3I2C = 0x00;
  5030   00121E  0E00               	movlw	0
  5031   001220  6F6A               	movwf	106,b	;volatile
  5032                           
  5033                           ;mcc_generated_files/pin_manager.c: 92:     RC4I2C = 0x00;
  5034   001222  0E00               	movlw	0
  5035   001224  6F6B               	movwf	107,b	;volatile
  5036                           
  5037                           ;mcc_generated_files/pin_manager.c: 97:     ODCONA = 0x00;
  5038   001226  0E00               	movlw	0
  5039   001228  6F42               	movwf	66,b	;volatile
  5040                           
  5041                           ;mcc_generated_files/pin_manager.c: 98:     ODCONB = 0x02;
  5042   00122A  0E02               	movlw	2
  5043   00122C  6F52               	movwf	82,b	;volatile
  5044                           
  5045                           ;mcc_generated_files/pin_manager.c: 99:     ODCONC = 0x00;
  5046   00122E  0E00               	movlw	0
  5047   001230  6F62               	movwf	98,b	;volatile
  5048   001232                     
  5049                           ; BSR set to: 58
  5050                           ;mcc_generated_files/pin_manager.c: 104:     SLRCONA = 0xFF;
  5051   001232  6943               	setf	67,b	;volatile
  5052   001234                     
  5053                           ; BSR set to: 58
  5054                           ;mcc_generated_files/pin_manager.c: 105:     SLRCONB = 0xFF;
  5055   001234  6953               	setf	83,b	;volatile
  5056   001236                     
  5057                           ; BSR set to: 58
  5058                           ;mcc_generated_files/pin_manager.c: 106:     SLRCONC = 0xFF;
  5059   001236  6963               	setf	99,b	;volatile
  5060   001238                     
  5061                           ; BSR set to: 58
  5062                           ;mcc_generated_files/pin_manager.c: 111:     INLVLA = 0xFF;
  5063   001238  6944               	setf	68,b	;volatile
  5064   00123A                     
  5065                           ; BSR set to: 58
  5066                           ;mcc_generated_files/pin_manager.c: 112:     INLVLB = 0xFF;
  5067   00123A  6954               	setf	84,b	;volatile
  5068   00123C                     
  5069                           ; BSR set to: 58
  5070                           ;mcc_generated_files/pin_manager.c: 113:     INLVLC = 0xFF;
  5071   00123C  6964               	setf	100,b	;volatile
  5072                           
  5073                           ;mcc_generated_files/pin_manager.c: 114:     INLVLE = 0x08;
  5074   00123E  0E08               	movlw	8
  5075   001240  6F84               	movwf	132,b	;volatile
  5076                           
  5077                           ;mcc_generated_files/pin_manager.c: 123:     U2RXPPS = 0x10;
  5078   001242  0E10               	movlw	16
  5079   001244  6FE8               	movwf	232,b	;volatile
  5080                           
  5081                           ;mcc_generated_files/pin_manager.c: 124:     SPI1SCKPPS = 0x0D;
  5082   001246  0E0D               	movlw	13
  5083   001248  6FDE               	movwf	222,b	;volatile
  5084                           
  5085                           ;mcc_generated_files/pin_manager.c: 125:     RB1PPS = 0x13;
  5086   00124A  0E13               	movlw	19
  5087   00124C  6F09               	movwf	9,b	;volatile
  5088                           
  5089                           ;mcc_generated_files/pin_manager.c: 126:     RB5PPS = 0x1E;
  5090   00124E  0E1E               	movlw	30
  5091   001250  6F0D               	movwf	13,b	;volatile
  5092                           
  5093                           ;mcc_generated_files/pin_manager.c: 127:     RC1PPS = 0x16;
  5094   001252  0E16               	movlw	22
  5095   001254  6F11               	movwf	17,b	;volatile
  5096                           
  5097                           ;mcc_generated_files/pin_manager.c: 128:     RB4PPS = 0x1F;
  5098   001256  0E1F               	movlw	31
  5099   001258  6F0C               	movwf	12,b	;volatile
  5100                           
  5101                           ;mcc_generated_files/pin_manager.c: 129:     U1RXPPS = 0x0A;
  5102   00125A  0E0A               	movlw	10
  5103   00125C  6FE5               	movwf	229,b	;volatile
  5104                           
  5105                           ;mcc_generated_files/pin_manager.c: 130:     SPI1SDIPPS = 0x0B;
  5106   00125E  0E0B               	movlw	11
  5107   001260  6FDF               	movwf	223,b	;volatile
  5108   001262                     
  5109                           ; BSR set to: 58
  5110   001262  0012               	return		;funcret
  5111   001264                     __end_of_PIN_MANAGER_Initialize:
  5112                           	callstack 0
  5113                           
  5114 ;; *************** function _OSCILLATOR_Initialize *****************
  5115 ;; Defined at:
  5116 ;;		line 68 in file "mcc_generated_files/mcc.c"
  5117 ;; Parameters:    Size  Location     Type
  5118 ;;		None
  5119 ;; Auto vars:     Size  Location     Type
  5120 ;;		None
  5121 ;; Return value:  Size  Location     Type
  5122 ;;                  1    wreg      void 
  5123 ;; Registers used:
  5124 ;;		wreg, status,2
  5125 ;; Tracked objects:
  5126 ;;		On entry : 0/0
  5127 ;;		On exit  : 0/0
  5128 ;;		Unchanged: 0/0
  5129 ;; Data sizes:     COMRAM   BANK0   BANK1   BANK2   BANK3   BANK4   BANK5   BANK6   BANK7
  5130 ;;      Params:         0       0       0       0       0       0       0       0       0
  5131 ;;      Locals:         0       0       0       0       0       0       0       0       0
  5132 ;;      Temps:          0       0       0       0       0       0       0       0       0
  5133 ;;      Totals:         0       0       0       0       0       0       0       0       0
  5134 ;;Total ram usage:        0 bytes
  5135 ;; Hardware stack levels used: 1
  5136 ;; Hardware stack levels required when called: 9
  5137 ;; This function calls:
  5138 ;;		Nothing
  5139 ;; This function is called by:
  5140 ;;		_SYSTEM_Initialize
  5141 ;; This function uses a non-reentrant model
  5142 ;;
  5143                           
  5144                           	psect	text50
  5145   001A88                     __ptext50:
  5146                           	callstack 0
  5147   001A88                     _OSCILLATOR_Initialize:
  5148                           	callstack 20
  5149   001A88                     
  5150                           ;mcc_generated_files/mcc.c: 71:     OSCCON1 = 0x60;
  5151   001A88  0E60               	movlw	96
  5152   001A8A  0139               	movlb	57	; () banked
  5153   001A8C  6FD9               	movwf	217,b	;volatile
  5154                           
  5155                           ;mcc_generated_files/mcc.c: 73:     OSCCON3 = 0x00;
  5156   001A8E  0E00               	movlw	0
  5157   001A90  6FDB               	movwf	219,b	;volatile
  5158                           
  5159                           ;mcc_generated_files/mcc.c: 75:     OSCEN = 0x00;
  5160   001A92  0E00               	movlw	0
  5161   001A94  6FDD               	movwf	221,b	;volatile
  5162                           
  5163                           ;mcc_generated_files/mcc.c: 77:     OSCFRQ = 0x04;
  5164   001A96  0E04               	movlw	4
  5165   001A98  6FDF               	movwf	223,b	;volatile
  5166                           
  5167                           ;mcc_generated_files/mcc.c: 79:     OSCTUNE = 0x00;
  5168   001A9A  0E00               	movlw	0
  5169   001A9C  6FDE               	movwf	222,b	;volatile
  5170   001A9E                     
  5171                           ; BSR set to: 57
  5172   001A9E  0012               	return		;funcret
  5173   001AA0                     __end_of_OSCILLATOR_Initialize:
  5174                           	callstack 0
  5175                           
  5176 ;; *************** function _INTERRUPT_Initialize *****************
  5177 ;; Defined at:
  5178 ;;		line 52 in file "mcc_generated_files/interrupt_manager.c"
  5179 ;; Parameters:    Size  Location     Type
  5180 ;;		None
  5181 ;; Auto vars:     Size  Location     Type
  5182 ;;		None
  5183 ;; Return value:  Size  Location     Type
  5184 ;;                  1    wreg      void 
  5185 ;; Registers used:
  5186 ;;		None
  5187 ;; Tracked objects:
  5188 ;;		On entry : 0/0
  5189 ;;		On exit  : 0/0
  5190 ;;		Unchanged: 0/0
  5191 ;; Data sizes:     COMRAM   BANK0   BANK1   BANK2   BANK3   BANK4   BANK5   BANK6   BANK7
  5192 ;;      Params:         0       0       0       0       0       0       0       0       0
  5193 ;;      Locals:         0       0       0       0       0       0       0       0       0
  5194 ;;      Temps:          0       0       0       0       0       0       0       0       0
  5195 ;;      Totals:         0       0       0       0       0       0       0       0       0
  5196 ;;Total ram usage:        0 bytes
  5197 ;; Hardware stack levels used: 1
  5198 ;; Hardware stack levels required when called: 9
  5199 ;; This function calls:
  5200 ;;		Nothing
  5201 ;; This function is called by:
  5202 ;;		_SYSTEM_Initialize
  5203 ;; This function uses a non-reentrant model
  5204 ;;
  5205                           
  5206                           	psect	text51
  5207   001C34                     __ptext51:
  5208                           	callstack 0
  5209   001C34                     _INTERRUPT_Initialize:
  5210                           	callstack 20
  5211   001C34                     
  5212                           ;mcc_generated_files/interrupt_manager.c: 55:     INTCON0bits.IPEN = 0;
  5213   001C34  9AD2               	bcf	210,5,c	;volatile
  5214   001C36  0012               	return		;funcret
  5215   001C38                     __end_of_INTERRUPT_Initialize:
  5216                           	callstack 0
  5217                           
  5218 ;; *************** function _DAC1_Initialize *****************
  5219 ;; Defined at:
  5220 ;;		line 58 in file "mcc_generated_files/dac1.c"
  5221 ;; Parameters:    Size  Location     Type
  5222 ;;		None
  5223 ;; Auto vars:     Size  Location     Type
  5224 ;;		None
  5225 ;; Return value:  Size  Location     Type
  5226 ;;                  1    wreg      void 
  5227 ;; Registers used:
  5228 ;;		wreg, status,2
  5229 ;; Tracked objects:
  5230 ;;		On entry : 0/0
  5231 ;;		On exit  : 0/0
  5232 ;;		Unchanged: 0/0
  5233 ;; Data sizes:     COMRAM   BANK0   BANK1   BANK2   BANK3   BANK4   BANK5   BANK6   BANK7
  5234 ;;      Params:         0       0       0       0       0       0       0       0       0
  5235 ;;      Locals:         0       0       0       0       0       0       0       0       0
  5236 ;;      Temps:          0       0       0       0       0       0       0       0       0
  5237 ;;      Totals:         0       0       0       0       0       0       0       0       0
  5238 ;;Total ram usage:        0 bytes
  5239 ;; Hardware stack levels used: 1
  5240 ;; Hardware stack levels required when called: 9
  5241 ;; This function calls:
  5242 ;;		Nothing
  5243 ;; This function is called by:
  5244 ;;		_SYSTEM_Initialize
  5245 ;; This function uses a non-reentrant model
  5246 ;;
  5247                           
  5248                           	psect	text52
  5249   001BBC                     __ptext52:
  5250                           	callstack 0
  5251   001BBC                     _DAC1_Initialize:
  5252                           	callstack 20
  5253   001BBC                     
  5254                           ;mcc_generated_files/dac1.c: 61:     DAC1CON0 = 0x80;
  5255   001BBC  0E80               	movlw	128
  5256   001BBE  013E               	movlb	62	; () banked
  5257   001BC0  6F9E               	movwf	158,b	;volatile
  5258                           
  5259                           ;mcc_generated_files/dac1.c: 63:     DAC1CON1 = 0x1A;
  5260   001BC2  0E1A               	movlw	26
  5261   001BC4  6F9C               	movwf	156,b	;volatile
  5262   001BC6                     
  5263                           ; BSR set to: 62
  5264   001BC6  0012               	return		;funcret
  5265   001BC8                     __end_of_DAC1_Initialize:
  5266                           	callstack 0
  5267                           
  5268 ;; *************** function _CMP1_Initialize *****************
  5269 ;; Defined at:
  5270 ;;		line 58 in file "mcc_generated_files/cmp1.c"
  5271 ;; Parameters:    Size  Location     Type
  5272 ;;		None
  5273 ;; Auto vars:     Size  Location     Type
  5274 ;;		None
  5275 ;; Return value:  Size  Location     Type
  5276 ;;                  1    wreg      void 
  5277 ;; Registers used:
  5278 ;;		wreg, status,2
  5279 ;; Tracked objects:
  5280 ;;		On entry : 0/0
  5281 ;;		On exit  : 0/0
  5282 ;;		Unchanged: 0/0
  5283 ;; Data sizes:     COMRAM   BANK0   BANK1   BANK2   BANK3   BANK4   BANK5   BANK6   BANK7
  5284 ;;      Params:         0       0       0       0       0       0       0       0       0
  5285 ;;      Locals:         0       0       0       0       0       0       0       0       0
  5286 ;;      Temps:          0       0       0       0       0       0       0       0       0
  5287 ;;      Totals:         0       0       0       0       0       0       0       0       0
  5288 ;;Total ram usage:        0 bytes
  5289 ;; Hardware stack levels used: 1
  5290 ;; Hardware stack levels required when called: 9
  5291 ;; This function calls:
  5292 ;;		Nothing
  5293 ;; This function is called by:
  5294 ;;		_SYSTEM_Initialize
  5295 ;; This function uses a non-reentrant model
  5296 ;;
  5297                           
  5298                           	psect	text53
  5299   001AE2                     __ptext53:
  5300                           	callstack 0
  5301   001AE2                     _CMP1_Initialize:
  5302                           	callstack 20
  5303   001AE2                     
  5304                           ;mcc_generated_files/cmp1.c: 62:     CM1CON0 = 0x80;
  5305   001AE2  0E80               	movlw	128
  5306   001AE4  013E               	movlb	62	; () banked
  5307   001AE6  6FBC               	movwf	188,b	;volatile
  5308                           
  5309                           ;mcc_generated_files/cmp1.c: 65:     CM1CON1 = 0x00;
  5310   001AE8  0E00               	movlw	0
  5311   001AEA  6FBD               	movwf	189,b	;volatile
  5312                           
  5313                           ;mcc_generated_files/cmp1.c: 68:     CM1NCH = 0x00;
  5314   001AEC  0E00               	movlw	0
  5315   001AEE  6FBE               	movwf	190,b	;volatile
  5316                           
  5317                           ;mcc_generated_files/cmp1.c: 71:     CM1PCH = 0x05;
  5318   001AF0  0E05               	movlw	5
  5319   001AF2  6FBF               	movwf	191,b	;volatile
  5320   001AF4                     
  5321                           ; BSR set to: 62
  5322   001AF4  0012               	return		;funcret
  5323   001AF6                     __end_of_CMP1_Initialize:
  5324                           	callstack 0
  5325                           
  5326 ;; *************** function _CMP1_GetOutputStatus *****************
  5327 ;; Defined at:
  5328 ;;		line 75 in file "mcc_generated_files/cmp1.c"
  5329 ;; Parameters:    Size  Location     Type
  5330 ;;		None
  5331 ;; Auto vars:     Size  Location     Type
  5332 ;;		None
  5333 ;; Return value:  Size  Location     Type
  5334 ;;                  1    wreg      _Bool 
  5335 ;; Registers used:
  5336 ;;		wreg
  5337 ;; Tracked objects:
  5338 ;;		On entry : 0/0
  5339 ;;		On exit  : 0/0
  5340 ;;		Unchanged: 0/0
  5341 ;; Data sizes:     COMRAM   BANK0   BANK1   BANK2   BANK3   BANK4   BANK5   BANK6   BANK7
  5342 ;;      Params:         0       0       0       0       0       0       0       0       0
  5343 ;;      Locals:         0       0       0       0       0       0       0       0       0
  5344 ;;      Temps:          0       0       0       0       0       0       0       0       0
  5345 ;;      Totals:         0       0       0       0       0       0       0       0       0
  5346 ;;Total ram usage:        0 bytes
  5347 ;; Hardware stack levels used: 1
  5348 ;; Hardware stack levels required when called: 9
  5349 ;; This function calls:
  5350 ;;		Nothing
  5351 ;; This function is called by:
  5352 ;;		_main
  5353 ;; This function uses a non-reentrant model
  5354 ;;
  5355                           
  5356                           	psect	text54
  5357   001AB6                     __ptext54:
  5358                           	callstack 0
  5359   001AB6                     _CMP1_GetOutputStatus:
  5360                           	callstack 21
  5361   001AB6                     
  5362                           ;mcc_generated_files/cmp1.c: 77:  return (CM1CON0bits.C1OUT);
  5363   001AB6  013E               	movlb	62	; () banked
  5364   001AB8  BDBC               	btfsc	188,6,b	;volatile
  5365   001ABA  EF61  F00D         	goto	u731
  5366   001ABE  EF64  F00D         	goto	u730
  5367   001AC2                     u731:
  5368   001AC2  0E01               	movlw	1
  5369   001AC4  EF65  F00D         	goto	u736
  5370   001AC8                     u730:
  5371   001AC8  0E00               	movlw	0
  5372   001ACA                     u736:
  5373   001ACA                     
  5374                           ; BSR set to: 62
  5375   001ACA  0012               	return		;funcret
  5376   001ACC                     __end_of_CMP1_GetOutputStatus:
  5377                           	callstack 0
  5378                           
  5379 ;; *************** function _INTERRUPT_InterruptManager *****************
  5380 ;; Defined at:
  5381 ;;		line 58 in file "mcc_generated_files/interrupt_manager.c"
  5382 ;; Parameters:    Size  Location     Type
  5383 ;;		None
  5384 ;; Auto vars:     Size  Location     Type
  5385 ;;		None
  5386 ;; Return value:  Size  Location     Type
  5387 ;;                  1    wreg      void 
  5388 ;; Registers used:
  5389 ;;		wreg, fsr2l, fsr2h, status,2, status,0, pcl, pclath, pclatu, tosl, cstack
  5390 ;; Tracked objects:
  5391 ;;		On entry : 0/0
  5392 ;;		On exit  : 0/0
  5393 ;;		Unchanged: 0/0
  5394 ;; Data sizes:     COMRAM   BANK0   BANK1   BANK2   BANK3   BANK4   BANK5   BANK6   BANK7
  5395 ;;      Params:         0       0       0       0       0       0       0       0       0
  5396 ;;      Locals:         0       0       0       0       0       0       0       0       0
  5397 ;;      Temps:          2       0       0       0       0       0       0       0       0
  5398 ;;      Totals:         2       0       0       0       0       0       0       0       0
  5399 ;;Total ram usage:        2 bytes
  5400 ;; Hardware stack levels used: 1
  5401 ;; Hardware stack levels required when called: 8
  5402 ;; This function calls:
  5403 ;;		_TMR2_ISR
  5404 ;; This function is called by:
  5405 ;;		Interrupt level 2
  5406 ;; This function uses a non-reentrant model
  5407 ;;
  5408                           
  5409                           	psect	text55
  5410   0016B6                     __ptext55:
  5411                           	callstack 0
  5412   0016B6                     _INTERRUPT_InterruptManager:
  5413                           	callstack 17
  5414                           
  5415                           ; BSR set to: 62
  5416                           ;incstack = 0
  5417   0016B6  006F FFE8  F035    	movff	pclath,??_INTERRUPT_InterruptManager
  5418   0016BC  006F FFEC  F036    	movff	pclatu,??_INTERRUPT_InterruptManager+1
  5419   0016C2                     
  5420                           ;mcc_generated_files/interrupt_manager.c: 61:     if(PIE4bits.TMR2IE == 1 && PIR4bits.TM
      +                          R2IF == 1)
  5421   0016C2  0139               	movlb	57	; () banked
  5422   0016C4  A594               	btfss	148,2,b	;volatile
  5423   0016C6  EF67  F00B         	goto	i2u214_41
  5424   0016CA  EF69  F00B         	goto	i2u214_40
  5425   0016CE                     i2u214_41:
  5426   0016CE  EF72  F00B         	goto	i2l791
  5427   0016D2                     i2u214_40:
  5428   0016D2                     
  5429                           ; BSR set to: 57
  5430   0016D2  A5A4               	btfss	164,2,b	;volatile
  5431   0016D4  EF6E  F00B         	goto	i2u215_41
  5432   0016D8  EF70  F00B         	goto	i2u215_40
  5433   0016DC                     i2u215_41:
  5434   0016DC  EF72  F00B         	goto	i2l791
  5435   0016E0                     i2u215_40:
  5436   0016E0                     
  5437                           ; BSR set to: 57
  5438                           ;mcc_generated_files/interrupt_manager.c: 62:     {;mcc_generated_files/interrupt_manage
      +                          r.c: 63:         TMR2_ISR();
  5439   0016E0  ECE7  F00B         	call	_TMR2_ISR	;wreg free
  5440   0016E4                     i2l791:
  5441   0016E4  0060  F0DB  FFFB   	movff	??_INTERRUPT_InterruptManager+1,pclatu
  5442   0016EA  0060  F0D7  FFFA   	movff	??_INTERRUPT_InterruptManager,pclath
  5443   0016F0  0011               	retfie		f
  5444   0016F2                     __end_of_INTERRUPT_InterruptManager:
  5445                           	callstack 0
  5446                           
  5447 ;; *************** function _TMR2_ISR *****************
  5448 ;; Defined at:
  5449 ;;		line 165 in file "mcc_generated_files/tmr2.c"
  5450 ;; Parameters:    Size  Location     Type
  5451 ;;		None
  5452 ;; Auto vars:     Size  Location     Type
  5453 ;;		None
  5454 ;; Return value:  Size  Location     Type
  5455 ;;                  1    wreg      void 
  5456 ;; Registers used:
  5457 ;;		wreg, fsr2l, fsr2h, status,2, status,0, pcl, pclath, pclatu, tosl, cstack
  5458 ;; Tracked objects:
  5459 ;;		On entry : 0/0
  5460 ;;		On exit  : 0/0
  5461 ;;		Unchanged: 0/0
  5462 ;; Data sizes:     COMRAM   BANK0   BANK1   BANK2   BANK3   BANK4   BANK5   BANK6   BANK7
  5463 ;;      Params:         0       0       0       0       0       0       0       0       0
  5464 ;;      Locals:         0       0       0       0       0       0       0       0       0
  5465 ;;      Temps:          0       0       0       0       0       0       0       0       0
  5466 ;;      Totals:         0       0       0       0       0       0       0       0       0
  5467 ;;Total ram usage:        0 bytes
  5468 ;; Hardware stack levels used: 1
  5469 ;; Hardware stack levels required when called: 7
  5470 ;; This function calls:
  5471 ;;		Absolute function
  5472 ;;		_InterruptTMR2
  5473 ;;		_TMR2_DefaultInterruptHandler
  5474 ;; This function is called by:
  5475 ;;		_INTERRUPT_InterruptManager
  5476 ;; This function uses a non-reentrant model
  5477 ;;
  5478                           
  5479                           	psect	text56
  5480   0017CE                     __ptext56:
  5481                           	callstack 0
  5482   0017CE                     _TMR2_ISR:
  5483                           	callstack 17
  5484   0017CE                     
  5485                           ;mcc_generated_files/tmr2.c: 169:     PIR4bits.TMR2IF = 0;
  5486   0017CE  0139               	movlb	57	; () banked
  5487   0017D0  95A4               	bcf	164,2,b	;volatile
  5488   0017D2                     
  5489                           ; BSR set to: 57
  5490                           ;mcc_generated_files/tmr2.c: 171:     if(TMR2_InterruptHandler)
  5491   0017D2  5005               	movf	_TMR2_InterruptHandler^0,w,c
  5492   0017D4  1006               	iorwf	(_TMR2_InterruptHandler+1)^0,w,c
  5493   0017D6  B4D8               	btfsc	status,2,c
  5494   0017D8  EFF0  F00B         	goto	i2u199_41
  5495   0017DC  EFF2  F00B         	goto	i2u199_40
  5496   0017E0                     i2u199_41:
  5497   0017E0  EFFF  F00B         	goto	i2l767
  5498   0017E4                     i2u199_40:
  5499   0017E4                     
  5500                           ; BSR set to: 57
  5501                           ;mcc_generated_files/tmr2.c: 172:     {;mcc_generated_files/tmr2.c: 173:         TMR2_In
      +                          terruptHandler();
  5502   0017E4  D802               	call	i2u200_48
  5503   0017E6  EFFF  F00B         	goto	i2u200_49
  5504   0017EA                     i2u200_48:
  5505   0017EA  0005               	push	
  5506   0017EC  6EFA               	movwf	pclath,c
  5507   0017EE  5005               	movf	_TMR2_InterruptHandler^0,w,c
  5508   0017F0  6EFD               	movwf	tosl,c
  5509   0017F2  5006               	movf	(_TMR2_InterruptHandler+1)^0,w,c
  5510   0017F4  6EFE               	movwf	tosh,c
  5511   0017F6  50F8               	movf	tblptru,w,c
  5512   0017F8  6EFF               	movwf	tosu,c
  5513   0017FA  50FA               	movf	pclath,w,c
  5514   0017FC  0012               	return		;indir
  5515   0017FE                     i2u200_49:
  5516   0017FE                     i2l767:
  5517   0017FE  0012               	return		;funcret
  5518   001800                     __end_of_TMR2_ISR:
  5519                           	callstack 0
  5520                           
  5521 ;; *************** function _InterruptTMR2 *****************
  5522 ;; Defined at:
  5523 ;;		line 159 in file "mdb.c"
  5524 ;; Parameters:    Size  Location     Type
  5525 ;;		None
  5526 ;; Auto vars:     Size  Location     Type
  5527 ;;		None
  5528 ;; Return value:  Size  Location     Type
  5529 ;;                  1    wreg      void 
  5530 ;; Registers used:
  5531 ;;		wreg, fsr2l, fsr2h, status,2, status,0, pcl, pclath, pclatu, tosl, cstack
  5532 ;; Tracked objects:
  5533 ;;		On entry : 0/0
  5534 ;;		On exit  : 0/0
  5535 ;;		Unchanged: 0/0
  5536 ;; Data sizes:     COMRAM   BANK0   BANK1   BANK2   BANK3   BANK4   BANK5   BANK6   BANK7
  5537 ;;      Params:         0       0       0       0       0       0       0       0       0
  5538 ;;      Locals:         0       0       0       0       0       0       0       0       0
  5539 ;;      Temps:          0       0       0       0       0       0       0       0       0
  5540 ;;      Totals:         0       0       0       0       0       0       0       0       0
  5541 ;;Total ram usage:        0 bytes
  5542 ;; Hardware stack levels used: 1
  5543 ;; Hardware stack levels required when called: 6
  5544 ;; This function calls:
  5545 ;;		_poll_mdb
  5546 ;;		i2_TMR2_Initialize
  5547 ;; This function is called by:
  5548 ;;		_main
  5549 ;;		_TMR2_ISR
  5550 ;; This function uses a non-reentrant model
  5551 ;;
  5552                           
  5553                           	psect	text57
  5554   001B70                     __ptext57:
  5555                           	callstack 0
  5556   001B70                     _InterruptTMR2:
  5557                           	callstack 17
  5558   001B70                     
  5559                           ;mdb.c: 161:     PIE4bits.TMR2IE = 0;
  5560   001B70  0139               	movlb	57	; () banked
  5561   001B72  9594               	bcf	148,2,b	;volatile
  5562   001B74                     
  5563                           ; BSR set to: 57
  5564                           ;mdb.c: 162:     poll_mdb();
  5565   001B74  EC68  F008         	call	_poll_mdb	;wreg free
  5566   001B78                     
  5567                           ;mdb.c: 163:     TMR2_Initialize();
  5568   001B78  EC9D  F00C         	call	i2_TMR2_Initialize	;wreg free
  5569   001B7C  0012               	return		;funcret
  5570   001B7E                     __end_of_InterruptTMR2:
  5571                           	callstack 0
  5572                           
  5573 ;; *************** function _TMR2_DefaultInterruptHandler *****************
  5574 ;; Defined at:
  5575 ;;		line 182 in file "mcc_generated_files/tmr2.c"
  5576 ;; Parameters:    Size  Location     Type
  5577 ;;		None
  5578 ;; Auto vars:     Size  Location     Type
  5579 ;;		None
  5580 ;; Return value:  Size  Location     Type
  5581 ;;                  1    wreg      void 
  5582 ;; Registers used:
  5583 ;;		None
  5584 ;; Tracked objects:
  5585 ;;		On entry : 0/0
  5586 ;;		On exit  : 0/0
  5587 ;;		Unchanged: 0/0
  5588 ;; Data sizes:     COMRAM   BANK0   BANK1   BANK2   BANK3   BANK4   BANK5   BANK6   BANK7
  5589 ;;      Params:         0       0       0       0       0       0       0       0       0
  5590 ;;      Locals:         0       0       0       0       0       0       0       0       0
  5591 ;;      Temps:          0       0       0       0       0       0       0       0       0
  5592 ;;      Totals:         0       0       0       0       0       0       0       0       0
  5593 ;;Total ram usage:        0 bytes
  5594 ;; Hardware stack levels used: 1
  5595 ;; This function calls:
  5596 ;;		Nothing
  5597 ;; This function is called by:
  5598 ;;		_TMR2_Initialize
  5599 ;;		i2_TMR2_Initialize
  5600 ;;		_TMR2_ISR
  5601 ;; This function uses a non-reentrant model
  5602 ;;
  5603                           
  5604                           	psect	text58
  5605   001C38                     __ptext58:
  5606                           	callstack 0
  5607   001C38                     _TMR2_DefaultInterruptHandler:
  5608                           	callstack 23
  5609   001C38  0012               	return		;funcret
  5610   001C3A                     __end_of_TMR2_DefaultInterruptHandler:
  5611                           	callstack 0
  5612                           
  5613 ;; *************** function i2_TMR2_Initialize *****************
  5614 ;; Defined at:
  5615 ;;		line 64 in file "mcc_generated_files/tmr2.c"
  5616 ;; Parameters:    Size  Location     Type
  5617 ;;		None
  5618 ;; Auto vars:     Size  Location     Type
  5619 ;;		None
  5620 ;; Return value:  Size  Location     Type
  5621 ;;                  1    wreg      void 
  5622 ;; Registers used:
  5623 ;;		wreg, status,2, status,0, cstack
  5624 ;; Tracked objects:
  5625 ;;		On entry : 0/0
  5626 ;;		On exit  : 0/0
  5627 ;;		Unchanged: 0/0
  5628 ;; Data sizes:     COMRAM   BANK0   BANK1   BANK2   BANK3   BANK4   BANK5   BANK6   BANK7
  5629 ;;      Params:         0       0       0       0       0       0       0       0       0
  5630 ;;      Locals:         0       0       0       0       0       0       0       0       0
  5631 ;;      Temps:          0       0       0       0       0       0       0       0       0
  5632 ;;      Totals:         0       0       0       0       0       0       0       0       0
  5633 ;;Total ram usage:        0 bytes
  5634 ;; Hardware stack levels used: 1
  5635 ;; Hardware stack levels required when called: 1
  5636 ;; This function calls:
  5637 ;;		i2_TMR2_SetInterruptHandler
  5638 ;; This function is called by:
  5639 ;;		_InterruptTMR2
  5640 ;; This function uses a non-reentrant model
  5641 ;;
  5642                           
  5643                           	psect	text59
  5644   00193A                     __ptext59:
  5645                           	callstack 0
  5646   00193A                     i2_TMR2_Initialize:
  5647                           	callstack 21
  5648   00193A                     
  5649                           ;mcc_generated_files/tmr2.c: 69:     T2CLKCON = 0x04;
  5650   00193A  0E04               	movlw	4
  5651   00193C  6EAE               	movwf	174,c	;volatile
  5652                           
  5653                           ;mcc_generated_files/tmr2.c: 72:     T2HLT = 0x20;
  5654   00193E  0E20               	movlw	32
  5655   001940  6EAD               	movwf	173,c	;volatile
  5656                           
  5657                           ;mcc_generated_files/tmr2.c: 75:     T2RST = 0x00;
  5658   001942  0E00               	movlw	0
  5659   001944  6EAF               	movwf	175,c	;volatile
  5660                           
  5661                           ;mcc_generated_files/tmr2.c: 78:     T2PR = 0x90;
  5662   001946  0E90               	movlw	144
  5663   001948  6EAB               	movwf	171,c	;volatile
  5664                           
  5665                           ;mcc_generated_files/tmr2.c: 81:     T2TMR = 0x00;
  5666   00194A  0E00               	movlw	0
  5667   00194C  6EAA               	movwf	170,c	;volatile
  5668   00194E                     
  5669                           ;mcc_generated_files/tmr2.c: 84:     PIR4bits.TMR2IF = 0;
  5670   00194E  0139               	movlb	57	; () banked
  5671   001950  95A4               	bcf	164,2,b	;volatile
  5672   001952                     
  5673                           ; BSR set to: 57
  5674                           ;mcc_generated_files/tmr2.c: 87:     PIE4bits.TMR2IE = 1;
  5675   001952  8594               	bsf	148,2,b	;volatile
  5676   001954                     
  5677                           ; BSR set to: 57
  5678                           ;mcc_generated_files/tmr2.c: 90:     TMR2_SetInterruptHandler(TMR2_DefaultInterruptHandl
      +                          er);
  5679   001954  0E38               	movlw	low _TMR2_DefaultInterruptHandler
  5680   001956  6E2A               	movwf	i2TMR2_SetInterruptHandler@InterruptHandler^0,c
  5681   001958  0E1C               	movlw	high _TMR2_DefaultInterruptHandler
  5682   00195A  6E2B               	movwf	(i2TMR2_SetInterruptHandler@InterruptHandler+1)^0,c
  5683   00195C  EC0C  F00E         	call	i2_TMR2_SetInterruptHandler	;wreg free
  5684   001960                     
  5685                           ;mcc_generated_files/tmr2.c: 93:     T2CON = 0xD0;
  5686   001960  0ED0               	movlw	208
  5687   001962  6EAC               	movwf	172,c	;volatile
  5688   001964  0012               	return		;funcret
  5689   001966                     __end_ofi2_TMR2_Initialize:
  5690                           	callstack 0
  5691                           
  5692 ;; *************** function i2_TMR2_SetInterruptHandler *****************
  5693 ;; Defined at:
  5694 ;;		line 178 in file "mcc_generated_files/tmr2.c"
  5695 ;; Parameters:    Size  Location     Type
  5696 ;;  InterruptHan    2    0[COMRAM] PTR FTN()void 
  5697 ;;		 -> InterruptTMR2(1), TMR2_DefaultInterruptHandler(1), 
  5698 ;; Auto vars:     Size  Location     Type
  5699 ;;		None
  5700 ;; Return value:  Size  Location     Type
  5701 ;;                  1    wreg      void 
  5702 ;; Registers used:
  5703 ;;		wreg, status,2, status,0
  5704 ;; Tracked objects:
  5705 ;;		On entry : 0/0
  5706 ;;		On exit  : 0/0
  5707 ;;		Unchanged: 0/0
  5708 ;; Data sizes:     COMRAM   BANK0   BANK1   BANK2   BANK3   BANK4   BANK5   BANK6   BANK7
  5709 ;;      Params:         2       0       0       0       0       0       0       0       0
  5710 ;;      Locals:         0       0       0       0       0       0       0       0       0
  5711 ;;      Temps:          0       0       0       0       0       0       0       0       0
  5712 ;;      Totals:         2       0       0       0       0       0       0       0       0
  5713 ;;Total ram usage:        2 bytes
  5714 ;; Hardware stack levels used: 1
  5715 ;; This function calls:
  5716 ;;		Nothing
  5717 ;; This function is called by:
  5718 ;;		i2_TMR2_Initialize
  5719 ;; This function uses a non-reentrant model
  5720 ;;
  5721                           
  5722                           	psect	text60
  5723   001C18                     __ptext60:
  5724                           	callstack 0
  5725   001C18                     i2_TMR2_SetInterruptHandler:
  5726                           	callstack 21
  5727   001C18                     
  5728                           ;mcc_generated_files/tmr2.c: 179:     TMR2_InterruptHandler = InterruptHandler;
  5729   001C18  C02A  F005         	movff	i2TMR2_SetInterruptHandler@InterruptHandler,_TMR2_InterruptHandler
  5730   001C1C  C02B  F006         	movff	i2TMR2_SetInterruptHandler@InterruptHandler+1,_TMR2_InterruptHandler+1
  5731   001C20  0012               	return		;funcret
  5732   001C22                     __end_ofi2_TMR2_SetInterruptHandler:
  5733                           	callstack 0
  5734                           
  5735 ;; *************** function _poll_mdb *****************
  5736 ;; Defined at:
  5737 ;;		line 166 in file "mdb.c"
  5738 ;; Parameters:    Size  Location     Type
  5739 ;;		None
  5740 ;; Auto vars:     Size  Location     Type
  5741 ;;		None
  5742 ;; Return value:  Size  Location     Type
  5743 ;;                  1    wreg      void 
  5744 ;; Registers used:
  5745 ;;		wreg, fsr2l, fsr2h, status,2, status,0, pcl, pclath, pclatu, tosl, cstack
  5746 ;; Tracked objects:
  5747 ;;		On entry : 0/0
  5748 ;;		On exit  : 0/0
  5749 ;;		Unchanged: 0/0
  5750 ;; Data sizes:     COMRAM   BANK0   BANK1   BANK2   BANK3   BANK4   BANK5   BANK6   BANK7
  5751 ;;      Params:         0       0       0       0       0       0       0       0       0
  5752 ;;      Locals:         0       0       0       0       0       0       0       0       0
  5753 ;;      Temps:          2       0       0       0       0       0       0       0       0
  5754 ;;      Totals:         2       0       0       0       0       0       0       0       0
  5755 ;;Total ram usage:        2 bytes
  5756 ;; Hardware stack levels used: 1
  5757 ;; Hardware stack levels required when called: 5
  5758 ;; This function calls:
  5759 ;;		_mdb_poll
  5760 ;;		i2_credit_add
  5761 ;;		i2_mdb_init
  5762 ;; This function is called by:
  5763 ;;		_InterruptTMR2
  5764 ;; This function uses a non-reentrant model
  5765 ;;
  5766                           
  5767                           	psect	text61
  5768   0010D0                     __ptext61:
  5769                           	callstack 0
  5770   0010D0                     _poll_mdb:
  5771                           	callstack 17
  5772   0010D0                     
  5773                           ;mdb.c: 168:     {;mdb.c: 169:         credit = mdb_poll();
  5774   0010D0  ECF4  F004         	call	_mdb_poll	;wreg free
  5775   0010D4  6E25               	movwf	_credit^0,c	;volatile
  5776   0010D6                     
  5777                           ;mdb.c: 170:         if(credit != 0x00)
  5778   0010D6  5025               	movf	_credit^0,w,c	;volatile
  5779   0010D8  B4D8               	btfsc	status,2,c
  5780   0010DA  EF71  F008         	goto	i2u189_41
  5781   0010DE  EF73  F008         	goto	i2u189_40
  5782   0010E2                     i2u189_41:
  5783   0010E2  EFAC  F008         	goto	i2l1356
  5784   0010E6                     i2u189_40:
  5785   0010E6                     
  5786                           ;mdb.c: 171:         {;mdb.c: 172:             if(mdbflags.noteerr == 1)
  5787   0010E6  A21D               	btfss	_mdbflags^0,1,c
  5788   0010E8  EF78  F008         	goto	i2u190_41
  5789   0010EC  EF7A  F008         	goto	i2u190_40
  5790   0010F0                     i2u190_41:
  5791   0010F0  EFA8  F008         	goto	i2l4050
  5792   0010F4                     i2u190_40:
  5793   0010F4  EF8B  F008         	goto	i2l4048
  5794   0010F8                     i2l4032:
  5795   0010F8  EC3C  F00B         	call	i2_mdb_init	;wreg free
  5796   0010FC                     i2l4034:
  5797                           
  5798                           ;mdb.c: 179:                     credit = 0;
  5799   0010FC  0E00               	movlw	0
  5800   0010FE  6E25               	movwf	_credit^0,c	;volatile
  5801                           
  5802                           ;mdb.c: 180:                     break;
  5803   001100  EFAC  F008         	goto	i2l1356
  5804   001104                     i2l1350:
  5805                           
  5806                           ;mdb.c: 183:                     if(mdbflags.vending)
  5807   001104  A81D               	btfss	_mdbflags^0,4,c
  5808   001106  EF87  F008         	goto	i2u191_41
  5809   00110A  EF89  F008         	goto	i2u191_40
  5810   00110E                     i2u191_41:
  5811   00110E  EF7C  F008         	goto	i2l4032
  5812   001112                     i2u191_40:
  5813   001112  EF7E  F008         	goto	i2l4034
  5814   001116                     i2l4048:
  5815   001116  5025               	movf	_credit^0,w,c	;volatile
  5816   001118  6E33               	movwf	??_poll_mdb^0,c
  5817   00111A  6A34               	clrf	(??_poll_mdb+1)^0,c
  5818                           
  5819                           ; Switch on 2 bytes has been partitioned into a top level switch of size 1, and 1 sub-sw
      +                          itches
  5820                           ; Switch size 1, requested type "simple"
  5821                           ; Number of cases is 1, Range of values is 0 to 0
  5822                           ; switch strategies available:
  5823                           ; Name         Instructions Cycles
  5824                           ; simple_byte            4     3 (average)
  5825                           ;	Chosen strategy is simple_byte
  5826   00111C  5034               	movf	(??_poll_mdb+1)^0,w,c
  5827   00111E  0A00               	xorlw	0	; case 0
  5828   001120  B4D8               	btfsc	status,2,c
  5829   001122  EF95  F008         	goto	i2l4476
  5830   001126  EFAC  F008         	goto	i2l1356
  5831   00112A                     i2l4476:
  5832                           
  5833                           ; Switch size 1, requested type "simple"
  5834                           ; Number of cases is 4, Range of values is 6 to 16
  5835                           ; switch strategies available:
  5836                           ; Name         Instructions Cycles
  5837                           ; simple_byte           13     7 (average)
  5838                           ;	Chosen strategy is simple_byte
  5839   00112A  5033               	movf	??_poll_mdb^0,w,c
  5840   00112C  0A06               	xorlw	6	; case 6
  5841   00112E  B4D8               	btfsc	status,2,c
  5842   001130  EF7C  F008         	goto	i2l4032
  5843   001134  0A0F               	xorlw	15	; case 9
  5844   001136  B4D8               	btfsc	status,2,c
  5845   001138  EF82  F008         	goto	i2l1350
  5846   00113C  0A05               	xorlw	5	; case 12
  5847   00113E  B4D8               	btfsc	status,2,c
  5848   001140  EF7E  F008         	goto	i2l4034
  5849   001144  0A1C               	xorlw	28	; case 16
  5850   001146  B4D8               	btfsc	status,2,c
  5851   001148  EF7E  F008         	goto	i2l4034
  5852   00114C  EFAC  F008         	goto	i2l1356
  5853   001150                     i2l4050:
  5854                           
  5855                           ;mdb.c: 202:                 {;mdb.c: 203:                     credit_add(credit);
  5856   001150  5025               	movf	_credit^0,w,c	;volatile
  5857   001152  EC2E  F00C         	call	i2_credit_add
  5858   001156                     
  5859                           ;mdb.c: 204:                     venflags.iscredit = 1;
  5860   001156  8001               	bsf	_venflags^0,0,c
  5861   001158                     i2l1356:
  5862   001158  0012               	return		;funcret
  5863   00115A                     __end_of_poll_mdb:
  5864                           	callstack 0
  5865                           
  5866 ;; *************** function i2_mdb_init *****************
  5867 ;; Defined at:
  5868 ;;		line 21 in file "mdb.c"
  5869 ;; Parameters:    Size  Location     Type
  5870 ;;		None
  5871 ;; Auto vars:     Size  Location     Type
  5872 ;;  i               1    0        unsigned char 
  5873 ;; Return value:  Size  Location     Type
  5874 ;;                  1    wreg      void 
  5875 ;; Registers used:
  5876 ;;		wreg, fsr2l, fsr2h, status,2, status,0, pcl, pclath, pclatu, tosl, cstack
  5877 ;; Tracked objects:
  5878 ;;		On entry : 0/0
  5879 ;;		On exit  : 0/0
  5880 ;;		Unchanged: 0/0
  5881 ;; Data sizes:     COMRAM   BANK0   BANK1   BANK2   BANK3   BANK4   BANK5   BANK6   BANK7
  5882 ;;      Params:         0       0       0       0       0       0       0       0       0
  5883 ;;      Locals:         0       0       0       0       0       0       0       0       0
  5884 ;;      Temps:          2       0       0       0       0       0       0       0       0
  5885 ;;      Totals:         2       0       0       0       0       0       0       0       0
  5886 ;;Total ram usage:        2 bytes
  5887 ;; Hardware stack levels used: 1
  5888 ;; Hardware stack levels required when called: 4
  5889 ;; This function calls:
  5890 ;;		i2_DATAEE_ReadByte
  5891 ;;		i2_mdb_comm
  5892 ;;		i2_mdb_noten
  5893 ;;		i2_mdb_reset
  5894 ;;		i2_mdb_security
  5895 ;; This function is called by:
  5896 ;;		_poll_mdb
  5897 ;; This function uses a non-reentrant model
  5898 ;;
  5899                           
  5900                           	psect	text62
  5901   001678                     __ptext62:
  5902                           	callstack 0
  5903   001678                     i2_mdb_init:
  5904                           	callstack 17
  5905   001678                     
  5906                           ;mdb.c: 23:     _delay((unsigned long)((250)*(12000000/4000.0)));
  5907   001678  0E04               	movlw	4
  5908   00167A  6E32               	movwf	(??i2_mdb_init+1)^0,c
  5909   00167C  0ECF               	movlw	207
  5910   00167E  6E31               	movwf	??i2_mdb_init^0,c
  5911   001680  0E02               	movlw	2
  5912   001682                     i2u241_47:
  5913   001682  2EE8               	decfsz	wreg,f,c
  5914   001684  D7FE               	bra	i2u241_47
  5915   001686  2E31               	decfsz	??i2_mdb_init^0,f,c
  5916   001688  D7FC               	bra	i2u241_47
  5917   00168A  2E32               	decfsz	(??i2_mdb_init+1)^0,f,c
  5918   00168C  D7FA               	bra	i2u241_47
  5919   00168E  0E18               	movlw	24
  5920   001690  EC2A  F00D         	call	i2_DATAEE_ReadByte
  5921   001694  6E1B               	movwf	_noteen_byte^0,c	;volatile
  5922   001696                     
  5923                           ;mdb.c: 25:     ((uint8_t*) &noteen)[0] = noteen_byte;
  5924   001696  C01B  F01C         	movff	_noteen_byte,_noteen	;volatile
  5925   00169A                     
  5926                           ;mdb.c: 27:     mdbflags.noteerr = 0;
  5927   00169A  921D               	bcf	_mdbflags^0,1,c
  5928   00169C                     
  5929                           ;mdb.c: 28:     mdbflags.isdata = 0;
  5930   00169C  901D               	bcf	_mdbflags^0,0,c
  5931   00169E                     
  5932                           ;mdb.c: 29:     mdb_reset();
  5933   00169E  EC3A  F00A         	call	i2_mdb_reset	;wreg free
  5934   0016A2                     
  5935                           ;mdb.c: 30:     mdb_noten();
  5936   0016A2  ECB3  F00C         	call	i2_mdb_noten	;wreg free
  5937   0016A6                     
  5938                           ;mdb.c: 31:     mdb_security();
  5939   0016A6  EC96  F00D         	call	i2_mdb_security	;wreg free
  5940   0016AA  0E00               	movlw	0
  5941   0016AC  6E2C               	movwf	i2mdb_comm@mcount^0,c
  5942   0016AE  0E33               	movlw	51
  5943   0016B0  EC6F  F006         	call	i2_mdb_comm
  5944   0016B4  0012               	return		;funcret
  5945   0016B6                     __end_ofi2_mdb_init:
  5946                           	callstack 0
  5947                           
  5948 ;; *************** function i2_mdb_security *****************
  5949 ;; Defined at:
  5950 ;;		line 153 in file "mdb.c"
  5951 ;; Parameters:    Size  Location     Type
  5952 ;;		None
  5953 ;; Auto vars:     Size  Location     Type
  5954 ;;		None
  5955 ;; Return value:  Size  Location     Type
  5956 ;;                  1    wreg      void 
  5957 ;; Registers used:
  5958 ;;		wreg, fsr2l, fsr2h, status,2, status,0, pcl, pclath, pclatu, tosl, cstack
  5959 ;; Tracked objects:
  5960 ;;		On entry : 0/0
  5961 ;;		On exit  : 0/0
  5962 ;;		Unchanged: 0/0
  5963 ;; Data sizes:     COMRAM   BANK0   BANK1   BANK2   BANK3   BANK4   BANK5   BANK6   BANK7
  5964 ;;      Params:         0       0       0       0       0       0       0       0       0
  5965 ;;      Locals:         0       0       0       0       0       0       0       0       0
  5966 ;;      Temps:          0       0       0       0       0       0       0       0       0
  5967 ;;      Totals:         0       0       0       0       0       0       0       0       0
  5968 ;;Total ram usage:        0 bytes
  5969 ;; Hardware stack levels used: 1
  5970 ;; Hardware stack levels required when called: 3
  5971 ;; This function calls:
  5972 ;;		i2_init_mdbdata
  5973 ;;		i2_mdb_comm
  5974 ;; This function is called by:
  5975 ;;		i2_mdb_init
  5976 ;; This function uses a non-reentrant model
  5977 ;;
  5978                           
  5979                           	psect	text63
  5980   001B2C                     __ptext63:
  5981                           	callstack 0
  5982   001B2C                     i2_mdb_security:
  5983                           	callstack 17
  5984   001B2C                     
  5985                           ;mdb.c: 155:     init_mdbdata(0x00);
  5986   001B2C  0E00               	movlw	0
  5987   001B2E  ECC9  F00C         	call	i2_init_mdbdata
  5988   001B32  0E01               	movlw	1
  5989   001B34  6E2C               	movwf	i2mdb_comm@mcount^0,c
  5990   001B36  0E32               	movlw	50
  5991   001B38  EC6F  F006         	call	i2_mdb_comm
  5992   001B3C  0012               	return		;funcret
  5993   001B3E                     __end_ofi2_mdb_security:
  5994                           	callstack 0
  5995                           
  5996 ;; *************** function i2_mdb_reset *****************
  5997 ;; Defined at:
  5998 ;;		line 36 in file "mdb.c"
  5999 ;; Parameters:    Size  Location     Type
  6000 ;;		None
  6001 ;; Auto vars:     Size  Location     Type
  6002 ;;  i               1    6[COMRAM] unsigned char 
  6003 ;;  i               1    0        unsigned char 
  6004 ;; Return value:  Size  Location     Type
  6005 ;;                  1    wreg      unsigned char 
  6006 ;; Registers used:
  6007 ;;		wreg, fsr2l, fsr2h, status,2, status,0, pcl, pclath, pclatu, tosl, cstack
  6008 ;; Tracked objects:
  6009 ;;		On entry : 0/0
  6010 ;;		On exit  : 0/0
  6011 ;;		Unchanged: 0/0
  6012 ;; Data sizes:     COMRAM   BANK0   BANK1   BANK2   BANK3   BANK4   BANK5   BANK6   BANK7
  6013 ;;      Params:         0       0       0       0       0       0       0       0       0
  6014 ;;      Locals:         1       0       0       0       0       0       0       0       0
  6015 ;;      Temps:          1       0       0       0       0       0       0       0       0
  6016 ;;      Totals:         2       0       0       0       0       0       0       0       0
  6017 ;;Total ram usage:        2 bytes
  6018 ;; Hardware stack levels used: 1
  6019 ;; Hardware stack levels required when called: 3
  6020 ;; This function calls:
  6021 ;;		i2_mdb_comm
  6022 ;; This function is called by:
  6023 ;;		i2_mdb_init
  6024 ;; This function uses a non-reentrant model
  6025 ;;
  6026                           
  6027                           	psect	text64
  6028   001474                     __ptext64:
  6029                           	callstack 0
  6030   001474                     i2_mdb_reset:
  6031                           	callstack 17
  6032   001474                     
  6033                           ;mdb.c: 41:     mdbflags.timeout = 1;
  6034   001474  861D               	bsf	_mdbflags^0,3,c
  6035                           
  6036                           ;mdb.c: 42:     while(mdbflags.timeout)
  6037   001476  EF42  F00A         	goto	i2l3712
  6038   00147A                     i2l3710:
  6039   00147A  0E00               	movlw	0
  6040   00147C  6E2C               	movwf	i2mdb_comm@mcount^0,c
  6041   00147E  0E30               	movlw	48
  6042   001480  EC6F  F006         	call	i2_mdb_comm
  6043   001484                     i2l3712:
  6044                           
  6045                           ;mdb.c: 42:     while(mdbflags.timeout)
  6046   001484  B61D               	btfsc	_mdbflags^0,3,c
  6047   001486  EF47  F00A         	goto	i2u162_41
  6048   00148A  EF49  F00A         	goto	i2u162_40
  6049   00148E                     i2u162_41:
  6050   00148E  EF3D  F00A         	goto	i2l3710
  6051   001492                     i2u162_40:
  6052   001492  F000               	nop		;# 
  6053   001494  0E00               	movlw	0
  6054   001496  6E2C               	movwf	i2mdb_comm@mcount^0,c
  6055   001498  0E33               	movlw	51
  6056   00149A  EC6F  F006         	call	i2_mdb_comm
  6057   00149E  6E30               	movwf	i2mdb_reset@i_2642^0,c
  6058   0014A0  0630               	decf	i2mdb_reset@i_2642^0,f,c
  6059   0014A2  0E60               	movlw	low _mdbdata
  6060   0014A4  2430               	addwf	i2mdb_reset@i_2642^0,w,c
  6061   0014A6  6ED9               	movwf	fsr2l,c
  6062   0014A8  6ADA               	clrf	fsr2h,c
  6063   0014AA  0E00               	movlw	high _mdbdata
  6064   0014AC  22DA               	addwfc	fsr2h,f,c
  6065   0014AE  0E06               	movlw	6
  6066   0014B0  18DE               	xorwf	postinc2,w,c
  6067   0014B2  A4D8               	btfss	status,2,c
  6068   0014B4  EF5E  F00A         	goto	i2u163_41
  6069   0014B8  EF60  F00A         	goto	i2u163_40
  6070   0014BC                     i2u163_41:
  6071   0014BC  EF65  F00A         	goto	i2l1327
  6072   0014C0                     i2u163_40:
  6073   0014C0  0E00               	movlw	0
  6074   0014C2  6E2C               	movwf	i2mdb_comm@mcount^0,c
  6075   0014C4  0E33               	movlw	51
  6076   0014C6  EC6F  F006         	call	i2_mdb_comm
  6077   0014CA                     i2l1327:
  6078   0014CA  0012               	return		;funcret
  6079   0014CC                     __end_ofi2_mdb_reset:
  6080                           	callstack 0
  6081                           
  6082 ;; *************** function i2_mdb_noten *****************
  6083 ;; Defined at:
  6084 ;;		line 137 in file "mdb.c"
  6085 ;; Parameters:    Size  Location     Type
  6086 ;;		None
  6087 ;; Auto vars:     Size  Location     Type
  6088 ;;		None
  6089 ;; Return value:  Size  Location     Type
  6090 ;;                  1    wreg      void 
  6091 ;; Registers used:
  6092 ;;		wreg, fsr2l, fsr2h, status,2, status,0, pcl, pclath, pclatu, tosl, cstack
  6093 ;; Tracked objects:
  6094 ;;		On entry : 0/0
  6095 ;;		On exit  : 0/0
  6096 ;;		Unchanged: 0/0
  6097 ;; Data sizes:     COMRAM   BANK0   BANK1   BANK2   BANK3   BANK4   BANK5   BANK6   BANK7
  6098 ;;      Params:         0       0       0       0       0       0       0       0       0
  6099 ;;      Locals:         0       0       0       0       0       0       0       0       0
  6100 ;;      Temps:          0       0       0       0       0       0       0       0       0
  6101 ;;      Totals:         0       0       0       0       0       0       0       0       0
  6102 ;;Total ram usage:        0 bytes
  6103 ;; Hardware stack levels used: 1
  6104 ;; Hardware stack levels required when called: 3
  6105 ;; This function calls:
  6106 ;;		i2_init_mdbdata
  6107 ;;		i2_mdb_comm
  6108 ;; This function is called by:
  6109 ;;		i2_mdb_init
  6110 ;; This function uses a non-reentrant model
  6111 ;;
  6112                           
  6113                           	psect	text65
  6114   001966                     __ptext65:
  6115                           	callstack 0
  6116   001966                     i2_mdb_noten:
  6117                           	callstack 17
  6118   001966                     
  6119                           ;mdb.c: 140:     init_mdbdata(0x00);
  6120   001966  0E00               	movlw	0
  6121   001968  ECC9  F00C         	call	i2_init_mdbdata
  6122   00196C                     
  6123                           ;mdb.c: 142:     mcount = 3;
  6124   00196C  0E03               	movlw	3
  6125   00196E  6E20               	movwf	_mcount^0,c
  6126   001970                     
  6127                           ;mdb.c: 144:     mdbdata[0] = 0x00;
  6128   001970  0E00               	movlw	0
  6129   001972  0100               	movlb	0	; () banked
  6130   001974  6F60               	movwf	_mdbdata& (0+255),b
  6131   001976                     
  6132                           ; BSR set to: 0
  6133                           ;mdb.c: 145:     mdbdata[1] = 0x00;
  6134   001976  0E00               	movlw	0
  6135   001978  6F61               	movwf	(_mdbdata+1)& (0+255),b
  6136   00197A                     
  6137                           ; BSR set to: 0
  6138                           ;mdb.c: 147:     mdbdata[2] = noteen_byte;
  6139   00197A  C01B  F062         	movff	_noteen_byte,_mdbdata+2	;volatile
  6140   00197E                     
  6141                           ; BSR set to: 0
  6142                           ;mdb.c: 149:     mdbdata[3] = 0x00;
  6143   00197E  0E00               	movlw	0
  6144   001980  6F63               	movwf	(_mdbdata+3)& (0+255),b
  6145   001982                     
  6146                           ; BSR set to: 0
  6147   001982  C020  F02C         	movff	_mcount,i2mdb_comm@mcount
  6148   001986  0E34               	movlw	52
  6149   001988  EC6F  F006         	call	i2_mdb_comm
  6150   00198C  6E20               	movwf	_mcount^0,c
  6151   00198E                     
  6152                           ;mdb.c: 151:     mdbflags.vending = 0;
  6153   00198E  981D               	bcf	_mdbflags^0,4,c
  6154   001990  0012               	return		;funcret
  6155   001992                     __end_ofi2_mdb_noten:
  6156                           	callstack 0
  6157                           
  6158 ;; *************** function i2_credit_add *****************
  6159 ;; Defined at:
  6160 ;;		line 56 in file "vend.c"
  6161 ;; Parameters:    Size  Location     Type
  6162 ;;  credit          1    wreg     unsigned char 
  6163 ;; Auto vars:     Size  Location     Type
  6164 ;;  credit          1    3[COMRAM] unsigned char 
  6165 ;; Return value:  Size  Location     Type
  6166 ;;                  1    wreg      void 
  6167 ;; Registers used:
  6168 ;;		wreg, status,2, status,0, cstack
  6169 ;; Tracked objects:
  6170 ;;		On entry : 0/0
  6171 ;;		On exit  : 0/0
  6172 ;;		Unchanged: 0/0
  6173 ;; Data sizes:     COMRAM   BANK0   BANK1   BANK2   BANK3   BANK4   BANK5   BANK6   BANK7
  6174 ;;      Params:         0       0       0       0       0       0       0       0       0
  6175 ;;      Locals:         1       0       0       0       0       0       0       0       0
  6176 ;;      Temps:          0       0       0       0       0       0       0       0       0
  6177 ;;      Totals:         1       0       0       0       0       0       0       0       0
  6178 ;;Total ram usage:        1 bytes
  6179 ;; Hardware stack levels used: 1
  6180 ;; Hardware stack levels required when called: 1
  6181 ;; This function calls:
  6182 ;;		i2_DATAEE_ReadByte
  6183 ;;		i2_DATAEE_WriteByte
  6184 ;; This function is called by:
  6185 ;;		_poll_mdb
  6186 ;; This function uses a non-reentrant model
  6187 ;;
  6188                           
  6189                           	psect	text66
  6190   00185C                     __ptext66:
  6191                           	callstack 0
  6192   00185C                     i2_credit_add:
  6193                           	callstack 20
  6194                           
  6195                           ;incstack = 0
  6196                           ;i2credit_add@credit stored from wreg
  6197   00185C  6E2D               	movwf	i2credit_add@credit^0,c
  6198   00185E  0E00               	movlw	0
  6199   001860  EC2A  F00D         	call	i2_DATAEE_ReadByte
  6200   001864  6E24               	movwf	_cash^0,c	;volatile
  6201   001866                     
  6202                           ;vend.c: 59:     cash = cash + credit;
  6203   001866  5024               	movf	_cash^0,w,c	;volatile
  6204   001868  242D               	addwf	i2credit_add@credit^0,w,c
  6205   00186A  6E24               	movwf	_cash^0,c	;volatile
  6206   00186C  C024  F02A         	movff	_cash,i2DATAEE_WriteByte@bData	;volatile
  6207   001870  0E00               	movlw	0
  6208   001872  ECD9  F00A         	call	i2_DATAEE_WriteByte
  6209   001876                     
  6210                           ;vend.c: 61:     if(cash != 0)
  6211   001876  5024               	movf	_cash^0,w,c	;volatile
  6212   001878  B4D8               	btfsc	status,2,c
  6213   00187A  EF41  F00C         	goto	i2u174_41
  6214   00187E  EF43  F00C         	goto	i2u174_40
  6215   001882                     i2u174_41:
  6216   001882  EF44  F00C         	goto	i2l1096
  6217   001886                     i2u174_40:
  6218   001886                     
  6219                           ;vend.c: 62:     {;vend.c: 63:         venflags.iscredit = 1;
  6220   001886  8001               	bsf	_venflags^0,0,c
  6221   001888                     i2l1096:
  6222   001888  0012               	return		;funcret
  6223   00188A                     __end_ofi2_credit_add:
  6224                           	callstack 0
  6225                           
  6226 ;; *************** function i2_DATAEE_WriteByte *****************
  6227 ;; Defined at:
  6228 ;;		line 165 in file "mcc_generated_files/memory.c"
  6229 ;; Parameters:    Size  Location     Type
  6230 ;;  bAdd            1    wreg     unsigned char 
  6231 ;;  bData           1    0[COMRAM] unsigned char 
  6232 ;; Auto vars:     Size  Location     Type
  6233 ;;  bAdd            1    1[COMRAM] unsigned char 
  6234 ;;  GIEBitValue     1    2[COMRAM] unsigned char 
  6235 ;; Return value:  Size  Location     Type
  6236 ;;                  1    wreg      void 
  6237 ;; Registers used:
  6238 ;;		wreg, status,2
  6239 ;; Tracked objects:
  6240 ;;		On entry : 0/0
  6241 ;;		On exit  : 0/0
  6242 ;;		Unchanged: 0/0
  6243 ;; Data sizes:     COMRAM   BANK0   BANK1   BANK2   BANK3   BANK4   BANK5   BANK6   BANK7
  6244 ;;      Params:         1       0       0       0       0       0       0       0       0
  6245 ;;      Locals:         2       0       0       0       0       0       0       0       0
  6246 ;;      Temps:          0       0       0       0       0       0       0       0       0
  6247 ;;      Totals:         3       0       0       0       0       0       0       0       0
  6248 ;;Total ram usage:        3 bytes
  6249 ;; Hardware stack levels used: 1
  6250 ;; This function calls:
  6251 ;;		Nothing
  6252 ;; This function is called by:
  6253 ;;		i2_credit_add
  6254 ;; This function uses a non-reentrant model
  6255 ;;
  6256                           
  6257                           	psect	text67
  6258   0015B2                     __ptext67:
  6259                           	callstack 0
  6260   0015B2                     i2_DATAEE_WriteByte:
  6261                           	callstack 20
  6262                           
  6263                           ;incstack = 0
  6264                           ;i2DATAEE_WriteByte@bAdd stored from wreg
  6265   0015B2  6E2B               	movwf	i2DATAEE_WriteByte@bAdd^0,c
  6266   0015B4                     
  6267                           ;mcc_generated_files/memory.c: 165: void DATAEE_WriteByte(uint8_t bAdd, uint8_t bData);m
      +                          cc_generated_files/memory.c: 166: {;mcc_generated_files/memory.c: 167:     uint8_t GIEBi
      +                          tValue = INTCON0bits.GIE;
  6268   0015B4  0E00               	movlw	0
  6269   0015B6  BED2               	btfsc	210,7,c	;volatile
  6270   0015B8  0E01               	movlw	1
  6271   0015BA  6E2C               	movwf	i2DATAEE_WriteByte@GIEBitValue^0,c
  6272   0015BC                     
  6273                           ;mcc_generated_files/memory.c: 169:     NVMADRL = (uint8_t)(bAdd & 0xFF);
  6274   0015BC  0060  F0AF  F9E0   	movff	i2DATAEE_WriteByte@bAdd,14816	;volatile
  6275   0015C2                     
  6276                           ;mcc_generated_files/memory.c: 170:     NVMDAT = bData;
  6277   0015C2  0060  F0AB  F9E3   	movff	i2DATAEE_WriteByte@bData,14819	;volatile
  6278   0015C8                     
  6279                           ;mcc_generated_files/memory.c: 171:     NVMCON1bits.NVMREG = 0;
  6280   0015C8  0E3F               	movlw	-193
  6281   0015CA  0139               	movlb	57	; () banked
  6282   0015CC  17E5               	andwf	229,f,b	;volsfr
  6283   0015CE                     
  6284                           ; BSR set to: 57
  6285                           ;mcc_generated_files/memory.c: 172:     NVMCON1bits.WREN = 1;
  6286   0015CE  85E5               	bsf	229,2,b	;volsfr
  6287   0015D0                     
  6288                           ; BSR set to: 57
  6289                           ;mcc_generated_files/memory.c: 173:     INTCON0bits.GIE = 0;
  6290   0015D0  9ED2               	bcf	210,7,c	;volatile
  6291   0015D2                     
  6292                           ; BSR set to: 57
  6293                           ;mcc_generated_files/memory.c: 174:     NVMCON2 = 0x55;
  6294   0015D2  0E55               	movlw	85
  6295   0015D4  6FE6               	movwf	230,b	;volsfr
  6296   0015D6                     
  6297                           ; BSR set to: 57
  6298                           ;mcc_generated_files/memory.c: 175:     NVMCON2 = 0xAA;
  6299   0015D6  0EAA               	movlw	170
  6300   0015D8  6FE6               	movwf	230,b	;volsfr
  6301   0015DA                     
  6302                           ; BSR set to: 57
  6303                           ;mcc_generated_files/memory.c: 176:     NVMCON1bits.WR = 1;
  6304   0015DA  83E5               	bsf	229,1,b	;volsfr
  6305   0015DC                     i2l156:
  6306                           
  6307                           ; BSR set to: 57
  6308                           ;mcc_generated_files/memory.c: 178:     while (NVMCON1bits.WR)
  6309   0015DC  B3E5               	btfsc	229,1,b	;volsfr
  6310   0015DE  EFF3  F00A         	goto	i2u160_41
  6311   0015E2  EFF5  F00A         	goto	i2u160_40
  6312   0015E6                     i2u160_41:
  6313   0015E6  EFEE  F00A         	goto	i2l156
  6314   0015EA                     i2u160_40:
  6315   0015EA                     
  6316                           ; BSR set to: 57
  6317                           ;mcc_generated_files/memory.c: 182:     NVMCON1bits.WREN = 0;
  6318   0015EA  95E5               	bcf	229,2,b	;volsfr
  6319                           
  6320                           ;mcc_generated_files/memory.c: 183:     INTCON0bits.GIE = GIEBitValue;
  6321   0015EC  B02C               	btfsc	i2DATAEE_WriteByte@GIEBitValue^0,0,c
  6322   0015EE  D002               	bra	i2u161_45
  6323   0015F0  9ED2               	bcf	210,7,c	;volatile
  6324   0015F2  D001               	bra	i2u161_46
  6325   0015F4                     i2u161_45:
  6326   0015F4  8ED2               	bsf	210,7,c	;volatile
  6327   0015F6                     i2u161_46:
  6328   0015F6  0012               	return		;funcret
  6329   0015F8                     __end_ofi2_DATAEE_WriteByte:
  6330                           	callstack 0
  6331                           
  6332 ;; *************** function i2_DATAEE_ReadByte *****************
  6333 ;; Defined at:
  6334 ;;		line 186 in file "mcc_generated_files/memory.c"
  6335 ;; Parameters:    Size  Location     Type
  6336 ;;  bAdd            1    wreg     unsigned char 
  6337 ;; Auto vars:     Size  Location     Type
  6338 ;;  bAdd            1    0[COMRAM] unsigned char 
  6339 ;; Return value:  Size  Location     Type
  6340 ;;                  1    wreg      unsigned char 
  6341 ;; Registers used:
  6342 ;;		wreg, status,2
  6343 ;; Tracked objects:
  6344 ;;		On entry : 0/0
  6345 ;;		On exit  : 0/0
  6346 ;;		Unchanged: 0/0
  6347 ;; Data sizes:     COMRAM   BANK0   BANK1   BANK2   BANK3   BANK4   BANK5   BANK6   BANK7
  6348 ;;      Params:         0       0       0       0       0       0       0       0       0
  6349 ;;      Locals:         1       0       0       0       0       0       0       0       0
  6350 ;;      Temps:          0       0       0       0       0       0       0       0       0
  6351 ;;      Totals:         1       0       0       0       0       0       0       0       0
  6352 ;;Total ram usage:        1 bytes
  6353 ;; Hardware stack levels used: 1
  6354 ;; This function calls:
  6355 ;;		Nothing
  6356 ;; This function is called by:
  6357 ;;		i2_credit_add
  6358 ;;		i2_mdb_init
  6359 ;; This function uses a non-reentrant model
  6360 ;;
  6361                           
  6362                           	psect	text68
  6363   001A54                     __ptext68:
  6364                           	callstack 0
  6365   001A54                     i2_DATAEE_ReadByte:
  6366                           	callstack 20
  6367                           
  6368                           ;incstack = 0
  6369                           ;i2DATAEE_ReadByte@bAdd stored from wreg
  6370   001A54  6E2A               	movwf	i2DATAEE_ReadByte@bAdd^0,c
  6371   001A56                     
  6372                           ;mcc_generated_files/memory.c: 186: uint8_t DATAEE_ReadByte(uint8_t bAdd);mcc_generated_
      +                          files/memory.c: 187: {;mcc_generated_files/memory.c: 188:     NVMADRL = (uint8_t)(bAdd &
      +                           0xFF);
  6373   001A56  0060  F0AB  F9E0   	movff	i2DATAEE_ReadByte@bAdd,14816	;volatile
  6374   001A5C                     
  6375                           ;mcc_generated_files/memory.c: 189:     NVMCON1bits.NVMREG = 0;
  6376   001A5C  0E3F               	movlw	-193
  6377   001A5E  0139               	movlb	57	; () banked
  6378   001A60  17E5               	andwf	229,f,b	;volsfr
  6379   001A62                     
  6380                           ; BSR set to: 57
  6381                           ;mcc_generated_files/memory.c: 190:     NVMCON1bits.RD = 1;
  6382   001A62  81E5               	bsf	229,0,b	;volsfr
  6383   001A64                     
  6384                           ; BSR set to: 57
  6385                           ;mcc_generated_files/memory.c: 191:     __nop();
  6386   001A64  F000               	nop	
  6387   001A66                     
  6388                           ;mcc_generated_files/memory.c: 192:     __nop();
  6389   001A66  F000               	nop	
  6390   001A68                     
  6391                           ;mcc_generated_files/memory.c: 194:     return (NVMDAT);
  6392   001A68  0139               	movlb	57	; () banked
  6393   001A6A  51E3               	movf	227,w,b	;volatile
  6394   001A6C                     
  6395                           ; BSR set to: 57
  6396   001A6C  0012               	return		;funcret
  6397   001A6E                     __end_ofi2_DATAEE_ReadByte:
  6398                           	callstack 0
  6399                           
  6400 ;; *************** function _mdb_poll *****************
  6401 ;; Defined at:
  6402 ;;		line 211 in file "mdb.c"
  6403 ;; Parameters:    Size  Location     Type
  6404 ;;		None
  6405 ;; Auto vars:     Size  Location     Type
  6406 ;;  i               1    0        unsigned char 
  6407 ;; Return value:  Size  Location     Type
  6408 ;;                  1    wreg      unsigned char 
  6409 ;; Registers used:
  6410 ;;		wreg, fsr2l, fsr2h, status,2, status,0, pcl, pclath, pclatu, tosl, cstack
  6411 ;; Tracked objects:
  6412 ;;		On entry : 0/0
  6413 ;;		On exit  : 0/0
  6414 ;;		Unchanged: 0/0
  6415 ;; Data sizes:     COMRAM   BANK0   BANK1   BANK2   BANK3   BANK4   BANK5   BANK6   BANK7
  6416 ;;      Params:         0       0       0       0       0       0       0       0       0
  6417 ;;      Locals:         0       0       0       0       0       0       0       0       0
  6418 ;;      Temps:          2       0       0       0       0       0       0       0       0
  6419 ;;      Totals:         2       0       0       0       0       0       0       0       0
  6420 ;;Total ram usage:        2 bytes
  6421 ;; Hardware stack levels used: 1
  6422 ;; Hardware stack levels required when called: 3
  6423 ;; This function calls:
  6424 ;;		i2_mdb_comm
  6425 ;; This function is called by:
  6426 ;;		_poll_mdb
  6427 ;; This function uses a non-reentrant model
  6428 ;;
  6429                           
  6430                           	psect	text69
  6431   0009E8                     __ptext69:
  6432                           	callstack 0
  6433   0009E8                     _mdb_poll:
  6434                           	callstack 18
  6435   0009E8  0E00               	movlw	0
  6436   0009EA  6E2C               	movwf	i2mdb_comm@mcount^0,c
  6437   0009EC  0E33               	movlw	51
  6438   0009EE  EC6F  F006         	call	i2_mdb_comm
  6439   0009F2                     
  6440                           ;mdb.c: 217:     notebyte = mdbdata[0];
  6441   0009F2  C060  F01F         	movff	_mdbdata,_notebyte
  6442   0009F6                     
  6443                           ;mdb.c: 219:     if((mdbdata[0] & 0x80) != 0)
  6444   0009F6  0100               	movlb	0	; () banked
  6445   0009F8  AF60               	btfss	_mdbdata& (0+255),7,b
  6446   0009FA  EF01  F005         	goto	i2u172_41
  6447   0009FE  EF03  F005         	goto	i2u172_40
  6448   000A02                     i2u172_41:
  6449   000A02  EF83  F005         	goto	i2l3856
  6450   000A06                     i2u172_40:
  6451   000A06                     
  6452                           ; BSR set to: 0
  6453                           ;mdb.c: 220:     {;mdb.c: 221:         notebyte = mdbdata[0] & 0x7F;
  6454   000A06  5160               	movf	_mdbdata& (0+255),w,b
  6455   000A08  0B7F               	andlw	127
  6456   000A0A  6E1F               	movwf	_notebyte^0,c
  6457                           
  6458                           ;mdb.c: 222:         switch(notebyte)
  6459   000A0C  EF27  F005         	goto	i2l3820
  6460   000A10                     i2l3792:
  6461                           
  6462                           ; BSR set to: 0
  6463   000A10  0E0A               	movlw	10
  6464   000A12  6E25               	movwf	_credit^0,c	;volatile
  6465                           
  6466                           ;mdb.c: 225:             return credit;
  6467   000A14  5025               	movf	_credit^0,w,c	;volatile
  6468   000A16  EFC6  F005         	goto	i2l1362
  6469   000A1A                     i2l3796:
  6470                           
  6471                           ; BSR set to: 0
  6472   000A1A  0E14               	movlw	20
  6473   000A1C  6E25               	movwf	_credit^0,c	;volatile
  6474                           
  6475                           ;mdb.c: 227:             return credit;
  6476   000A1E  5025               	movf	_credit^0,w,c	;volatile
  6477   000A20  EFC6  F005         	goto	i2l1362
  6478   000A24                     i2l3800:
  6479                           
  6480                           ; BSR set to: 0
  6481   000A24  0E32               	movlw	50
  6482   000A26  6E25               	movwf	_credit^0,c	;volatile
  6483                           
  6484                           ;mdb.c: 229:             return credit;
  6485   000A28  5025               	movf	_credit^0,w,c	;volatile
  6486   000A2A  EFC6  F005         	goto	i2l1362
  6487   000A2E                     i2l3804:
  6488                           
  6489                           ; BSR set to: 0
  6490   000A2E  0E64               	movlw	100
  6491   000A30  6E25               	movwf	_credit^0,c	;volatile
  6492                           
  6493                           ;mdb.c: 231:             return credit;
  6494   000A32  5025               	movf	_credit^0,w,c	;volatile
  6495   000A34  EFC6  F005         	goto	i2l1362
  6496   000A38                     i2l3808:
  6497                           
  6498                           ; BSR set to: 0
  6499   000A38  0EC8               	movlw	200
  6500   000A3A  6E25               	movwf	_credit^0,c	;volatile
  6501                           
  6502                           ;mdb.c: 233:             return credit;
  6503   000A3C  5025               	movf	_credit^0,w,c	;volatile
  6504   000A3E  EFC6  F005         	goto	i2l1362
  6505   000A42                     i2l3812:
  6506                           
  6507                           ; BSR set to: 0
  6508   000A42  0E10               	movlw	16
  6509   000A44  6E25               	movwf	_credit^0,c	;volatile
  6510   000A46                     
  6511                           ; BSR set to: 0
  6512                           ;mdb.c: 235:             mdbflags.noteerr = 1;
  6513   000A46  821D               	bsf	_mdbflags^0,1,c
  6514                           
  6515                           ;mdb.c: 236:             return credit;
  6516   000A48  5025               	movf	_credit^0,w,c	;volatile
  6517   000A4A  EFC6  F005         	goto	i2l1362
  6518   000A4E                     i2l3820:
  6519                           
  6520                           ; BSR set to: 0
  6521   000A4E  501F               	movf	_notebyte^0,w,c
  6522   000A50  6E2F               	movwf	??_mdb_poll^0,c
  6523   000A52  6A30               	clrf	(??_mdb_poll+1)^0,c
  6524                           
  6525                           ; Switch on 2 bytes has been partitioned into a top level switch of size 1, and 1 sub-sw
      +                          itches
  6526                           ; Switch size 1, requested type "simple"
  6527                           ; Number of cases is 1, Range of values is 0 to 0
  6528                           ; switch strategies available:
  6529                           ; Name         Instructions Cycles
  6530                           ; simple_byte            4     3 (average)
  6531                           ;	Chosen strategy is simple_byte
  6532   000A54  5030               	movf	(??_mdb_poll+1)^0,w,c
  6533   000A56  0A00               	xorlw	0	; case 0
  6534   000A58  B4D8               	btfsc	status,2,c
  6535   000A5A  EF31  F005         	goto	i2l4478
  6536   000A5E  EF21  F005         	goto	i2l3812
  6537   000A62                     i2l4478:
  6538                           
  6539                           ; BSR set to: 0
  6540                           ; Switch size 1, requested type "simple"
  6541                           ; Number of cases is 5, Range of values is 0 to 4
  6542                           ; switch strategies available:
  6543                           ; Name         Instructions Cycles
  6544                           ; simple_byte           16     9 (average)
  6545                           ;	Chosen strategy is simple_byte
  6546   000A62  502F               	movf	??_mdb_poll^0,w,c
  6547   000A64  0A00               	xorlw	0	; case 0
  6548   000A66  B4D8               	btfsc	status,2,c
  6549   000A68  EF08  F005         	goto	i2l3792
  6550   000A6C  0A01               	xorlw	1	; case 1
  6551   000A6E  B4D8               	btfsc	status,2,c
  6552   000A70  EF0D  F005         	goto	i2l3796
  6553   000A74  0A03               	xorlw	3	; case 2
  6554   000A76  B4D8               	btfsc	status,2,c
  6555   000A78  EF12  F005         	goto	i2l3800
  6556   000A7C  0A01               	xorlw	1	; case 3
  6557   000A7E  B4D8               	btfsc	status,2,c
  6558   000A80  EF17  F005         	goto	i2l3804
  6559   000A84  0A07               	xorlw	7	; case 4
  6560   000A86  B4D8               	btfsc	status,2,c
  6561   000A88  EF1C  F005         	goto	i2l3808
  6562   000A8C  EF21  F005         	goto	i2l3812
  6563   000A90                     i2l3822:
  6564                           
  6565                           ; BSR set to: 0
  6566   000A90  0E00               	movlw	0
  6567   000A92  6E25               	movwf	_credit^0,c	;volatile
  6568                           
  6569                           ;mdb.c: 245:             return credit;
  6570   000A94  5025               	movf	_credit^0,w,c	;volatile
  6571   000A96  EFC6  F005         	goto	i2l1362
  6572   000A9A                     i2l3826:
  6573                           
  6574                           ; BSR set to: 0
  6575   000A9A  0E01               	movlw	1
  6576   000A9C  6E25               	movwf	_credit^0,c	;volatile
  6577                           
  6578                           ;mdb.c: 248:             break;
  6579   000A9E  EFC4  F005         	goto	i2l1373
  6580   000AA2                     i2l3828:
  6581                           
  6582                           ; BSR set to: 0
  6583   000AA2  0E02               	movlw	2
  6584   000AA4  6E25               	movwf	_credit^0,c	;volatile
  6585                           
  6586                           ;mdb.c: 251:             break;
  6587   000AA6  EFC4  F005         	goto	i2l1373
  6588   000AAA                     i2l3830:
  6589                           
  6590                           ; BSR set to: 0
  6591   000AAA  0E00               	movlw	0
  6592   000AAC  6E25               	movwf	_credit^0,c	;volatile
  6593   000AAE                     
  6594                           ; BSR set to: 0
  6595                           ;mdb.c: 254:             mdbflags.noteerr = 0;
  6596   000AAE  921D               	bcf	_mdbflags^0,1,c
  6597                           
  6598                           ;mdb.c: 255:             return credit;
  6599   000AB0  5025               	movf	_credit^0,w,c	;volatile
  6600   000AB2  EFC6  F005         	goto	i2l1362
  6601   000AB6                     i2l3836:
  6602                           
  6603                           ; BSR set to: 0
  6604   000AB6  0E04               	movlw	4
  6605   000AB8  6E25               	movwf	_credit^0,c	;volatile
  6606                           
  6607                           ;mdb.c: 258:             break;
  6608   000ABA  EFC4  F005         	goto	i2l1373
  6609   000ABE                     i2l3838:
  6610                           
  6611                           ; BSR set to: 0
  6612   000ABE  0E05               	movlw	5
  6613   000AC0  6E25               	movwf	_credit^0,c	;volatile
  6614                           
  6615                           ;mdb.c: 261:             break;
  6616   000AC2  EFC4  F005         	goto	i2l1373
  6617   000AC6                     i2l3840:
  6618                           
  6619                           ; BSR set to: 0
  6620   000AC6  0E06               	movlw	6
  6621   000AC8  6E25               	movwf	_credit^0,c	;volatile
  6622                           
  6623                           ;mdb.c: 264:             break;
  6624   000ACA  EFC4  F005         	goto	i2l1373
  6625   000ACE                     i2l3842:
  6626                           
  6627                           ; BSR set to: 0
  6628   000ACE  0E07               	movlw	7
  6629   000AD0  6E25               	movwf	_credit^0,c	;volatile
  6630                           
  6631                           ;mdb.c: 267:             break;
  6632   000AD2  EFC4  F005         	goto	i2l1373
  6633   000AD6                     i2l3844:
  6634                           
  6635                           ; BSR set to: 0
  6636   000AD6  0E08               	movlw	8
  6637   000AD8  6E25               	movwf	_credit^0,c	;volatile
  6638                           
  6639                           ;mdb.c: 270:             break;
  6640   000ADA  EFC4  F005         	goto	i2l1373
  6641   000ADE                     i2l3846:
  6642                           
  6643                           ; BSR set to: 0
  6644   000ADE  0E09               	movlw	9
  6645   000AE0  6E25               	movwf	_credit^0,c	;volatile
  6646                           
  6647                           ;mdb.c: 273:             break;
  6648   000AE2  EFC4  F005         	goto	i2l1373
  6649   000AE6                     i2l3848:
  6650                           
  6651                           ; BSR set to: 0
  6652   000AE6  0E0A               	movlw	10
  6653   000AE8  6E25               	movwf	_credit^0,c	;volatile
  6654                           
  6655                           ;mdb.c: 276:             break;
  6656   000AEA  EFC4  F005         	goto	i2l1373
  6657   000AEE                     i2l3850:
  6658                           
  6659                           ; BSR set to: 0
  6660   000AEE  0E0B               	movlw	11
  6661   000AF0  6E25               	movwf	_credit^0,c	;volatile
  6662                           
  6663                           ;mdb.c: 279:             break;
  6664   000AF2  EFC4  F005         	goto	i2l1373
  6665   000AF6                     i2l3852:
  6666                           
  6667                           ; BSR set to: 0
  6668   000AF6  0E0C               	movlw	12
  6669   000AF8  6E25               	movwf	_credit^0,c	;volatile
  6670                           
  6671                           ;mdb.c: 282:             break;
  6672   000AFA  EFC4  F005         	goto	i2l1373
  6673   000AFE                     i2l3854:
  6674                           
  6675                           ; BSR set to: 0
  6676   000AFE  0E00               	movlw	0
  6677   000B00  6E25               	movwf	_credit^0,c	;volatile
  6678                           
  6679                           ;mdb.c: 284:         }
  6680   000B02  EFC4  F005         	goto	i2l1373
  6681   000B06                     i2l3856:
  6682                           
  6683                           ; BSR set to: 0
  6684   000B06  5160               	movf	_mdbdata& (0+255),w,b
  6685   000B08  6E2F               	movwf	??_mdb_poll^0,c
  6686   000B0A  6A30               	clrf	(??_mdb_poll+1)^0,c
  6687                           
  6688                           ; Switch on 2 bytes has been partitioned into a top level switch of size 1, and 1 sub-sw
      +                          itches
  6689                           ; Switch size 1, requested type "simple"
  6690                           ; Number of cases is 1, Range of values is 0 to 0
  6691                           ; switch strategies available:
  6692                           ; Name         Instructions Cycles
  6693                           ; simple_byte            4     3 (average)
  6694                           ;	Chosen strategy is simple_byte
  6695   000B0C  5030               	movf	(??_mdb_poll+1)^0,w,c
  6696   000B0E  0A00               	xorlw	0	; case 0
  6697   000B10  B4D8               	btfsc	status,2,c
  6698   000B12  EF8D  F005         	goto	i2l4480
  6699   000B16  EF7F  F005         	goto	i2l3854
  6700   000B1A                     i2l4480:
  6701                           
  6702                           ; BSR set to: 0
  6703                           ; Switch size 1, requested type "simple"
  6704                           ; Number of cases is 13, Range of values is 0 to 12
  6705                           ; switch strategies available:
  6706                           ; Name         Instructions Cycles
  6707                           ; simple_byte           40    21 (average)
  6708                           ;	Chosen strategy is simple_byte
  6709   000B1A  502F               	movf	??_mdb_poll^0,w,c
  6710   000B1C  0A00               	xorlw	0	; case 0
  6711   000B1E  B4D8               	btfsc	status,2,c
  6712   000B20  EF48  F005         	goto	i2l3822
  6713   000B24  0A01               	xorlw	1	; case 1
  6714   000B26  B4D8               	btfsc	status,2,c
  6715   000B28  EF4D  F005         	goto	i2l3826
  6716   000B2C  0A03               	xorlw	3	; case 2
  6717   000B2E  B4D8               	btfsc	status,2,c
  6718   000B30  EF51  F005         	goto	i2l3828
  6719   000B34  0A01               	xorlw	1	; case 3
  6720   000B36  B4D8               	btfsc	status,2,c
  6721   000B38  EF55  F005         	goto	i2l3830
  6722   000B3C  0A07               	xorlw	7	; case 4
  6723   000B3E  B4D8               	btfsc	status,2,c
  6724   000B40  EF5B  F005         	goto	i2l3836
  6725   000B44  0A01               	xorlw	1	; case 5
  6726   000B46  B4D8               	btfsc	status,2,c
  6727   000B48  EF5F  F005         	goto	i2l3838
  6728   000B4C  0A03               	xorlw	3	; case 6
  6729   000B4E  B4D8               	btfsc	status,2,c
  6730   000B50  EF63  F005         	goto	i2l3840
  6731   000B54  0A01               	xorlw	1	; case 7
  6732   000B56  B4D8               	btfsc	status,2,c
  6733   000B58  EF67  F005         	goto	i2l3842
  6734   000B5C  0A0F               	xorlw	15	; case 8
  6735   000B5E  B4D8               	btfsc	status,2,c
  6736   000B60  EF6B  F005         	goto	i2l3844
  6737   000B64  0A01               	xorlw	1	; case 9
  6738   000B66  B4D8               	btfsc	status,2,c
  6739   000B68  EF6F  F005         	goto	i2l3846
  6740   000B6C  0A03               	xorlw	3	; case 10
  6741   000B6E  B4D8               	btfsc	status,2,c
  6742   000B70  EF73  F005         	goto	i2l3848
  6743   000B74  0A01               	xorlw	1	; case 11
  6744   000B76  B4D8               	btfsc	status,2,c
  6745   000B78  EF77  F005         	goto	i2l3850
  6746   000B7C  0A07               	xorlw	7	; case 12
  6747   000B7E  B4D8               	btfsc	status,2,c
  6748   000B80  EF7B  F005         	goto	i2l3852
  6749   000B84  EF7F  F005         	goto	i2l3854
  6750   000B88                     i2l1373:
  6751                           
  6752                           ; BSR set to: 0
  6753                           ;mdb.c: 285:         mdbflags.noteerr = 1;
  6754   000B88  821D               	bsf	_mdbflags^0,1,c
  6755   000B8A                     
  6756                           ; BSR set to: 0
  6757                           ;mdb.c: 286:         return credit;
  6758   000B8A  5025               	movf	_credit^0,w,c	;volatile
  6759   000B8C                     i2l1362:
  6760                           
  6761                           ; BSR set to: 0
  6762   000B8C  0012               	return		;funcret
  6763   000B8E                     __end_of_mdb_poll:
  6764                           	callstack 0
  6765                           
  6766 ;; *************** function i2_mdb_comm *****************
  6767 ;; Defined at:
  6768 ;;		line 291 in file "mdb.c"
  6769 ;; Parameters:    Size  Location     Type
  6770 ;;  slvadd          1    wreg     unsigned char 
  6771 ;;  mcount          1    2[COMRAM] unsigned char 
  6772 ;; Auto vars:     Size  Location     Type
  6773 ;;  slvadd          1    3[COMRAM] unsigned char 
  6774 ;;  i               1    4[COMRAM] unsigned char 
  6775 ;; Return value:  Size  Location     Type
  6776 ;;                  1    wreg      unsigned char 
  6777 ;; Registers used:
  6778 ;;		wreg, fsr2l, fsr2h, status,2, status,0, pcl, pclath, pclatu, tosl, cstack
  6779 ;; Tracked objects:
  6780 ;;		On entry : 0/0
  6781 ;;		On exit  : 0/0
  6782 ;;		Unchanged: 0/0
  6783 ;; Data sizes:     COMRAM   BANK0   BANK1   BANK2   BANK3   BANK4   BANK5   BANK6   BANK7
  6784 ;;      Params:         1       0       0       0       0       0       0       0       0
  6785 ;;      Locals:         2       0       0       0       0       0       0       0       0
  6786 ;;      Temps:          0       0       0       0       0       0       0       0       0
  6787 ;;      Totals:         3       0       0       0       0       0       0       0       0
  6788 ;;Total ram usage:        3 bytes
  6789 ;; Hardware stack levels used: 1
  6790 ;; Hardware stack levels required when called: 2
  6791 ;; This function calls:
  6792 ;;		i2_TMR0_Initialize
  6793 ;;		i2_UART1_Read
  6794 ;;		i2_UART1_SetAddresstoTransmit
  6795 ;;		i2_init_mdbdata
  6796 ;;		i2_mdb_transmit
  6797 ;;		i2_mdb_waitr
  6798 ;; This function is called by:
  6799 ;;		_mdb_poll
  6800 ;;		i2_mdb_init
  6801 ;;		i2_mdb_reset
  6802 ;;		i2_mdb_noten
  6803 ;;		i2_mdb_security
  6804 ;; This function uses a non-reentrant model
  6805 ;;
  6806                           
  6807                           	psect	text70
  6808   000CDE                     __ptext70:
  6809                           	callstack 0
  6810   000CDE                     i2_mdb_comm:
  6811                           	callstack 17
  6812                           
  6813                           ; BSR set to: 0
  6814                           ;incstack = 0
  6815                           ;i2mdb_comm@slvadd stored from wreg
  6816   000CDE  6E2D               	movwf	i2mdb_comm@slvadd^0,c
  6817   000CE0                     
  6818                           ;mdb.c: 303:     UART1_SetAddresstoTransmit(slvadd);
  6819   000CE0  502D               	movf	i2mdb_comm@slvadd^0,w,c
  6820   000CE2  EC11  F00E         	call	i2_UART1_SetAddresstoTransmit
  6821   000CE6                     
  6822                           ;mdb.c: 304:     mdbflags.nodata = 0;
  6823   000CE6  9E1D               	bcf	_mdbflags^0,7,c
  6824   000CE8                     
  6825                           ;mdb.c: 305:     if(!mcount)
  6826   000CE8  502C               	movf	i2mdb_comm@mcount^0,w,c
  6827   000CEA  A4D8               	btfss	status,2,c
  6828   000CEC  EF7A  F006         	goto	i2u146_41
  6829   000CF0  EF7C  F006         	goto	i2u146_40
  6830   000CF4                     i2u146_41:
  6831   000CF4  EF80  F006         	goto	i2l3608
  6832   000CF8                     i2u146_40:
  6833   000CF8                     
  6834                           ;mdb.c: 306:     {;mdb.c: 307:         mdb_transmit(slvadd);
  6835   000CF8  502D               	movf	i2mdb_comm@slvadd^0,w,c
  6836   000CFA  ECBF  F00D         	call	i2_mdb_transmit
  6837   000CFE                     
  6838                           ;mdb.c: 308:         mdbflags.nodata = 1;
  6839   000CFE  8E1D               	bsf	_mdbflags^0,7,c
  6840   000D00                     i2l3608:
  6841                           
  6842                           ;mdb.c: 313:     chkbyte = slvadd;
  6843   000D00  C02D  F01E         	movff	i2mdb_comm@slvadd,_chkbyte
  6844   000D04                     
  6845                           ;mdb.c: 314:     if(!mdbflags.nodata)
  6846   000D04  BE1D               	btfsc	_mdbflags^0,7,c
  6847   000D06  EF87  F006         	goto	i2u147_41
  6848   000D0A  EF89  F006         	goto	i2u147_40
  6849   000D0E                     i2u147_41:
  6850   000D0E  EFA9  F006         	goto	i2l1389
  6851   000D12                     i2u147_40:
  6852   000D12                     
  6853                           ;mdb.c: 315:     {;mdb.c: 316:         i = mcount + 1;
  6854   000D12  282C               	incf	i2mdb_comm@mcount^0,w,c
  6855   000D14  6E2E               	movwf	i2mdb_comm@i^0,c
  6856                           
  6857                           ;mdb.c: 317:         while(i != 0)
  6858   000D16  EFA1  F006         	goto	i2l3622
  6859   000D1A                     i2l3614:
  6860                           
  6861                           ;mdb.c: 318:         {;mdb.c: 319:             mdb_transmit(mdbdata[mcount]);
  6862   000D1A  0E60               	movlw	low _mdbdata
  6863   000D1C  242C               	addwf	i2mdb_comm@mcount^0,w,c
  6864   000D1E  6ED9               	movwf	fsr2l,c
  6865   000D20  6ADA               	clrf	fsr2h,c
  6866   000D22  0E00               	movlw	high _mdbdata
  6867   000D24  22DA               	addwfc	fsr2h,f,c
  6868   000D26  50DF               	movf	indf2,w,c
  6869   000D28  ECBF  F00D         	call	i2_mdb_transmit
  6870   000D2C                     
  6871                           ;mdb.c: 322:             chkbyte = chkbyte + mdbdata[mcount];
  6872   000D2C  0E60               	movlw	low _mdbdata
  6873   000D2E  242C               	addwf	i2mdb_comm@mcount^0,w,c
  6874   000D30  6ED9               	movwf	fsr2l,c
  6875   000D32  6ADA               	clrf	fsr2h,c
  6876   000D34  0E00               	movlw	high _mdbdata
  6877   000D36  22DA               	addwfc	fsr2h,f,c
  6878   000D38  50DF               	movf	indf2,w,c
  6879   000D3A  241E               	addwf	_chkbyte^0,w,c
  6880   000D3C  6E1E               	movwf	_chkbyte^0,c
  6881   000D3E                     
  6882                           ;mdb.c: 323:             i--;
  6883   000D3E  062E               	decf	i2mdb_comm@i^0,f,c
  6884   000D40                     
  6885                           ;mdb.c: 324:             mcount--;
  6886   000D40  062C               	decf	i2mdb_comm@mcount^0,f,c
  6887   000D42                     i2l3622:
  6888                           
  6889                           ;mdb.c: 317:         while(i != 0)
  6890   000D42  502E               	movf	i2mdb_comm@i^0,w,c
  6891   000D44  A4D8               	btfss	status,2,c
  6892   000D46  EFA7  F006         	goto	i2u148_41
  6893   000D4A  EFA9  F006         	goto	i2u148_40
  6894   000D4E                     i2u148_41:
  6895   000D4E  EF8D  F006         	goto	i2l3614
  6896   000D52                     i2u148_40:
  6897   000D52                     i2l1389:
  6898                           
  6899                           ;mdb.c: 327:     if(!mdbflags.nodata)
  6900   000D52  BE1D               	btfsc	_mdbflags^0,7,c
  6901   000D54  EFAE  F006         	goto	i2u149_41
  6902   000D58  EFB0  F006         	goto	i2u149_40
  6903   000D5C                     i2u149_41:
  6904   000D5C  EFB3  F006         	goto	i2l3626
  6905   000D60                     i2u149_40:
  6906   000D60                     
  6907                           ;mdb.c: 328:     {;mdb.c: 329:         mdb_transmit(chkbyte);
  6908   000D60  501E               	movf	_chkbyte^0,w,c
  6909   000D62  ECBF  F00D         	call	i2_mdb_transmit
  6910   000D66                     i2l3626:
  6911                           
  6912                           ;mdb.c: 337:     init_mdbdata(0xFF);
  6913   000D66  0EFF               	movlw	255
  6914   000D68  ECC9  F00C         	call	i2_init_mdbdata
  6915   000D6C                     
  6916                           ;mdb.c: 338:     TMR0_Initialize();
  6917   000D6C  EC66  F00D         	call	i2_TMR0_Initialize	;wreg free
  6918   000D70                     
  6919                           ;mdb.c: 339:     dbcount = 0;
  6920   000D70  0E00               	movlw	0
  6921   000D72  6E04               	movwf	(_dbcount+1)^0,c
  6922   000D74  0E00               	movlw	0
  6923   000D76  6E03               	movwf	_dbcount^0,c
  6924   000D78                     
  6925                           ;mdb.c: 340:     mdbflags.isdata = 0;
  6926   000D78  901D               	bcf	_mdbflags^0,0,c
  6927   000D7A                     
  6928                           ;mdb.c: 341:     i = 0;
  6929   000D7A  0E00               	movlw	0
  6930   000D7C  6E2E               	movwf	i2mdb_comm@i^0,c
  6931                           
  6932                           ;mdb.c: 343:     while(!T0CON0bits.OUT && !mdbflags.isdata)
  6933   000D7E  EFE9  F006         	goto	i2l1394
  6934   000D82                     i2l3636:
  6935                           
  6936                           ;mdb.c: 344:     {;mdb.c: 346:         dbcount++;
  6937   000D82  4A03               	infsnz	_dbcount^0,f,c
  6938   000D84  2A04               	incf	(_dbcount+1)^0,f,c
  6939   000D86                     
  6940                           ;mdb.c: 347:         mdbflags.isdata = 0;
  6941   000D86  901D               	bcf	_mdbflags^0,0,c
  6942                           
  6943                           ;mdb.c: 350:         while(PIR3bits.U1RXIF && !mdbflags.isdata)
  6944   000D88  EFDA  F006         	goto	i2l3650
  6945   000D8C                     i2l3640:
  6946                           
  6947                           ; BSR set to: 57
  6948                           ;mdb.c: 351:         {;mdb.c: 354:             mdbdata[i] = UART1_Read();
  6949   000D8C  0E60               	movlw	low _mdbdata
  6950   000D8E  242E               	addwf	i2mdb_comm@i^0,w,c
  6951   000D90  6ED9               	movwf	fsr2l,c
  6952   000D92  6ADA               	clrf	fsr2h,c
  6953   000D94  0E00               	movlw	high _mdbdata
  6954   000D96  22DA               	addwfc	fsr2h,f,c
  6955   000D98  ECD3  F007         	call	i2_UART1_Read	;wreg free
  6956   000D9C  6EDF               	movwf	indf2,c
  6957   000D9E                     
  6958                           ;mdb.c: 355:             mdb_waitr();
  6959   000D9E  EC9F  F00D         	call	i2_mdb_waitr	;wreg free
  6960   000DA2                     
  6961                           ;mdb.c: 357:             mdbflags.isdata = U1ERRIRbits.PERIF;
  6962   000DA2  013D               	movlb	61	; () banked
  6963   000DA4  ADF9               	btfss	249,6,b	;volatile
  6964   000DA6  D002               	bra	i2u150_45
  6965   000DA8  801D               	bsf	_mdbflags^0,0,c
  6966   000DAA  D001               	bra	i2u150_47
  6967   000DAC                     i2u150_45:
  6968   000DAC  901D               	bcf	_mdbflags^0,0,c
  6969   000DAE                     i2u150_47:
  6970   000DAE                     
  6971                           ;mdb.c: 358:             TMR0_Initialize();
  6972   000DAE  EC66  F00D         	call	i2_TMR0_Initialize	;wreg free
  6973   000DB2                     
  6974                           ;mdb.c: 359:             i++;
  6975   000DB2  2A2E               	incf	i2mdb_comm@i^0,f,c
  6976   000DB4                     i2l3650:
  6977                           
  6978                           ;mdb.c: 350:         while(PIR3bits.U1RXIF && !mdbflags.isdata)
  6979   000DB4  0139               	movlb	57	; () banked
  6980   000DB6  A7A3               	btfss	163,3,b	;volatile
  6981   000DB8  EFE0  F006         	goto	i2u151_41
  6982   000DBC  EFE2  F006         	goto	i2u151_40
  6983   000DC0                     i2u151_41:
  6984   000DC0  EFE9  F006         	goto	i2l1394
  6985   000DC4                     i2u151_40:
  6986   000DC4                     
  6987                           ; BSR set to: 57
  6988   000DC4  A01D               	btfss	_mdbflags^0,0,c
  6989   000DC6  EFE7  F006         	goto	i2u152_41
  6990   000DCA  EFE9  F006         	goto	i2u152_40
  6991   000DCE                     i2u152_41:
  6992   000DCE  EFC6  F006         	goto	i2l3640
  6993   000DD2                     i2u152_40:
  6994   000DD2                     i2l1394:
  6995                           
  6996                           ;mdb.c: 343:     while(!T0CON0bits.OUT && !mdbflags.isdata)
  6997   000DD2  BAB8               	btfsc	184,5,c	;volatile
  6998   000DD4  EFEE  F006         	goto	i2u153_41
  6999   000DD8  EFF0  F006         	goto	i2u153_40
  7000   000DDC                     i2u153_41:
  7001   000DDC  EFF7  F006         	goto	i2l3656
  7002   000DE0                     i2u153_40:
  7003   000DE0  A01D               	btfss	_mdbflags^0,0,c
  7004   000DE2  EFF5  F006         	goto	i2u154_41
  7005   000DE6  EFF7  F006         	goto	i2u154_40
  7006   000DEA                     i2u154_41:
  7007   000DEA  EFC1  F006         	goto	i2l3636
  7008   000DEE                     i2u154_40:
  7009   000DEE                     i2l3656:
  7010                           
  7011                           ;mdb.c: 365:     i--;
  7012   000DEE  062E               	decf	i2mdb_comm@i^0,f,c
  7013   000DF0                     
  7014                           ;mdb.c: 367:     mdbflags.timeout = T0CON0bits.OUT;
  7015   000DF0  AAB8               	btfss	184,5,c	;volatile
  7016   000DF2  D002               	bra	i2u155_45
  7017   000DF4  861D               	bsf	_mdbflags^0,3,c
  7018   000DF6  D001               	bra	i2u155_47
  7019   000DF8                     i2u155_45:
  7020   000DF8  961D               	bcf	_mdbflags^0,3,c
  7021   000DFA                     i2u155_47:
  7022   000DFA                     
  7023                           ;mdb.c: 369:     if(mdbflags.isdata == 1 && mdbdata[i] != 0x00)
  7024   000DFA  A01D               	btfss	_mdbflags^0,0,c
  7025   000DFC  EF02  F007         	goto	i2u156_41
  7026   000E00  EF04  F007         	goto	i2u156_40
  7027   000E04                     i2u156_41:
  7028   000E04  EF15  F007         	goto	i2l3666
  7029   000E08                     i2u156_40:
  7030   000E08  0E60               	movlw	low _mdbdata
  7031   000E0A  242E               	addwf	i2mdb_comm@i^0,w,c
  7032   000E0C  6ED9               	movwf	fsr2l,c
  7033   000E0E  6ADA               	clrf	fsr2h,c
  7034   000E10  0E00               	movlw	high _mdbdata
  7035   000E12  22DA               	addwfc	fsr2h,f,c
  7036   000E14  50DF               	movf	indf2,w,c
  7037   000E16  B4D8               	btfsc	status,2,c
  7038   000E18  EF10  F007         	goto	i2u157_41
  7039   000E1C  EF12  F007         	goto	i2u157_40
  7040   000E20                     i2u157_41:
  7041   000E20  EF15  F007         	goto	i2l3666
  7042   000E24                     i2u157_40:
  7043   000E24                     
  7044                           ;mdb.c: 370:     {;mdb.c: 371:         mdb_transmit(0x00);
  7045   000E24  0E00               	movlw	0
  7046   000E26  ECBF  F00D         	call	i2_mdb_transmit
  7047   000E2A                     i2l3666:
  7048                           
  7049                           ;mdb.c: 375:     return(i);
  7050   000E2A  502E               	movf	i2mdb_comm@i^0,w,c
  7051   000E2C  0012               	return		;funcret
  7052   000E2E                     __end_ofi2_mdb_comm:
  7053                           	callstack 0
  7054                           
  7055 ;; *************** function i2_mdb_waitr *****************
  7056 ;; Defined at:
  7057 ;;		line 399 in file "mdb.c"
  7058 ;; Parameters:    Size  Location     Type
  7059 ;;		None
  7060 ;; Auto vars:     Size  Location     Type
  7061 ;;		None
  7062 ;; Return value:  Size  Location     Type
  7063 ;;                  1    wreg      void 
  7064 ;; Registers used:
  7065 ;;		None
  7066 ;; Tracked objects:
  7067 ;;		On entry : 0/0
  7068 ;;		On exit  : 0/0
  7069 ;;		Unchanged: 0/0
  7070 ;; Data sizes:     COMRAM   BANK0   BANK1   BANK2   BANK3   BANK4   BANK5   BANK6   BANK7
  7071 ;;      Params:         0       0       0       0       0       0       0       0       0
  7072 ;;      Locals:         0       0       0       0       0       0       0       0       0
  7073 ;;      Temps:          0       0       0       0       0       0       0       0       0
  7074 ;;      Totals:         0       0       0       0       0       0       0       0       0
  7075 ;;Total ram usage:        0 bytes
  7076 ;; Hardware stack levels used: 1
  7077 ;; This function calls:
  7078 ;;		Nothing
  7079 ;; This function is called by:
  7080 ;;		i2_mdb_comm
  7081 ;; This function uses a non-reentrant model
  7082 ;;
  7083                           
  7084                           	psect	text71
  7085   001B3E                     __ptext71:
  7086                           	callstack 0
  7087   001B3E                     i2_mdb_waitr:
  7088                           	callstack 18
  7089   001B3E                     i2l1417:
  7090                           
  7091                           ;mdb.c: 401:     while(!PIR3bits.U1RXIF)
  7092   001B3E  0139               	movlb	57	; () banked
  7093   001B40  A7A3               	btfss	163,3,b	;volatile
  7094   001B42  EFA5  F00D         	goto	i2u145_41
  7095   001B46  EFA7  F00D         	goto	i2u145_40
  7096   001B4A                     i2u145_41:
  7097   001B4A  EF9F  F00D         	goto	i2l1417
  7098   001B4E                     i2u145_40:
  7099   001B4E                     
  7100                           ; BSR set to: 57
  7101   001B4E  0012               	return		;funcret
  7102   001B50                     __end_ofi2_mdb_waitr:
  7103                           	callstack 0
  7104                           
  7105 ;; *************** function i2_mdb_transmit *****************
  7106 ;; Defined at:
  7107 ;;		line 496 in file "mdb.c"
  7108 ;; Parameters:    Size  Location     Type
  7109 ;;  txbyte          1    wreg     unsigned char 
  7110 ;; Auto vars:     Size  Location     Type
  7111 ;;  txbyte          1    1[COMRAM] unsigned char 
  7112 ;; Return value:  Size  Location     Type
  7113 ;;                  1    wreg      void 
  7114 ;; Registers used:
  7115 ;;		wreg, status,2, cstack
  7116 ;; Tracked objects:
  7117 ;;		On entry : 0/0
  7118 ;;		On exit  : 0/0
  7119 ;;		Unchanged: 0/0
  7120 ;; Data sizes:     COMRAM   BANK0   BANK1   BANK2   BANK3   BANK4   BANK5   BANK6   BANK7
  7121 ;;      Params:         0       0       0       0       0       0       0       0       0
  7122 ;;      Locals:         1       0       0       0       0       0       0       0       0
  7123 ;;      Temps:          0       0       0       0       0       0       0       0       0
  7124 ;;      Totals:         1       0       0       0       0       0       0       0       0
  7125 ;;Total ram usage:        1 bytes
  7126 ;; Hardware stack levels used: 1
  7127 ;; Hardware stack levels required when called: 1
  7128 ;; This function calls:
  7129 ;;		i2_UART1_Write
  7130 ;;		i2_mdb_waitx
  7131 ;; This function is called by:
  7132 ;;		i2_mdb_comm
  7133 ;; This function uses a non-reentrant model
  7134 ;;
  7135                           
  7136                           	psect	text72
  7137   001B7E                     __ptext72:
  7138                           	callstack 0
  7139   001B7E                     i2_mdb_transmit:
  7140                           	callstack 17
  7141                           
  7142                           ; BSR set to: 57
  7143                           ;incstack = 0
  7144                           ;i2mdb_transmit@txbyte stored from wreg
  7145   001B7E  6E2B               	movwf	i2mdb_transmit@txbyte^0,c
  7146   001B80                     
  7147                           ;mdb.c: 496: void mdb_transmit(uint8_t txbyte);mdb.c: 497: {;mdb.c: 498:     UART1_Write
      +                          (txbyte);
  7148   001B80  502B               	movf	i2mdb_transmit@txbyte^0,w,c
  7149   001B82  EC37  F00D         	call	i2_UART1_Write
  7150   001B86                     
  7151                           ;mdb.c: 499:     mdb_waitx();
  7152   001B86  ECA8  F00D         	call	i2_mdb_waitx	;wreg free
  7153   001B8A  0012               	return		;funcret
  7154   001B8C                     __end_ofi2_mdb_transmit:
  7155                           	callstack 0
  7156                           
  7157 ;; *************** function i2_mdb_waitx *****************
  7158 ;; Defined at:
  7159 ;;		line 391 in file "mdb.c"
  7160 ;; Parameters:    Size  Location     Type
  7161 ;;		None
  7162 ;; Auto vars:     Size  Location     Type
  7163 ;;		None
  7164 ;; Return value:  Size  Location     Type
  7165 ;;                  1    wreg      void 
  7166 ;; Registers used:
  7167 ;;		None
  7168 ;; Tracked objects:
  7169 ;;		On entry : 0/0
  7170 ;;		On exit  : 0/0
  7171 ;;		Unchanged: 0/0
  7172 ;; Data sizes:     COMRAM   BANK0   BANK1   BANK2   BANK3   BANK4   BANK5   BANK6   BANK7
  7173 ;;      Params:         0       0       0       0       0       0       0       0       0
  7174 ;;      Locals:         0       0       0       0       0       0       0       0       0
  7175 ;;      Temps:          0       0       0       0       0       0       0       0       0
  7176 ;;      Totals:         0       0       0       0       0       0       0       0       0
  7177 ;;Total ram usage:        0 bytes
  7178 ;; Hardware stack levels used: 1
  7179 ;; This function calls:
  7180 ;;		Nothing
  7181 ;; This function is called by:
  7182 ;;		i2_mdb_transmit
  7183 ;; This function uses a non-reentrant model
  7184 ;;
  7185                           
  7186                           	psect	text73
  7187   001B50                     __ptext73:
  7188                           	callstack 0
  7189   001B50                     i2_mdb_waitx:
  7190                           	callstack 17
  7191   001B50                     i2l1411:
  7192                           
  7193                           ;mdb.c: 393:     while(!U1ERRIRbits.TXMTIF)
  7194   001B50  013D               	movlb	61	; () banked
  7195   001B52  AFF9               	btfss	249,7,b	;volatile
  7196   001B54  EFAE  F00D         	goto	i2u136_41
  7197   001B58  EFB0  F00D         	goto	i2u136_40
  7198   001B5C                     i2u136_41:
  7199   001B5C  EFA8  F00D         	goto	i2l1411
  7200   001B60                     i2u136_40:
  7201   001B60                     
  7202                           ; BSR set to: 61
  7203   001B60  0012               	return		;funcret
  7204   001B62                     __end_ofi2_mdb_waitx:
  7205                           	callstack 0
  7206                           
  7207 ;; *************** function i2_UART1_Write *****************
  7208 ;; Defined at:
  7209 ;;		line 170 in file "mcc_generated_files/uart1.c"
  7210 ;; Parameters:    Size  Location     Type
  7211 ;;  txData          1    wreg     unsigned char 
  7212 ;; Auto vars:     Size  Location     Type
  7213 ;;  txData          1    0[COMRAM] unsigned char 
  7214 ;; Return value:  Size  Location     Type
  7215 ;;                  1    wreg      void 
  7216 ;; Registers used:
  7217 ;;		wreg
  7218 ;; Tracked objects:
  7219 ;;		On entry : 0/0
  7220 ;;		On exit  : 0/0
  7221 ;;		Unchanged: 0/0
  7222 ;; Data sizes:     COMRAM   BANK0   BANK1   BANK2   BANK3   BANK4   BANK5   BANK6   BANK7
  7223 ;;      Params:         0       0       0       0       0       0       0       0       0
  7224 ;;      Locals:         1       0       0       0       0       0       0       0       0
  7225 ;;      Temps:          0       0       0       0       0       0       0       0       0
  7226 ;;      Totals:         1       0       0       0       0       0       0       0       0
  7227 ;;Total ram usage:        1 bytes
  7228 ;; Hardware stack levels used: 1
  7229 ;; This function calls:
  7230 ;;		Nothing
  7231 ;; This function is called by:
  7232 ;;		i2_mdb_transmit
  7233 ;; This function uses a non-reentrant model
  7234 ;;
  7235                           
  7236                           	psect	text74
  7237   001A6E                     __ptext74:
  7238                           	callstack 0
  7239   001A6E                     i2_UART1_Write:
  7240                           	callstack 17
  7241                           
  7242                           ; BSR set to: 61
  7243                           ;incstack = 0
  7244                           ;i2UART1_Write@txData stored from wreg
  7245   001A6E  6E2A               	movwf	i2UART1_Write@txData^0,c
  7246   001A70                     i2l531:
  7247                           
  7248                           ;mcc_generated_files/uart1.c: 172:     while(0 == PIR3bits.U1TXIF)
  7249   001A70  0139               	movlb	57	; () banked
  7250   001A72  A9A3               	btfss	163,4,b	;volatile
  7251   001A74  EF3E  F00D         	goto	i2u135_41
  7252   001A78  EF40  F00D         	goto	i2u135_40
  7253   001A7C                     i2u135_41:
  7254   001A7C  EF38  F00D         	goto	i2l531
  7255   001A80                     i2u135_40:
  7256   001A80                     
  7257                           ; BSR set to: 57
  7258                           ;mcc_generated_files/uart1.c: 176:     U1TXB = txData;
  7259   001A80  0060  F0AB  FDEA   	movff	i2UART1_Write@txData,15850	;volatile
  7260   001A86                     
  7261                           ; BSR set to: 57
  7262   001A86  0012               	return		;funcret
  7263   001A88                     __end_ofi2_UART1_Write:
  7264                           	callstack 0
  7265                           
  7266 ;; *************** function i2_init_mdbdata *****************
  7267 ;; Defined at:
  7268 ;;		line 13 in file "mdb.c"
  7269 ;; Parameters:    Size  Location     Type
  7270 ;;  initdata        1    wreg     unsigned char 
  7271 ;; Auto vars:     Size  Location     Type
  7272 ;;  initdata        1    0[COMRAM] unsigned char 
  7273 ;;  i               1    1[COMRAM] unsigned char 
  7274 ;; Return value:  Size  Location     Type
  7275 ;;                  1    wreg      void 
  7276 ;; Registers used:
  7277 ;;		wreg, fsr2l, fsr2h, status,2, status,0
  7278 ;; Tracked objects:
  7279 ;;		On entry : 0/0
  7280 ;;		On exit  : 0/0
  7281 ;;		Unchanged: 0/0
  7282 ;; Data sizes:     COMRAM   BANK0   BANK1   BANK2   BANK3   BANK4   BANK5   BANK6   BANK7
  7283 ;;      Params:         0       0       0       0       0       0       0       0       0
  7284 ;;      Locals:         2       0       0       0       0       0       0       0       0
  7285 ;;      Temps:          0       0       0       0       0       0       0       0       0
  7286 ;;      Totals:         2       0       0       0       0       0       0       0       0
  7287 ;;Total ram usage:        2 bytes
  7288 ;; Hardware stack levels used: 1
  7289 ;; This function calls:
  7290 ;;		Nothing
  7291 ;; This function is called by:
  7292 ;;		i2_mdb_noten
  7293 ;;		i2_mdb_security
  7294 ;;		i2_mdb_comm
  7295 ;; This function uses a non-reentrant model
  7296 ;;
  7297                           
  7298                           	psect	text75
  7299   001992                     __ptext75:
  7300                           	callstack 0
  7301   001992                     i2_init_mdbdata:
  7302                           	callstack 18
  7303                           
  7304                           ; BSR set to: 57
  7305                           ;incstack = 0
  7306                           ;i2init_mdbdata@initdata stored from wreg
  7307   001992  6E2A               	movwf	i2init_mdbdata@initdata^0,c
  7308   001994                     
  7309                           ;mdb.c: 13: void init_mdbdata(uint8_t initdata);mdb.c: 14: {;mdb.c: 15:     for(uint8_t 
      +                          i = 0;i < 33; i++)
  7310   001994  0E00               	movlw	0
  7311   001996  6E2B               	movwf	i2init_mdbdata@i^0,c
  7312   001998                     i2l3584:
  7313                           
  7314                           ;mdb.c: 16:     {;mdb.c: 17:         mdbdata[i] = initdata;
  7315   001998  0E60               	movlw	low _mdbdata
  7316   00199A  242B               	addwf	i2init_mdbdata@i^0,w,c
  7317   00199C  6ED9               	movwf	fsr2l,c
  7318   00199E  6ADA               	clrf	fsr2h,c
  7319   0019A0  0E00               	movlw	high _mdbdata
  7320   0019A2  22DA               	addwfc	fsr2h,f,c
  7321   0019A4  0060  F0AB  FFDF   	movff	i2init_mdbdata@initdata,indf2
  7322   0019AA                     
  7323                           ;mdb.c: 18:     }
  7324   0019AA  2A2B               	incf	i2init_mdbdata@i^0,f,c
  7325   0019AC  0E20               	movlw	32
  7326   0019AE  642B               	cpfsgt	i2init_mdbdata@i^0,c
  7327   0019B0  EFDC  F00C         	goto	i2u144_41
  7328   0019B4  EFDE  F00C         	goto	i2u144_40
  7329   0019B8                     i2u144_41:
  7330   0019B8  EFCC  F00C         	goto	i2l3584
  7331   0019BC                     i2u144_40:
  7332   0019BC  0012               	return		;funcret
  7333   0019BE                     __end_ofi2_init_mdbdata:
  7334                           	callstack 0
  7335                           
  7336 ;; *************** function i2_UART1_SetAddresstoTransmit *****************
  7337 ;; Defined at:
  7338 ;;		line 179 in file "mcc_generated_files/uart1.c"
  7339 ;; Parameters:    Size  Location     Type
  7340 ;;  txAddress       1    wreg     unsigned char 
  7341 ;; Auto vars:     Size  Location     Type
  7342 ;;  txAddress       1    0[COMRAM] unsigned char 
  7343 ;; Return value:  Size  Location     Type
  7344 ;;                  1    wreg      void 
  7345 ;; Registers used:
  7346 ;;		wreg
  7347 ;; Tracked objects:
  7348 ;;		On entry : 0/0
  7349 ;;		On exit  : 0/0
  7350 ;;		Unchanged: 0/0
  7351 ;; Data sizes:     COMRAM   BANK0   BANK1   BANK2   BANK3   BANK4   BANK5   BANK6   BANK7
  7352 ;;      Params:         0       0       0       0       0       0       0       0       0
  7353 ;;      Locals:         1       0       0       0       0       0       0       0       0
  7354 ;;      Temps:          0       0       0       0       0       0       0       0       0
  7355 ;;      Totals:         1       0       0       0       0       0       0       0       0
  7356 ;;Total ram usage:        1 bytes
  7357 ;; Hardware stack levels used: 1
  7358 ;; This function calls:
  7359 ;;		Nothing
  7360 ;; This function is called by:
  7361 ;;		i2_mdb_comm
  7362 ;; This function uses a non-reentrant model
  7363 ;;
  7364                           
  7365                           	psect	text76
  7366   001C22                     __ptext76:
  7367                           	callstack 0
  7368   001C22                     i2_UART1_SetAddresstoTransmit:
  7369                           	callstack 18
  7370                           
  7371                           ;incstack = 0
  7372                           ;i2UART1_SetAddresstoTransmit@txAddress stored from wreg
  7373   001C22  6E2A               	movwf	i2UART1_SetAddresstoTransmit@txAddress^0,c
  7374   001C24                     
  7375                           ;mcc_generated_files/uart1.c: 179: void UART1_SetAddresstoTransmit(uint8_t txAddress);mc
      +                          c_generated_files/uart1.c: 180: {;mcc_generated_files/uart1.c: 181:     U1P1L = txAddres
      +                          s;
  7376   001C24  0060  F0AB  FDEC   	movff	i2UART1_SetAddresstoTransmit@txAddress,15852	;volatile
  7377   001C2A  0012               	return		;funcret
  7378   001C2C                     __end_ofi2_UART1_SetAddresstoTransmit:
  7379                           	callstack 0
  7380                           
  7381 ;; *************** function i2_UART1_Read *****************
  7382 ;; Defined at:
  7383 ;;		line 145 in file "mcc_generated_files/uart1.c"
  7384 ;; Parameters:    Size  Location     Type
  7385 ;;		None
  7386 ;; Auto vars:     Size  Location     Type
  7387 ;;		None
  7388 ;; Return value:  Size  Location     Type
  7389 ;;                  1    wreg      unsigned char 
  7390 ;; Registers used:
  7391 ;;		wreg, status,2, pcl, pclath, pclatu, tosl, cstack
  7392 ;; Tracked objects:
  7393 ;;		On entry : 0/0
  7394 ;;		On exit  : 0/0
  7395 ;;		Unchanged: 0/0
  7396 ;; Data sizes:     COMRAM   BANK0   BANK1   BANK2   BANK3   BANK4   BANK5   BANK6   BANK7
  7397 ;;      Params:         0       0       0       0       0       0       0       0       0
  7398 ;;      Locals:         0       0       0       0       0       0       0       0       0
  7399 ;;      Temps:          0       0       0       0       0       0       0       0       0
  7400 ;;      Totals:         0       0       0       0       0       0       0       0       0
  7401 ;;Total ram usage:        0 bytes
  7402 ;; Hardware stack levels used: 1
  7403 ;; Hardware stack levels required when called: 1
  7404 ;; This function calls:
  7405 ;;		Absolute function
  7406 ;;		i2_UART1_DefaultErrorHandler
  7407 ;;		i2_UART1_DefaultFramingErrorHandler
  7408 ;;		i2_UART1_DefaultOverrunErrorHandler
  7409 ;; This function is called by:
  7410 ;;		i2_mdb_comm
  7411 ;; This function uses a non-reentrant model
  7412 ;;
  7413                           
  7414                           	psect	text77
  7415   000FA6                     __ptext77:
  7416                           	callstack 0
  7417   000FA6                     i2_UART1_Read:
  7418                           	callstack 17
  7419   000FA6                     i2l522:
  7420                           
  7421                           ;mcc_generated_files/uart1.c: 147:     while(!PIR3bits.U1RXIF)
  7422   000FA6  0139               	movlb	57	; () banked
  7423   000FA8  A7A3               	btfss	163,3,b	;volatile
  7424   000FAA  EFD9  F007         	goto	i2u137_41
  7425   000FAE  EFDB  F007         	goto	i2u137_40
  7426   000FB2                     i2u137_41:
  7427   000FB2  EFD3  F007         	goto	i2l522
  7428   000FB6                     i2u137_40:
  7429   000FB6                     
  7430                           ; BSR set to: 57
  7431                           ;mcc_generated_files/uart1.c: 151:     uart1RxLastError.status = 0;
  7432   000FB6  0E00               	movlw	0
  7433   000FB8  6E27               	movwf	_uart1RxLastError^0,c	;volatile
  7434   000FBA                     
  7435                           ; BSR set to: 57
  7436                           ;mcc_generated_files/uart1.c: 153:     if(U1ERRIRbits.FERIF){
  7437   000FBA  013D               	movlb	61	; () banked
  7438   000FBC  A7F9               	btfss	249,3,b	;volatile
  7439   000FBE  EFE3  F007         	goto	i2u138_41
  7440   000FC2  EFE5  F007         	goto	i2u138_40
  7441   000FC6                     i2u138_41:
  7442   000FC6  EFF3  F007         	goto	i2l3558
  7443   000FCA                     i2u138_40:
  7444   000FCA                     
  7445                           ; BSR set to: 61
  7446                           ;mcc_generated_files/uart1.c: 154:         uart1RxLastError.ferr = 1;
  7447   000FCA  8227               	bsf	_uart1RxLastError^0,1,c	;volatile
  7448   000FCC                     
  7449                           ; BSR set to: 61
  7450                           ;mcc_generated_files/uart1.c: 155:         UART1_FramingErrorHandler();
  7451   000FCC  D802               	call	i2u139_48
  7452   000FCE  EFF3  F007         	goto	i2u139_49
  7453   000FD2                     i2u139_48:
  7454   000FD2  0005               	push	
  7455   000FD4  6EFA               	movwf	pclath,c
  7456   000FD6  5011               	movf	_UART1_FramingErrorHandler^0,w,c
  7457   000FD8  6EFD               	movwf	tosl,c
  7458   000FDA  5012               	movf	(_UART1_FramingErrorHandler+1)^0,w,c
  7459   000FDC  6EFE               	movwf	tosh,c
  7460   000FDE  50F8               	movf	tblptru,w,c
  7461   000FE0  6EFF               	movwf	tosu,c
  7462   000FE2  50FA               	movf	pclath,w,c
  7463   000FE4  0012               	return		;indir
  7464   000FE6                     i2u139_49:
  7465   000FE6                     i2l3558:
  7466                           
  7467                           ;mcc_generated_files/uart1.c: 158:     if(U1ERRIRbits.RXFOIF){
  7468   000FE6  013D               	movlb	61	; () banked
  7469   000FE8  A3F9               	btfss	249,1,b	;volatile
  7470   000FEA  EFF9  F007         	goto	i2u140_41
  7471   000FEE  EFFB  F007         	goto	i2u140_40
  7472   000FF2                     i2u140_41:
  7473   000FF2  EF09  F008         	goto	i2l3564
  7474   000FF6                     i2u140_40:
  7475   000FF6                     
  7476                           ; BSR set to: 61
  7477                           ;mcc_generated_files/uart1.c: 159:         uart1RxLastError.oerr = 1;
  7478   000FF6  8427               	bsf	_uart1RxLastError^0,2,c	;volatile
  7479   000FF8                     
  7480                           ; BSR set to: 61
  7481                           ;mcc_generated_files/uart1.c: 160:         UART1_OverrunErrorHandler();
  7482   000FF8  D802               	call	i2u141_48
  7483   000FFA  EF09  F008         	goto	i2u141_49
  7484   000FFE                     i2u141_48:
  7485   000FFE  0005               	push	
  7486   001000  6EFA               	movwf	pclath,c
  7487   001002  500F               	movf	_UART1_OverrunErrorHandler^0,w,c
  7488   001004  6EFD               	movwf	tosl,c
  7489   001006  5010               	movf	(_UART1_OverrunErrorHandler+1)^0,w,c
  7490   001008  6EFE               	movwf	tosh,c
  7491   00100A  50F8               	movf	tblptru,w,c
  7492   00100C  6EFF               	movwf	tosu,c
  7493   00100E  50FA               	movf	pclath,w,c
  7494   001010  0012               	return		;indir
  7495   001012                     i2u141_49:
  7496   001012                     i2l3564:
  7497                           
  7498                           ;mcc_generated_files/uart1.c: 163:     if(uart1RxLastError.status){
  7499   001012  5027               	movf	_uart1RxLastError^0,w,c	;volatile
  7500   001014  B4D8               	btfsc	status,2,c
  7501   001016  EF0F  F008         	goto	i2u142_41
  7502   00101A  EF11  F008         	goto	i2u142_40
  7503   00101E                     i2u142_41:
  7504   00101E  EF1E  F008         	goto	i2l3568
  7505   001022                     i2u142_40:
  7506   001022                     
  7507                           ;mcc_generated_files/uart1.c: 164:         UART1_ErrorHandler();
  7508   001022  D802               	call	i2u143_48
  7509   001024  EF1E  F008         	goto	i2u143_49
  7510   001028                     i2u143_48:
  7511   001028  0005               	push	
  7512   00102A  6EFA               	movwf	pclath,c
  7513   00102C  500D               	movf	_UART1_ErrorHandler^0,w,c
  7514   00102E  6EFD               	movwf	tosl,c
  7515   001030  500E               	movf	(_UART1_ErrorHandler+1)^0,w,c
  7516   001032  6EFE               	movwf	tosh,c
  7517   001034  50F8               	movf	tblptru,w,c
  7518   001036  6EFF               	movwf	tosu,c
  7519   001038  50FA               	movf	pclath,w,c
  7520   00103A  0012               	return		;indir
  7521   00103C                     i2u143_49:
  7522   00103C                     i2l3568:
  7523                           
  7524                           ;mcc_generated_files/uart1.c: 167:     return U1RXB;
  7525   00103C  013D               	movlb	61	; () banked
  7526   00103E  51E8               	movf	232,w,b	;volatile
  7527   001040                     
  7528                           ; BSR set to: 61
  7529   001040  0012               	return		;funcret
  7530   001042                     __end_ofi2_UART1_Read:
  7531                           	callstack 0
  7532                           
  7533 ;; *************** function i2_UART1_DefaultOverrunErrorHandler *****************
  7534 ;; Defined at:
  7535 ;;		line 190 in file "mcc_generated_files/uart1.c"
  7536 ;; Parameters:    Size  Location     Type
  7537 ;;		None
  7538 ;; Auto vars:     Size  Location     Type
  7539 ;;		None
  7540 ;; Return value:  Size  Location     Type
  7541 ;;                  1    wreg      void 
  7542 ;; Registers used:
  7543 ;;		None
  7544 ;; Tracked objects:
  7545 ;;		On entry : 0/0
  7546 ;;		On exit  : 0/0
  7547 ;;		Unchanged: 0/0
  7548 ;; Data sizes:     COMRAM   BANK0   BANK1   BANK2   BANK3   BANK4   BANK5   BANK6   BANK7
  7549 ;;      Params:         0       0       0       0       0       0       0       0       0
  7550 ;;      Locals:         0       0       0       0       0       0       0       0       0
  7551 ;;      Temps:          0       0       0       0       0       0       0       0       0
  7552 ;;      Totals:         0       0       0       0       0       0       0       0       0
  7553 ;;Total ram usage:        0 bytes
  7554 ;; Hardware stack levels used: 1
  7555 ;; This function calls:
  7556 ;;		Nothing
  7557 ;; This function is called by:
  7558 ;;		i2_UART1_Read
  7559 ;;		_UART1_Read
  7560 ;; This function uses a non-reentrant model
  7561 ;;
  7562                           
  7563                           	psect	text78
  7564   001C3A                     __ptext78:
  7565                           	callstack 0
  7566   001C3A                     i2_UART1_DefaultOverrunErrorHandler:
  7567                           	callstack 17
  7568   001C3A  0012               	return		;funcret
  7569   001C3C                     __end_ofi2_UART1_DefaultOverrunErrorHandler:
  7570                           	callstack 0
  7571                           
  7572 ;; *************** function i2_UART1_DefaultFramingErrorHandler *****************
  7573 ;; Defined at:
  7574 ;;		line 188 in file "mcc_generated_files/uart1.c"
  7575 ;; Parameters:    Size  Location     Type
  7576 ;;		None
  7577 ;; Auto vars:     Size  Location     Type
  7578 ;;		None
  7579 ;; Return value:  Size  Location     Type
  7580 ;;                  1    wreg      void 
  7581 ;; Registers used:
  7582 ;;		None
  7583 ;; Tracked objects:
  7584 ;;		On entry : 0/0
  7585 ;;		On exit  : 0/0
  7586 ;;		Unchanged: 0/0
  7587 ;; Data sizes:     COMRAM   BANK0   BANK1   BANK2   BANK3   BANK4   BANK5   BANK6   BANK7
  7588 ;;      Params:         0       0       0       0       0       0       0       0       0
  7589 ;;      Locals:         0       0       0       0       0       0       0       0       0
  7590 ;;      Temps:          0       0       0       0       0       0       0       0       0
  7591 ;;      Totals:         0       0       0       0       0       0       0       0       0
  7592 ;;Total ram usage:        0 bytes
  7593 ;; Hardware stack levels used: 1
  7594 ;; This function calls:
  7595 ;;		Nothing
  7596 ;; This function is called by:
  7597 ;;		i2_UART1_Read
  7598 ;;		_UART1_Read
  7599 ;; This function uses a non-reentrant model
  7600 ;;
  7601                           
  7602                           	psect	text79
  7603   001C3C                     __ptext79:
  7604                           	callstack 0
  7605   001C3C                     i2_UART1_DefaultFramingErrorHandler:
  7606                           	callstack 17
  7607   001C3C  0012               	return		;funcret
  7608   001C3E                     __end_ofi2_UART1_DefaultFramingErrorHandler:
  7609                           	callstack 0
  7610                           
  7611 ;; *************** function i2_UART1_DefaultErrorHandler *****************
  7612 ;; Defined at:
  7613 ;;		line 192 in file "mcc_generated_files/uart1.c"
  7614 ;; Parameters:    Size  Location     Type
  7615 ;;		None
  7616 ;; Auto vars:     Size  Location     Type
  7617 ;;		None
  7618 ;; Return value:  Size  Location     Type
  7619 ;;                  1    wreg      void 
  7620 ;; Registers used:
  7621 ;;		None
  7622 ;; Tracked objects:
  7623 ;;		On entry : 0/0
  7624 ;;		On exit  : 0/0
  7625 ;;		Unchanged: 0/0
  7626 ;; Data sizes:     COMRAM   BANK0   BANK1   BANK2   BANK3   BANK4   BANK5   BANK6   BANK7
  7627 ;;      Params:         0       0       0       0       0       0       0       0       0
  7628 ;;      Locals:         0       0       0       0       0       0       0       0       0
  7629 ;;      Temps:          0       0       0       0       0       0       0       0       0
  7630 ;;      Totals:         0       0       0       0       0       0       0       0       0
  7631 ;;Total ram usage:        0 bytes
  7632 ;; Hardware stack levels used: 1
  7633 ;; This function calls:
  7634 ;;		Nothing
  7635 ;; This function is called by:
  7636 ;;		i2_UART1_Read
  7637 ;;		_UART1_Read
  7638 ;; This function uses a non-reentrant model
  7639 ;;
  7640                           
  7641                           	psect	text80
  7642   001C3E                     __ptext80:
  7643                           	callstack 0
  7644   001C3E                     i2_UART1_DefaultErrorHandler:
  7645                           	callstack 17
  7646   001C3E  0012               	return		;funcret
  7647   001C40                     __end_ofi2_UART1_DefaultErrorHandler:
  7648                           	callstack 0
  7649                           
  7650 ;; *************** function i2_TMR0_Initialize *****************
  7651 ;; Defined at:
  7652 ;;		line 60 in file "mcc_generated_files/tmr0.c"
  7653 ;; Parameters:    Size  Location     Type
  7654 ;;		None
  7655 ;; Auto vars:     Size  Location     Type
  7656 ;;		None
  7657 ;; Return value:  Size  Location     Type
  7658 ;;                  1    wreg      void 
  7659 ;; Registers used:
  7660 ;;		wreg, status,2
  7661 ;; Tracked objects:
  7662 ;;		On entry : 0/0
  7663 ;;		On exit  : 0/0
  7664 ;;		Unchanged: 0/0
  7665 ;; Data sizes:     COMRAM   BANK0   BANK1   BANK2   BANK3   BANK4   BANK5   BANK6   BANK7
  7666 ;;      Params:         0       0       0       0       0       0       0       0       0
  7667 ;;      Locals:         0       0       0       0       0       0       0       0       0
  7668 ;;      Temps:          0       0       0       0       0       0       0       0       0
  7669 ;;      Totals:         0       0       0       0       0       0       0       0       0
  7670 ;;Total ram usage:        0 bytes
  7671 ;; Hardware stack levels used: 1
  7672 ;; This function calls:
  7673 ;;		Nothing
  7674 ;; This function is called by:
  7675 ;;		i2_mdb_comm
  7676 ;; This function uses a non-reentrant model
  7677 ;;
  7678                           
  7679                           	psect	text81
  7680   001ACC                     __ptext81:
  7681                           	callstack 0
  7682   001ACC                     i2_TMR0_Initialize:
  7683                           	callstack 18
  7684   001ACC                     
  7685                           ;mcc_generated_files/tmr0.c: 65:     T0CON1 = 0x80;
  7686   001ACC  0E80               	movlw	128
  7687   001ACE  6EB9               	movwf	185,c	;volatile
  7688                           
  7689                           ;mcc_generated_files/tmr0.c: 68:     TMR0H = 0x9A;
  7690   001AD0  0E9A               	movlw	154
  7691   001AD2  6EB7               	movwf	183,c	;volatile
  7692                           
  7693                           ;mcc_generated_files/tmr0.c: 71:     TMR0L = 0x00;
  7694   001AD4  0E00               	movlw	0
  7695   001AD6  6EB6               	movwf	182,c	;volatile
  7696   001AD8                     
  7697                           ;mcc_generated_files/tmr0.c: 74:     PIR3bits.TMR0IF = 0;
  7698   001AD8  0139               	movlb	57	; () banked
  7699   001ADA  9FA3               	bcf	163,7,b	;volatile
  7700                           
  7701                           ;mcc_generated_files/tmr0.c: 77:     T0CON0 = 0x80;
  7702   001ADC  0E80               	movlw	128
  7703   001ADE  6EB8               	movwf	184,c	;volatile
  7704   001AE0                     
  7705                           ; BSR set to: 57
  7706   001AE0  0012               	return		;funcret
  7707   001AE2                     __end_ofi2_TMR0_Initialize:
  7708                           	callstack 0
  7709                           
  7710                           ;
  7711                           ; Interrupt Vector Table @ 0x8
  7712                           ;
  7713                           
  7714                           	psect	ivt0x8
  7715   000008                     __pivt0x8:
  7716                           	callstack 0
  7717   000008                     ivt0x8_base:
  7718                           	callstack 0
  7719                           
  7720                           ; high-priority vector
  7721   000008  EF5B  F00B         	goto	_INTERRUPT_InterruptManager
  7722   000018                     	org	16
  7723                           
  7724                           ; low-priority vector
  7725   000018  00FF               	reset	
  7726                           
  7727                           	psect	text82
  7728   000000                     __ptext82:
  7729                           	callstack 0
  7730   000000                     
  7731                           	psect	rparam
  7732   000000                     
  7733                           	psect	idloc
  7734                           
  7735                           ;Config register IDLOC0 @ 0x200000
  7736                           ;	unspecified, using default values
  7737   200000                     	org	2097152
  7738   200000  0FFF               	dw	4095
  7739                           
  7740                           ;Config register IDLOC1 @ 0x200002
  7741                           ;	unspecified, using default values
  7742   200002                     	org	2097154
  7743   200002  0FFF               	dw	4095
  7744                           
  7745                           ;Config register IDLOC2 @ 0x200004
  7746                           ;	unspecified, using default values
  7747   200004                     	org	2097156
  7748   200004  0FFF               	dw	4095
  7749                           
  7750                           ;Config register IDLOC3 @ 0x200006
  7751                           ;	unspecified, using default values
  7752   200006                     	org	2097158
  7753   200006  0FFF               	dw	4095
  7754                           
  7755                           ;Config register IDLOC4 @ 0x200008
  7756                           ;	unspecified, using default values
  7757   200008                     	org	2097160
  7758   200008  0FFF               	dw	4095
  7759                           
  7760                           ;Config register IDLOC5 @ 0x20000A
  7761                           ;	unspecified, using default values
  7762   20000A                     	org	2097162
  7763   20000A  0FFF               	dw	4095
  7764                           
  7765                           ;Config register IDLOC6 @ 0x20000C
  7766                           ;	unspecified, using default values
  7767   20000C                     	org	2097164
  7768   20000C  0FFF               	dw	4095
  7769                           
  7770                           ;Config register IDLOC7 @ 0x20000E
  7771                           ;	unspecified, using default values
  7772   20000E                     	org	2097166
  7773   20000E  0FFF               	dw	4095
  7774                           
  7775                           	psect	config
  7776                           
  7777                           ;Config register CONFIG1L @ 0x300000
  7778                           ;	External Oscillator Selection
  7779                           ;	FEXTOSC = OFF, Oscillator not enabled
  7780                           ;	Reset Oscillator Selection
  7781                           ;	RSTOSC = HFINTOSC_64MHZ, HFINTOSC with HFFRQ = 64 MHz and CDIV = 1:1
  7782   300000                     	org	3145728
  7783   300000  8C                 	db	140
  7784                           
  7785                           ;Config register CONFIG1H @ 0x300001
  7786                           ;	Clock out Enable bit
  7787                           ;	CLKOUTEN = OFF, CLKOUT function is disabled
  7788                           ;	PRLOCKED One-Way Set Enable bit
  7789                           ;	PR1WAY = OFF, PRLOCK bit can be set and cleared repeatedly
  7790                           ;	Clock Switch Enable bit
  7791                           ;	CSWEN = ON, Writing to NOSC and NDIV is allowed
  7792                           ;	Fail-Safe Clock Monitor Enable bit
  7793                           ;	FCMEN = ON, Fail-Safe Clock Monitor enabled
  7794   300001                     	org	3145729
  7795   300001  FD                 	db	253
  7796                           
  7797                           ;Config register CONFIG2L @ 0x300002
  7798                           ;	MCLR Enable bit
  7799                           ;	MCLRE = EXTMCLR, If LVP = 0, MCLR pin is MCLR; If LVP = 1, RE3 pin function is MCLR
  7800                           ;	Power-up timer selection bits
  7801                           ;	PWRTS = PWRT_OFF, PWRT is disabled
  7802                           ;	Multi-vector enable bit
  7803                           ;	MVECEN = OFF, Interrupt contoller does not use vector table to prioritze interrupts
  7804                           ;	IVTLOCK bit One-way set enable bit
  7805                           ;	IVT1WAY = OFF, IVTLOCK bit can be cleared and set repeatedly
  7806                           ;	Low Power BOR Enable bit
  7807                           ;	LPBOREN = OFF, ULPBOR disabled
  7808                           ;	Brown-out Reset Enable bits
  7809                           ;	BOREN = NOSLP, Brown-out Reset enabled while running, disabled in Sleep; SBOREN is ign
      +                          ored
  7810   300002                     	org	3145730
  7811   300002  A7                 	db	167
  7812                           
  7813                           ;Config register CONFIG2H @ 0x300003
  7814                           ;	Brown-out Reset Voltage Selection bits
  7815                           ;	BORV = VBOR_2P85, Brown-out Reset Voltage (VBOR) set to 2.8V
  7816                           ;	ZCD Disable bit
  7817                           ;	ZCD = OFF, ZCD disabled. ZCD can be enabled by setting the ZCDSEN bit of ZCDCON
  7818                           ;	PPSLOCK bit One-Way Set Enable bit
  7819                           ;	PPS1WAY = OFF, PPSLOCK bit can be set and cleared repeatedly (subject to the unlock se
      +                          quence)
  7820                           ;	Stack Full/Underflow Reset Enable bit
  7821                           ;	STVREN = ON, Stack full/underflow will cause Reset
  7822                           ;	Debugger Enable bit
  7823                           ;	DEBUG = OFF, Background debugger disabled
  7824                           ;	Extended Instruction Set Enable bit
  7825                           ;	XINST = OFF, Extended Instruction Set and Indexed Addressing Mode disabled
  7826   300003                     	org	3145731
  7827   300003  F4                 	db	244
  7828                           
  7829                           ;Config register CONFIG3L @ 0x300004
  7830                           ;	WDT Period selection bits
  7831                           ;	WDTCPS = WDTCPS_31, Divider ratio 1:65536; software control of WDTPS
  7832                           ;	WDT operating mode
  7833                           ;	WDTE = OFF, WDT Disabled; SWDTEN is ignored
  7834   300004                     	org	3145732
  7835   300004  9F                 	db	159
  7836                           
  7837                           ;Config register CONFIG3H @ 0x300005
  7838                           ;	WDT Window Select bits
  7839                           ;	WDTCWS = WDTCWS_7, window always open (100%); software control; keyed access not requi
      +                          red
  7840                           ;	WDT input clock selector
  7841                           ;	WDTCCS = SC, Software Control
  7842   300005                     	org	3145733
  7843   300005  FF                 	db	255
  7844                           
  7845                           ;Config register CONFIG4L @ 0x300006
  7846                           ;	Boot Block Size selection bits
  7847                           ;	BBSIZE = BBSIZE_512, Boot Block size is 512 words
  7848                           ;	Boot Block enable bit
  7849                           ;	BBEN = OFF, Boot block disabled
  7850                           ;	Storage Area Flash enable bit
  7851                           ;	SAFEN = OFF, SAF disabled
  7852                           ;	Application Block write protection bit
  7853                           ;	WRTAPP = OFF, Application Block not write protected
  7854   300006                     	org	3145734
  7855   300006  FF                 	db	255
  7856                           
  7857                           ;Config register CONFIG4H @ 0x300007
  7858                           ;	Boot Block Write Protection bit
  7859                           ;	WRTB = OFF, Boot Block not write-protected
  7860                           ;	Configuration Register Write Protection bit
  7861                           ;	WRTC = OFF, Configuration registers not write-protected
  7862                           ;	Data EEPROM Write Protection bit
  7863                           ;	WRTD = OFF, Data EEPROM not write-protected
  7864                           ;	SAF Write protection bit
  7865                           ;	WRTSAF = OFF, SAF not Write Protected
  7866                           ;	Low Voltage Programming Enable bit
  7867                           ;	LVP = ON, Low voltage programming enabled. MCLR/VPP pin function is MCLR. MCLRE config
      +                          uration bit is ignored
  7868   300007                     	org	3145735
  7869   300007  FF                 	db	255
  7870                           
  7871                           ;Config register CONFIG5L @ 0x300008
  7872                           ;	PFM and Data EEPROM Code Protection bit
  7873                           ;	CP = OFF, PFM and Data EEPROM code protection disabled
  7874   300008                     	org	3145736
  7875   300008  FF                 	db	255
  7876                           
  7877                           ;Config register CONFIG5H @ 0x300009
  7878                           ;	unspecified, using default values
  7879   300009                     	org	3145737
  7880   300009  FF                 	db	255
  7881                           tosu	equ	0x3FFF
  7882                           tosh	equ	0x3FFE
  7883                           tosl	equ	0x3FFD
  7884                           stkptr	equ	0x3FFC
  7885                           pclatu	equ	0x3FFB
  7886                           pclath	equ	0x3FFA
  7887                           pcl	equ	0x3FF9
  7888                           tblptru	equ	0x3FF8
  7889                           tblptrh	equ	0x3FF7
  7890                           tblptrl	equ	0x3FF6
  7891                           tablat	equ	0x3FF5
  7892                           prodh	equ	0x3FF4
  7893                           prodl	equ	0x3FF3
  7894                           indf0	equ	0x3FEF
  7895                           postinc0	equ	0x3FEE
  7896                           postdec0	equ	0x3FED
  7897                           preinc0	equ	0x3FEC
  7898                           plusw0	equ	0x3FEB
  7899                           fsr0h	equ	0x3FEA
  7900                           fsr0l	equ	0x3FE9
  7901                           wreg	equ	0x3FE8
  7902                           indf1	equ	0x3FE7
  7903                           postinc1	equ	0x3FE6
  7904                           postdec1	equ	0x3FE5
  7905                           preinc1	equ	0x3FE4
  7906                           plusw1	equ	0x3FE3
  7907                           fsr1h	equ	0x3FE2
  7908                           fsr1l	equ	0x3FE1
  7909                           bsr	equ	0x3FE0
  7910                           indf2	equ	0x3FDF
  7911                           postinc2	equ	0x3FDE
  7912                           postdec2	equ	0x3FDD
  7913                           preinc2	equ	0x3FDC
  7914                           plusw2	equ	0x3FDB
  7915                           fsr2h	equ	0x3FDA
  7916                           fsr2l	equ	0x3FD9
  7917                           status	equ	0x3FD8

Data Sizes:
    Strings     0
    Constant    49
    Data        1
    BSS         74
    Persistent  0
    Stack       0

Auto Spaces:
    Space          Size  Autos    Used
    COMRAM           95     30      72
    BANK0           160      0      33
    BANK1           256      0       0
    BANK2           256      0       0
    BANK3           256      0       0
    BANK4           256      0       0
    BANK5           256      0       0
    BANK6           256      0       0
    BANK7           256      0       0

Pointer List with Targets:

    Set_Timeout@timeval	PTR unsigned char  size(2) Largest target is 2
		 -> timeout(COMRAM[2]), 

    vend_init@timeval	PTR unsigned char  size(2) Largest target is 2
		 -> timeout(COMRAM[2]), 

    TMR2_SetInterruptHandler@InterruptHandler	PTR FTN()void  size(2) Largest target is 1
		 -> InterruptTMR2(), TMR2_DefaultInterruptHandler(), 

    TMR2_InterruptHandler	PTR FTN()void  size(2) Largest target is 1
		 -> InterruptTMR2(), Absolute function(), TMR2_DefaultInterruptHandler(), 

    UART2_SetErrorHandler@interruptHandler	PTR FTN()void  size(2) Largest target is 1
		 -> UART2_DefaultErrorHandler(), 

    UART2_SetOverrunErrorHandler@interruptHandler	PTR FTN()void  size(2) Largest target is 1
		 -> UART2_DefaultOverrunErrorHandler(), 

    UART2_SetFramingErrorHandler@interruptHandler	PTR FTN()void  size(2) Largest target is 1
		 -> UART2_DefaultFramingErrorHandler(), 

    UART2_ErrorHandler	PTR FTN()void  size(2) Largest target is 1
		 -> Absolute function(), UART2_DefaultErrorHandler(), 

    UART2_OverrunErrorHandler	PTR FTN()void  size(2) Largest target is 1
		 -> Absolute function(), UART2_DefaultOverrunErrorHandler(), 

    UART2_FramingErrorHandler	PTR FTN()void  size(2) Largest target is 1
		 -> Absolute function(), UART2_DefaultFramingErrorHandler(), 

    UART1_SetErrorHandler@interruptHandler	PTR FTN()void  size(2) Largest target is 1
		 -> UART1_DefaultErrorHandler(), 

    UART1_SetOverrunErrorHandler@interruptHandler	PTR FTN()void  size(2) Largest target is 1
		 -> UART1_DefaultOverrunErrorHandler(), 

    UART1_SetFramingErrorHandler@interruptHandler	PTR FTN()void  size(2) Largest target is 1
		 -> UART1_DefaultFramingErrorHandler(), 

    UART1_ErrorHandler	PTR FTN()void  size(2) Largest target is 1
		 -> i2_UART1_DefaultErrorHandler(), Absolute function(), UART1_DefaultErrorHandler(), 

    UART1_OverrunErrorHandler	PTR FTN()void  size(2) Largest target is 1
		 -> i2_UART1_DefaultOverrunErrorHandler(), Absolute function(), UART1_DefaultOverrunErrorHandler(), 

    UART1_FramingErrorHandler	PTR FTN()void  size(2) Largest target is 1
		 -> i2_UART1_DefaultFramingErrorHandler(), Absolute function(), UART1_DefaultFramingErrorHandler(), 


Critical Paths under _main in COMRAM

    _main->_enter_service
    _vend_init->_DATAEE_ReadByte
    _mdb_init->_mdb_reset
    _mdb_security->_mdb_comm
    _mdb_reset->_mdb_comm
    _mdb_noten->_mdb_comm
    _mdb_comm->_init_mdbdata
    _mdb_comm->_mdb_transmit
    _mdb_transmit->_UART1_Write
    _enter_service->_Set_Timeout
    _button_flash->_TMR3_Initialize
    _Set_Timeout->_TMR1_ReadTimer
    _dispense->_credit_subtract
    _credit_subtract->_DATAEE_WriteByte
    _coin_in->_credit_add
    _credit_check->_DATAEE_ReadByte
    _credit_add->_DATAEE_WriteByte
    _SYSTEM_Initialize->_TMR1_Initialize
    _SYSTEM_Initialize->_TMR3_Initialize
    _SYSTEM_Initialize->_TMR5_Initialize
    _UART2_Initialize->_UART2_SetErrorHandler
    _UART2_Initialize->_UART2_SetFramingErrorHandler
    _UART2_Initialize->_UART2_SetOverrunErrorHandler
    _UART1_Initialize->_UART1_SetErrorHandler
    _UART1_Initialize->_UART1_SetFramingErrorHandler
    _UART1_Initialize->_UART1_SetOverrunErrorHandler
    _TMR2_Initialize->_TMR2_SetInterruptHandler

Critical Paths under _INTERRUPT_InterruptManager in COMRAM

    _InterruptTMR2->_poll_mdb
    i2_TMR2_Initialize->i2_TMR2_SetInterruptHandler
    _poll_mdb->i2_mdb_init
    i2_mdb_init->i2_mdb_reset
    i2_mdb_security->i2_mdb_comm
    i2_mdb_reset->i2_mdb_comm
    i2_mdb_noten->i2_mdb_comm
    i2_credit_add->i2_DATAEE_WriteByte
    _mdb_poll->i2_mdb_comm
    i2_mdb_comm->i2_init_mdbdata
    i2_mdb_comm->i2_mdb_transmit
    i2_mdb_transmit->i2_UART1_Write

Critical Paths under _main in BANK0

    None.

Critical Paths under _INTERRUPT_InterruptManager in BANK0

    None.

Critical Paths under _main in BANK1

    None.

Critical Paths under _INTERRUPT_InterruptManager in BANK1

    None.

Critical Paths under _main in BANK2

    None.

Critical Paths under _INTERRUPT_InterruptManager in BANK2

    None.

Critical Paths under _main in BANK3

    None.

Critical Paths under _INTERRUPT_InterruptManager in BANK3

    None.

Critical Paths under _main in BANK4

    None.

Critical Paths under _INTERRUPT_InterruptManager in BANK4

    None.

Critical Paths under _main in BANK5

    None.

Critical Paths under _INTERRUPT_InterruptManager in BANK5

    None.

Critical Paths under _main in BANK6

    None.

Critical Paths under _INTERRUPT_InterruptManager in BANK6

    None.

Critical Paths under _main in BANK7

    None.

Critical Paths under _INTERRUPT_InterruptManager in BANK7

    None.

Call Graph Tables:

 ---------------------------------------------------------------------------------
 (Depth) Function   	        Calls       Base Space   Used Autos Params    Refs
 ---------------------------------------------------------------------------------
 (0) _main                                                 3     3      0   10774
                                             27 COMRAM     3     3      0
               _CMP1_GetOutputStatus
                   _DATAEE_WriteByte
                  _SYSTEM_Initialize
           _TMR2_SetInterruptHandler
                       _button_flash
                            _coin_in
                       _credit_check
                           _dispense
                      _enter_service
                           _mdb_init
                          _vend_init
 ---------------------------------------------------------------------------------
 (1) _vend_init                                            4     4      0      45
                                             14 COMRAM     4     4      0
                    _DATAEE_ReadByte
 ---------------------------------------------------------------------------------
 (1) _mdb_init                                             3     3      0    3871
                                             20 COMRAM     2     2      0
                    _DATAEE_ReadByte
                           _mdb_comm
                          _mdb_noten
                          _mdb_reset
                       _mdb_security
 ---------------------------------------------------------------------------------
 (2) _mdb_security                                         0     0      0    1001
                       _init_mdbdata
                           _mdb_comm
 ---------------------------------------------------------------------------------
 (2) _mdb_reset                                            3     3      0     942
                                             18 COMRAM     2     2      0
                           _mdb_comm
 ---------------------------------------------------------------------------------
 (2) _mdb_noten                                            0     0      0    1001
                       _init_mdbdata
                           _mdb_comm
 ---------------------------------------------------------------------------------
 (3) _mdb_comm                                             3     2      1     911
                                             15 COMRAM     3     2      1
                    _TMR0_Initialize
                         _UART1_Read
         _UART1_SetAddresstoTransmit
                       _init_mdbdata
                       _mdb_transmit
                          _mdb_waitr
 ---------------------------------------------------------------------------------
 (4) _mdb_waitr                                            0     0      0       0
 ---------------------------------------------------------------------------------
 (4) _mdb_transmit                                         1     1      0      44
                                             14 COMRAM     1     1      0
                        _UART1_Write
                          _mdb_waitx
 ---------------------------------------------------------------------------------
 (5) _mdb_waitx                                            0     0      0       0
 ---------------------------------------------------------------------------------
 (5) _UART1_Write                                          1     1      0      22
                                             13 COMRAM     1     1      0
 ---------------------------------------------------------------------------------
 (4) _init_mdbdata                                         2     2      0      90
                                             13 COMRAM     2     2      0
 ---------------------------------------------------------------------------------
 (4) _UART1_SetAddresstoTransmit                           1     1      0      22
                                             13 COMRAM     1     1      0
 ---------------------------------------------------------------------------------
 (4) _UART1_Read                                           0     0      0       0
                   Absolute function *
          _UART1_DefaultErrorHandler *
   _UART1_DefaultFramingErrorHandler *
   _UART1_DefaultOverrunErrorHandler *
 ---------------------------------------------------------------------------------
 (5) _UART1_DefaultOverrunErrorHandler                     0     0      0       0
 ---------------------------------------------------------------------------------
 (5) _UART1_DefaultFramingErrorHandler                     0     0      0       0
 ---------------------------------------------------------------------------------
 (5) _UART1_DefaultErrorHandler                            0     0      0       0
 ---------------------------------------------------------------------------------
 (14) Absolute function(Fake)                              0     0      0       0
 ---------------------------------------------------------------------------------
 (1) _enter_service                                        2     2      0    1966
                                             25 COMRAM     2     2      0
                   _DATAEE_WriteByte
                        _Set_Timeout
                       _button_flash
                        _switch_read
 ---------------------------------------------------------------------------------
 (2) _button_flash                                         1     1      0       0
                                             15 COMRAM     1     1      0
                    _TMR3_Initialize
 ---------------------------------------------------------------------------------
 (2) _Set_Timeout                                          4     4      0    1063
                                             21 COMRAM     4     4      0
                   _DATAEE_WriteByte
                    _TMR1_Initialize
                     _TMR1_ReadTimer
                     _TMR1_StopTimer
 ---------------------------------------------------------------------------------
 (3) _TMR1_ReadTimer                                       8     6      2      69
                                             13 COMRAM     8     6      2
 ---------------------------------------------------------------------------------
 (1) _dispense                                             0     0      0    2083
                   _DATAEE_WriteByte
                    _TMR1_Initialize
                    _TMR1_StartTimer
                     _TMR1_StopTimer
                    _TMR1_WriteTimer
                    _credit_subtract
 ---------------------------------------------------------------------------------
 (2) _credit_subtract                                      1     1      0     940
                                             16 COMRAM     1     1      0
                    _DATAEE_ReadByte
                   _DATAEE_WriteByte
 ---------------------------------------------------------------------------------
 (2) _TMR1_WriteTimer                                      2     0      2     240
                                             13 COMRAM     2     0      2
 ---------------------------------------------------------------------------------
 (3) _TMR1_StopTimer                                       0     0      0       0
 ---------------------------------------------------------------------------------
 (2) _TMR1_StartTimer                                      0     0      0       0
 ---------------------------------------------------------------------------------
 (1) _coin_in                                              1     1      0     955
                                             17 COMRAM     1     1      0
                    _TMR5_Initialize
                         _credit_add
                       _credit_check
                        _switch_read
 ---------------------------------------------------------------------------------
 (2) _switch_read                                          1     1      0       0
                                             13 COMRAM     1     1      0
 ---------------------------------------------------------------------------------
 (1) _credit_check                                         0     0      0      15
                    _DATAEE_ReadByte
 ---------------------------------------------------------------------------------
 (2) _credit_add                                           1     1      0     940
                                             16 COMRAM     1     1      0
                    _DATAEE_ReadByte
                   _DATAEE_WriteByte
 ---------------------------------------------------------------------------------
 (3) _DATAEE_WriteByte                                     3     2      1     903
                                             13 COMRAM     3     2      1
 ---------------------------------------------------------------------------------
 (2) _DATAEE_ReadByte                                      1     1      0      15
                                             13 COMRAM     1     1      0
 ---------------------------------------------------------------------------------
 (1) _SYSTEM_Initialize                                    0     0      0     762
                    _CMP1_Initialize
                    _DAC1_Initialize
               _INTERRUPT_Initialize
              _OSCILLATOR_Initialize
             _PIN_MANAGER_Initialize
                     _PMD_Initialize
                    _SPI1_Initialize
                    _TMR0_Initialize
                    _TMR1_Initialize
                    _TMR2_Initialize
                    _TMR3_Initialize
                    _TMR5_Initialize
                   _UART1_Initialize
                   _UART2_Initialize
 ---------------------------------------------------------------------------------
 (2) _UART2_Initialize                                     0     0      0     294
              _UART2_SetErrorHandler
       _UART2_SetFramingErrorHandler
       _UART2_SetOverrunErrorHandler
 ---------------------------------------------------------------------------------
 (3) _UART2_SetOverrunErrorHandler                         2     0      2      98
                                             13 COMRAM     2     0      2
 ---------------------------------------------------------------------------------
 (3) _UART2_SetFramingErrorHandler                         2     0      2      98
                                             13 COMRAM     2     0      2
 ---------------------------------------------------------------------------------
 (3) _UART2_SetErrorHandler                                2     0      2      98
                                             13 COMRAM     2     0      2
 ---------------------------------------------------------------------------------
 (2) _UART1_Initialize                                     0     0      0     294
              _UART1_SetErrorHandler
       _UART1_SetFramingErrorHandler
       _UART1_SetOverrunErrorHandler
 ---------------------------------------------------------------------------------
 (3) _UART1_SetOverrunErrorHandler                         2     0      2      98
                                             13 COMRAM     2     0      2
 ---------------------------------------------------------------------------------
 (3) _UART1_SetFramingErrorHandler                         2     0      2      98
                                             13 COMRAM     2     0      2
 ---------------------------------------------------------------------------------
 (3) _UART1_SetErrorHandler                                2     0      2      98
                                             13 COMRAM     2     0      2
 ---------------------------------------------------------------------------------
 (2) _TMR5_Initialize                                      2     2      0       0
                                             13 COMRAM     2     2      0
 ---------------------------------------------------------------------------------
 (3) _TMR3_Initialize                                      2     2      0       0
                                             13 COMRAM     2     2      0
 ---------------------------------------------------------------------------------
 (2) _TMR2_Initialize                                      0     0      0     174
           _TMR2_SetInterruptHandler
 ---------------------------------------------------------------------------------
 (1) _TMR2_SetInterruptHandler                             2     0      2     174
                                             13 COMRAM     2     0      2
 ---------------------------------------------------------------------------------
 (3) _TMR1_Initialize                                      2     2      0       0
                                             13 COMRAM     2     2      0
 ---------------------------------------------------------------------------------
 (4) _TMR0_Initialize                                      0     0      0       0
 ---------------------------------------------------------------------------------
 (2) _SPI1_Initialize                                      0     0      0       0
 ---------------------------------------------------------------------------------
 (2) _PMD_Initialize                                       0     0      0       0
 ---------------------------------------------------------------------------------
 (2) _PIN_MANAGER_Initialize                               0     0      0       0
 ---------------------------------------------------------------------------------
 (2) _OSCILLATOR_Initialize                                0     0      0       0
 ---------------------------------------------------------------------------------
 (2) _INTERRUPT_Initialize                                 0     0      0       0
 ---------------------------------------------------------------------------------
 (2) _DAC1_Initialize                                      0     0      0       0
 ---------------------------------------------------------------------------------
 (2) _CMP1_Initialize                                      0     0      0       0
 ---------------------------------------------------------------------------------
 (1) _CMP1_GetOutputStatus                                 0     0      0       0
 ---------------------------------------------------------------------------------
 Estimated maximum stack depth 14
 ---------------------------------------------------------------------------------
 (Depth) Function   	        Calls       Base Space   Used Autos Params    Refs
 ---------------------------------------------------------------------------------
 (6) _INTERRUPT_InterruptManager                           2     2      0    3355
                                             11 COMRAM     2     2      0
                           _TMR2_ISR
 ---------------------------------------------------------------------------------
 (7) _TMR2_ISR                                             0     0      0    3355
                   Absolute function *
                      _InterruptTMR2 *
       _TMR2_DefaultInterruptHandler *
 ---------------------------------------------------------------------------------
 (8) _TMR2_DefaultInterruptHandler                         0     0      0       0
 ---------------------------------------------------------------------------------
 (8) _InterruptTMR2                                        0     0      0    3355
                           _poll_mdb
                  i2_TMR2_Initialize
 ---------------------------------------------------------------------------------
 (9) i2_TMR2_Initialize                                    0     0      0      48
         i2_TMR2_SetInterruptHandler
 ---------------------------------------------------------------------------------
 (10) i2_TMR2_SetInterruptHandler                          2     0      2      48
                                              0 COMRAM     2     0      2
 ---------------------------------------------------------------------------------
 (9) _poll_mdb                                             2     2      0    3307
                                              9 COMRAM     2     2      0
                           _mdb_poll
                       i2_credit_add
                         i2_mdb_init
 ---------------------------------------------------------------------------------
 (10) i2_mdb_init                                          3     3      0    2582
                                              7 COMRAM     2     2      0
                  i2_DATAEE_ReadByte
                         i2_mdb_comm
                        i2_mdb_noten
                        i2_mdb_reset
                     i2_mdb_security
 ---------------------------------------------------------------------------------
 (11) i2_mdb_security                                      0     0      0     677
                     i2_init_mdbdata
                         i2_mdb_comm
 ---------------------------------------------------------------------------------
 (11) i2_mdb_reset                                         3     3      0     618
                                              5 COMRAM     2     2      0
                         i2_mdb_comm
 ---------------------------------------------------------------------------------
 (11) i2_mdb_noten                                         0     0      0     677
                     i2_init_mdbdata
                         i2_mdb_comm
 ---------------------------------------------------------------------------------
 (10) i2_credit_add                                        1     1      0     137
                                              3 COMRAM     1     1      0
                  i2_DATAEE_ReadByte
                 i2_DATAEE_WriteByte
 ---------------------------------------------------------------------------------
 (11) i2_DATAEE_WriteByte                                  3     2      1      93
                                              0 COMRAM     3     2      1
 ---------------------------------------------------------------------------------
 (11) i2_DATAEE_ReadByte                                   1     1      0      22
                                              0 COMRAM     1     1      0
 ---------------------------------------------------------------------------------
 (10) _mdb_poll                                            3     3      0     588
                                              5 COMRAM     2     2      0
                         i2_mdb_comm
 ---------------------------------------------------------------------------------
 (12) i2_mdb_comm                                          3     2      1     587
                                              2 COMRAM     3     2      1
                  i2_TMR0_Initialize
                       i2_UART1_Read
       i2_UART1_SetAddresstoTransmit
                     i2_init_mdbdata
                     i2_mdb_transmit
                        i2_mdb_waitr
 ---------------------------------------------------------------------------------
 (13) i2_mdb_waitr                                         0     0      0       0
 ---------------------------------------------------------------------------------
 (13) i2_mdb_transmit                                      1     1      0      44
                                              1 COMRAM     1     1      0
                      i2_UART1_Write
                        i2_mdb_waitx
 ---------------------------------------------------------------------------------
 (14) i2_mdb_waitx                                         0     0      0       0
 ---------------------------------------------------------------------------------
 (14) i2_UART1_Write                                       1     1      0      22
                                              0 COMRAM     1     1      0
 ---------------------------------------------------------------------------------
 (13) i2_init_mdbdata                                      2     2      0      90
                                              0 COMRAM     2     2      0
 ---------------------------------------------------------------------------------
 (13) i2_UART1_SetAddresstoTransmit                        1     1      0      22
                                              0 COMRAM     1     1      0
 ---------------------------------------------------------------------------------
 (13) i2_UART1_Read                                        0     0      0       0
                   Absolute function *
        i2_UART1_DefaultErrorHandler *
 i2_UART1_DefaultFramingErrorHandler *
 i2_UART1_DefaultOverrunErrorHandler *
 ---------------------------------------------------------------------------------
 (14) i2_UART1_DefaultOverrunErrorHandler                  0     0      0       0
 ---------------------------------------------------------------------------------
 (14) i2_UART1_DefaultFramingErrorHandler                  0     0      0       0
 ---------------------------------------------------------------------------------
 (14) i2_UART1_DefaultErrorHandler                         0     0      0       0
 ---------------------------------------------------------------------------------
 (14) Absolute function(Fake)                              0     0      0       0
 ---------------------------------------------------------------------------------
 (13) i2_TMR0_Initialize                                   0     0      0       0
 ---------------------------------------------------------------------------------
 Estimated maximum stack depth 14
 ---------------------------------------------------------------------------------

 Call Graph Graphs:

 _main (ROOT)
   _CMP1_GetOutputStatus
   _DATAEE_WriteByte
   _SYSTEM_Initialize
     _CMP1_Initialize
     _DAC1_Initialize
     _INTERRUPT_Initialize
     _OSCILLATOR_Initialize
     _PIN_MANAGER_Initialize
     _PMD_Initialize
     _SPI1_Initialize
     _TMR0_Initialize
     _TMR1_Initialize
     _TMR2_Initialize
       _TMR2_SetInterruptHandler
     _TMR3_Initialize
     _TMR5_Initialize
     _UART1_Initialize
       _UART1_SetErrorHandler
       _UART1_SetFramingErrorHandler
       _UART1_SetOverrunErrorHandler
     _UART2_Initialize
       _UART2_SetErrorHandler
       _UART2_SetFramingErrorHandler
       _UART2_SetOverrunErrorHandler
   _TMR2_SetInterruptHandler
   _button_flash
     _TMR3_Initialize
   _coin_in
     _TMR5_Initialize
     _credit_add
       _DATAEE_ReadByte
       _DATAEE_WriteByte
     _credit_check
       _DATAEE_ReadByte
     _switch_read
   _credit_check
   _dispense
     _DATAEE_WriteByte
     _TMR1_Initialize
     _TMR1_StartTimer
     _TMR1_StopTimer
     _TMR1_WriteTimer
     _credit_subtract
       _DATAEE_ReadByte
       _DATAEE_WriteByte
   _enter_service
     _DATAEE_WriteByte
     _Set_Timeout
       _DATAEE_WriteByte
       _TMR1_Initialize
       _TMR1_ReadTimer
       _TMR1_StopTimer
     _button_flash
     _switch_read
   _mdb_init
     _DATAEE_ReadByte
     _mdb_comm
       _TMR0_Initialize
       _UART1_Read
         Absolute function(Fake) *
         _UART1_DefaultErrorHandler *
         _UART1_DefaultFramingErrorHandler *
         _UART1_DefaultOverrunErrorHandler *
       _UART1_SetAddresstoTransmit
       _init_mdbdata
       _mdb_transmit
         _UART1_Write
         _mdb_waitx
       _mdb_waitr
     _mdb_noten
       _init_mdbdata
       _mdb_comm
     _mdb_reset
       _mdb_comm
     _mdb_security
       _init_mdbdata
       _mdb_comm
   _vend_init
     _DATAEE_ReadByte

 _INTERRUPT_InterruptManager (ROOT)
   _TMR2_ISR
     Absolute function(Fake) *
     _InterruptTMR2 *
       _poll_mdb
         _mdb_poll
           i2_mdb_comm
             i2_TMR0_Initialize
             i2_UART1_Read
               Absolute function(Fake) *
               i2_UART1_DefaultErrorHandler *
               i2_UART1_DefaultFramingErrorHandler *
               i2_UART1_DefaultOverrunErrorHandler *
             i2_UART1_SetAddresstoTransmit
             i2_init_mdbdata
             i2_mdb_transmit
               i2_UART1_Write
               i2_mdb_waitx
             i2_mdb_waitr
         i2_credit_add
           i2_DATAEE_ReadByte
           i2_DATAEE_WriteByte
         i2_mdb_init
           i2_DATAEE_ReadByte
           i2_mdb_comm
           i2_mdb_noten
             i2_init_mdbdata
             i2_mdb_comm
           i2_mdb_reset
             i2_mdb_comm
           i2_mdb_security
             i2_init_mdbdata
             i2_mdb_comm
       i2_TMR2_Initialize
         i2_TMR2_SetInterruptHandler
     _TMR2_DefaultInterruptHandler *

 Address spaces:
Name               Size   Autos  Total    Cost      Usage
BIGRAM             7FF      0       0      69        0.0%
BITBIGSFRllhhhh    227      0       0      43        0.0%
BITBIGSFRllllll    194      0       0      67        0.0%
EEDATA             100      0       0       0        0.0%
BITBANK7           100      0       0      18        0.0%
BANK7              100      0       0      19        0.0%
BITBANK6           100      0       0      16        0.0%
BANK6              100      0       0      17        0.0%
BITBANK5           100      0       0      14        0.0%
BANK5              100      0       0      15        0.0%
BITBANK4           100      0       0      12        0.0%
BANK4              100      0       0      13        0.0%
BITBANK3           100      0       0      10        0.0%
BANK3              100      0       0      11        0.0%
BITBANK2           100      0       0       8        0.0%
BANK2              100      0       0       9        0.0%
BITBANK1           100      0       0       6        0.0%
BANK1              100      0       0       7        0.0%
BITBIGSFRhlhlll     D7      0       0      27        0.0%
BITBIGSFRllhhhh     B3      0       0      39        0.0%
BITBIGSFRllhhhh     A1      0       0      30        0.0%
BITBANK0            A0      0       0       4        0.0%
BANK0               A0      0      21       5       20.6%
BITCOMRAM           5F      0       0       0        0.0%
COMRAM              5F     1E      48       1       75.8%
BITBIGSFRllhhhl     59      0       0      46        0.0%
BITBIGSFRlllllh     2E      0       0      53        0.0%
BITBIGSFRllllll     22      0       0      56        0.0%
BITBIGSFRhhhlhl     1D      0       0      22        0.0%
BITBIGSFRhll        1D      0       0      28        0.0%
BITBIGSFRllllll     17      0       0      62        0.0%
BITBIGSFRllhlh      15      0       0      48        0.0%
BITBIGSFRllllll     11      0       0      61        0.0%
BITBIGSFRllllll      B      0       0      66        0.0%
BITBIGSFRllllh       B      0       0      52        0.0%
BITBIGSFRhhhllh      7      0       0      23        0.0%
BITBIGSFRhhhh        7      0       0      20        0.0%
BITBIGSFRhlhlll      6      0       0      26        0.0%
BITBIGSFRllhhhh      5      0       0      33        0.0%
BITBIGSFRllhhhl      5      0       0      45        0.0%
BITBIGSFRlllhl       5      0       0      51        0.0%
BITBIGSFRllhll       5      0       0      49        0.0%
BITBIGSFRhhhlll      5      0       0      24        0.0%
BITBIGSFRhhl         5      0       0      25        0.0%
BITBIGSFRlllhh       4      0       0      50        0.0%
BITBIGSFRhhhlhh      3      0       0      21        0.0%
BITBIGSFRlllllh      3      0       0      54        0.0%
BITBIGSFRllhhhh      2      0       0      40        0.0%
BITBIGSFRllhhhh      2      0       0      41        0.0%
BITBIGSFRllllll      2      0       0      58        0.0%
BITBIGSFRllhhhl      2      0       0      44        0.0%
BITBIGSFRlllllh      2      0       0      55        0.0%
BITBIGSFRllhhl       2      0       0      47        0.0%
BITBIGSFRllhhhh      1      0       0      37        0.0%
BITBIGSFRllhhhh      1      0       0      38        0.0%
BITBIGSFRllhhhh      1      0       0      34        0.0%
BITBIGSFRllhhhh      1      0       0      35        0.0%
BITBIGSFRllhhhh      1      0       0      36        0.0%
BITBIGSFRllhhhh      1      0       0      31        0.0%
BITBIGSFRllhhhh      1      0       0      32        0.0%
BITBIGSFRllhhhh      1      0       0      42        0.0%
BITBIGSFRllllll      1      0       0      63        0.0%
BITBIGSFRllllll      1      0       0      64        0.0%
BITBIGSFRllllll      1      0       0      59        0.0%
BITBIGSFRllllll      1      0       0      60        0.0%
BITBIGSFRllllll      1      0       0      65        0.0%
BITBIGSFRllllll      1      0       0      57        0.0%
BITBIGSFRlh          1      0       0      29        0.0%
BIGSFR               0      0       0     200        0.0%
BITSFR_8             0      0       0     200        0.0%
SFR_8                0      0       0     200        0.0%
BITSFR_7             0      0       0     200        0.0%
SFR_7                0      0       0     200        0.0%
BITSFR_6             0      0       0     200        0.0%
SFR_6                0      0       0     200        0.0%
BITSFR_5             0      0       0     200        0.0%
SFR_5                0      0       0     200        0.0%
BITSFR_4             0      0       0     200        0.0%
SFR_4                0      0       0     200        0.0%
BITSFR_3             0      0       0     200        0.0%
SFR_3                0      0       0     200        0.0%
BITSFR_2             0      0       0     200        0.0%
SFR_2                0      0       0     200        0.0%
BITSFR_1             0      0       0     200        0.0%
SFR_1                0      0       0     200        0.0%
BITSFR               0      0       0     200        0.0%
SFR                  0      0       0     200        0.0%
STACK                0      0       0       2        0.0%
NULL                 0      0       0       0        0.0%
ABS                  0      0      69      68        0.0%
DATA                 0      0      69       3        0.0%
CODE                 0      0       0       0        0.0%


Microchip Technology PIC18 Macro Assembler V2.40 build 20220703182018 
Symbol Table                                                                                   Sun Aug 21 09:41:31 2022

            __end_of_TMR2_SetInterruptHandler 1C18                                             l7 1BC6  
                           ??_CMP1_Initialize 0037                                            l86 1262  
                       __end_ofi2_UART1_Write 1A88                               _DAC1_Initialize 1BBC  
                                         l102 1AF4                                           l105 1ACA  
                                         l300 1796                                           l222 172A  
                                         l225 1A9E                                           l402 1A52  
                                         l162 1A38                                           l251 17CC  
                                         l228 1A04                                           l156 1596  
                                         l260 19E0                                           l158 15A4  
                                         l254 1C32                                           l159 15B0  
                                         l505 13BE                                           l257 1C2E  
                                         l265 190C                                           l522 0F0A  
                                         l531 1A08                                           l612 141A  
                                         l540 1BA2                                           l349 1760  
                                         l534 1A1E                                           l543 1B96  
                                         l552 1BF8                                           l528 0FA4  
                                         l537 1BD0                                           l546 1BAE  
                                         l555 1C0C                                           l549 1C02  
                                         l653 1BE4                                           l727 1938  
                                         l656 1BDA                                           l674 1AB4  
                                         l770 1C16                                           l659 1BEE  
                                         l784 1C36                                           l960 08FA  
                                         l961 0926                                           l953 08DA  
                                         l970 097E                                           l971 0980  
                                         l963 0934                                           l955 08DC  
                                         l972 0992                                           l965 093C  
                                         l974 09C0                                           l966 093A  
                                         l975 09BC                                           l977 09BE  
                                         l969 0960                                           _PR2 003FAB  
                                         u600 14F2                                           u601 14EE  
                                         u610 1502                                           u611 14FC  
                                         u620 1274                                           u621 126E  
                                         u630 1288                                           u622 1276  
                                         u631 1282                                           u640 129A  
                                         u632 128A                                           u616 1504  
                                         u641 1296                                           u730 1AC8  
                                         u650 12A8                                           u731 1AC2  
                                         u651 12A4                                           u660 12D8  
                                         u661 12D4                                           u590 14DA  
                                         u591 14D6                                           u736 1ACA  
                                         u790 11D2                                           u791 11CE  
                             _timer1ReloadVal 0017                               _TMR2_Initialize 190E  
                                         tosl 003FFD                                           wreg 003FE8  
                              ??_credit_check 0038                                 ?_mdb_security 002A  
                                        l1100 182C                                          l1103 12E6  
                                        l1112 132C                                          l1113 132E  
                                        l1105 130C                                          l1107 130A  
                                        l1131 0E4A                                          l1116 1356  
                                        l1150 10BE                                          l1126 151A  
                                        l1143 0ED6                                          l1071 115E  
                                        l1152 104A                                          l1320 1676  
                                        l3000 11A6                                          l1153 104C  
                                        l1137 0E92                                          l1082 1550  
                                        l1074 11D2                                          l3002 11BC  
                                        l1155 105C                                          l1147 0F08  
                                        l1411 1B1A                                          l1075 11D4  
                                        l1092 1BBA                                          l1164 12E0  
                                        l1420 1B18                                          l1165 12E4  
                                        l1317 18E0                                          l1405 0CDC  
                                        l1325 143A                                          l1077 11DA  
                                        l1158 10CE                                          l1414 1B2A  
                                        l1078 11DC                                          l1087 1568  
                                        l1327 1472                                          l1079 11DE  
                                        l1096 185A                                          l4000 0C5E  
                                        l1336 18B4                                          l1089 156A  
                                        l1417 1B08                                          l4010 0C9E  
                                        l4002 0C62                                          l1339 1B06  
                             _timer3ReloadVal 0015                                          l4100 18F0  
                                        l4020 0CDA                                          l4012 0CA0  
                                        l4004 0C64                                          l1429 1B6E  
                                        l4110 1906                                          l4102 18F2  
                                        l4014 0CAA                                          l4006 0C74  
                                        l4200 1706                                          l2520 1A22  
                                        l4120 1858                                          l4112 1830  
                                        l4104 18F6                                          l4016 0CB8  
                                        l4008 0C90                                          l4210 171A  
                                        l4202 170A                                          l2530 1A34  
                                        l2522 1A28                                          l4114 1838  
                                        l4106 18FC                                          l4130 182A  
                                        l4122 1802                                          l4018 0CD4  
                                        l1394 0C82                                          l2700 1236  
                                        l2540 1792                                          l4212 171E  
                                        l4204 170E                                          l2524 1A2E  
                                        l4116 183E                                          l4108 1902  
                                        l4124 180A                                          l4300 133E  
                                        l4140 107E                                          l4132 1042  
                                        l1389 0C02                                          l2710 1C34  
                                        l2702 1238                                          l2542 1798  
                                        l4070 1922                                          l2534 1762  
                                        l4214 1722                                          l4206 1712  
                                        l2526 1A30                                          l4118 1848  
                                        l2550 1C2C                                          l4126 1810  
                                        l4302 134E                                          l4142 1086  
                                        l4134 105E                                          l4150 141C  
                                        l4230 165C                                          l2704 123A  
                                        l2712 19E2                                          l2544 17AC  
                                        l4072 1926                                          l2536 1776  
                                        l4080 1396                                          l4216 1726  
                                        l4208 1716                                          l2528 1A32  
                                        l2800 12BC                                          l4128 181A  
                                        l4144 1096                                          l4136 1062  
                                        l4160 1468                                          l4152 1422  
                                        l4240 166C                                          l4232 165E  
                                        l4224 163A                                          l4320 08A0  
                                        l4312 0834                                          l2714 1A88  
                                        l2706 123C                                          l2546 17B0  
                                        l4074 1928                                          l2538 177A  
                                        l2730 1744                                          l4082 13A2  
                                        l4090 13F2                                          l2802 12CA  
                                        l4146 10A6                                          l4138 106E  
                                        l4250 0E58                                          l4242 0E2E  
                                        l4170 189A                                          l4154 142C  
                                        l4234 1660                                          l4226 1650  
                                        l4330 08B6                                          l4322 08AC  
                                        l4314 0884                                          l2708 1AE2  
                                        l2548 17C8                                          l4076 1934  
                                        l4068 190E                                          l2732 175C  
                                        l4084 13AE                                          l4092 13FE  
                                        l2812 12E2                                          l2804 12D8  
                                        l4148 10B0                                          l4260 0E9A  
                                        l4252 0E72                                          l4244 0E42  
                                        l4172 189E                                          l4164 188A  
                                        l4156 143C                                          l4180 1AF6  
                                        l4236 1664                                          l4228 1658  
                                        l4340 08C4                                          l4332 08B8  
                                        l4324 08AE                                          l4316 0898  
                                        l2726 172C                                          l4086 13BA  
                                        l4078 1358                                          l4094 140A  
                                        l4190 16F2                                          l2806 12DA  
                                        l4270 0EE4                                          l4262 0EAE  
                                        l4254 0E76                                          l4246 0E46  
                                        l4174 18A2                                          l4166 1890  
                                        l4158 1448                                          l4182 1AFC  
                                        l4238 1668                                          l4342 08D2  
                                        l4350 0912                                          l4334 08BA  
                                        l4326 08B0                                          l4318 089C  
                                        l2728 1740                                          l4096 1416  
                                        l4088 13C0                                          l4192 16F6  
                                        l4280 1522                                          l4272 0EEE  
                                        l4264 0EB0                                          l4256 0E84  
                                        l4248 0E48                                          l4176 18A6  
                                        l4168 1894                                          l4360 0990  
                                        l4352 094A                                          l4344 08DE  
                                        l4336 08BE                                          l4328 08B4  
                                        l2754 1A3A                                          l4194 16FA  
                                        l4098 18E2                                          l4290 12EC  
                                        l4274 0EF0                                          l4266 0EC4  
                                        l4258 0E94                                          l4178 18B2  
                                        l4362 09A0                                          l4354 094E  
                                        l4346 08F6                                          l4338 08C0  
                                        l2692 1BBC                                          l2756 1A50  
                                        l4196 16FE                                          l4284 1536  
                                        l4276 151C                                          l4292 12F0  
                                        l2780 14E0                                          l4268 0EC8  
                                        l4364 09AE                                          l4356 095C  
                                        l4348 08F8                                          l2694 11E0  
                                        l3742 1AA0                                          l4198 1702  
                                        l3910 156E                                          l2790 1BB8  
                                        l4286 154A                                          l4278 1520  
                                        l2758 1C30                                          l4294 12FC  
                                        l2782 14E2                                          l2774 14CC  
                                        l3750 0F1E                                          l3670 1A08  
                                        l4366 09CE                                          l4358 0978  
                                        l2696 1232                                          l3744 1AAC  
                                        l3920 158A                                          l3912 1576  
                                        l4296 1300                                          l4288 12E8  
                                        l2784 14F2                                          l2776 14DA  
                                        l3760 0F5C                                          l3752 0F2E  
                                        l3672 1A18                                          l4368 09DC  
                                        l2698 1234                                          l3922 158C  
                                        l3914 157C                                          l2794 1264  
                                        l4298 131C                                          l3930 19CC  
                                        l2786 1516                                          l2778 14DC  
                                        l3762 0F76                                          l3754 0F30  
                                        l3746 0F0A                                          l3770 1BCA  
                                        l3674 1B1A                                          l3940 1C04  
                                        l3924 1590                                          l3916 1582  
                                        l2788 1BB0                                          l2796 129A  
                                        l3932 19D8                                          l3764 0F86  
                                        l3756 0F4A                                          l3748 0F1A  
                                        l3780 18CE                                          l3772 18B8  
                                        l2894 1AB6                                          l3942 1BDC  
                                        l3926 1594                                          l3918 1588  
                                        l2798 12A8                                          l3766 0FA0  
                                        l3758 0F5A                                          l3782 18D0  
                                        l3950 0B90                                          l2990 1160  
                                        l3936 1BFA                                          l3944 1BD2  
                                        l3928 19BE                                          l3960 0BAE  
                                        l3952 0B90                                          l2992 1168  
                                        l3938 1BF0                                          l3946 1BE6  
                                        l3778 18BC                                          l3874 1B64  
                                        l3970 0BDC                                          l3962 0BB0  
                                        l3954 0B96                                          l2994 117C  
                                        l3948 1C0E                                          l3876 1B6A  
                                        l3980 0C16                                          l3972 0BEE  
                                        l3964 0BB4                                          l3956 0B98  
                                        l2996 1190                                          l2988 115A  
                                        l3878 1B08                                          l3990 0C32  
                                        l3982 0C1C                                          l3974 0BF0  
                                        l3966 0BC2                                          l3958 0BA8  
                                        l2998 1198                                          l3992 0C36  
                                        l3984 0C20                                          l3968 0BCA  
                                        l3976 0BF2                                          l3994 0C3C  
                                        l3986 0C28                                          l3978 0C10  
                                        l3996 0C4E                                          l3988 0C2A  
                                  i2_mdb_comm 0CDE                                          l3998 0C52  
                                  i2_mdb_init 1678                                          u2010 0E58  
                                        u2011 0E54                                          u2100 1568  
                                        u2020 0E84                                          u2101 1564  
                                        u2021 0E80                                          u2110 131C  
                                        u2030 0E92                                          u2111 1318  
                                        u2031 0E8E                                          u2120 132C  
                                        u2040 0EAE                                          u2200 08D2  
                                        u2121 1328                                          u2041 0EAA  
                                        u2201 08CE                                          u2130 133E  
                                        u2050 0EC4                                          u2210 0926  
                                        u2131 133A                                          u2051 0EC0  
                                        u2211 0922                                          u2060 0ED6  
                                        u2300 09CE                                          u2220 0934  
                                        u2061 0ED2                                          u2301 09CA  
                                        u2221 0930                                          _LATA 003FBA  
                                        u2070 0EE4                                          u2310 09DC  
                                        u2230 094A                                          _LATB 003FBB  
                                        u2071 0EE0                                          u2311 09D8  
                                        u2231 0946                                          _LATC 003FBC  
                                        u2080 1536                                          u2240 095C  
                                        u2160 0848                                          u2081 1532  
                                        u2241 0958                                          u2161 0842  
                                        u2090 154A                                          u2250 0978  
                                        u2170 084A                                          u2091 1546  
                                        u2251 0974                                          u2260 0990  
                                        u2180 0868                                          u2261 098C  
                                        u2181 0860                                          u1710 18E0  
                                        u2270 09A0                                          u2190 0884  
                                        u2407 12C2                                          u1711 18DC  
                                        u2271 099C                                          u2191 0880  
                                        u1640 0F1A                                          u1800 0C10  
                                        u2280 09AE                                          u1641 0F16  
                                        u1801 0C0C                                          u2281 09AA  
                                        u2337 08E8                                          u1650 0F2E  
                                        u1730 1B18                                          u2290 09BC  
                                        _T2PR 003FAB                                          u1651 0F2A  
                                        u1731 1B14                                          u2291 09B8  
                                        u2347 0904                                          u1708 0F8C  
                                        u1580 1A18                                          u1820 0C74  
                                        u2188 086A                                          u1709 0FA0  
                                        u1581 1A14                                          u1821 0C70  
                                        u2357 11B0                                          u1750 15A4  
                                        u1670 0F5A                                          u1590 1B2A  
                                        u1830 0C82                                          u1751 15A0  
                                        u1671 0F56                                          u1591 1B26  
                                        u1831 0C7E                                          u1815 0C5C  
                                        u2367 1644                                          u1920 18F0  
                                        u1840 0C90                                          u1921 18EC  
                                        u2377 0E62                                          u1841 0C8C  
                                        u1817 0C5E                                          u1930 1858  
                                        u1690 0F86                                          u1850 0C9E  
                                        u1770 0BA8                                          u1931 1854  
                                        u2387 0EFA                                          u1691 0F82  
                                        u1851 0C9A                                          u1771 0BA4  
                                        u1940 182A                                          u1668 0F36  
                                        u1780 0BC2                                          u1765 15AE  
                                        u2397 12AE                                          u1941 1826  
                                        u1669 0F4A                                          u1781 0BBE  
                                        u1766 15B0                                          u1950 105C  
                                        u1870 0CB8                                          u1790 0C02  
                                        u1951 1058                                          u1871 0CB4  
                                        u1791 0BFE                                          u1960 10CE  
                                        u1688 0F62                                          u1880 0CD4  
                                        u1961 10CA                                          u1689 0F76  
                                        u1881 0CD0                                          u1865 0CA8  
                                        u1970 143A                                          u1867 0CAA  
                                        u1971 1436                                          u1980 1468  
                                        _PMD0 0039C0                                          u1981 1464  
                                        _PMD1 0039C1                                          _PMD2 0039C2  
                                        _PMD3 0039C3                                          _PMD4 0039C4  
                                        _PMD5 0039C5                                          _PMD6 0039C6  
                                        _PMD7 0039C7                                          _TMR2 003FAA  
                                        _WPUA 003A41                                          _WPUB 003A51  
                                        _WPUC 003A61                                          _WPUE 003A81  
                                        _cash 0024                                          _main 0834  
                               ?_mdb_transmit 002A                                          fsr2h 003FDA  
                                        indf2 003FDF                                          fsr2l 003FD9  
                                        start 001A                               _timer5ReloadVal 0013  
                 ?_UART1_SetAddresstoTransmit 002A                               _TMR3_Initialize 1762  
                                ___param_bank 000000                                   ?_UART1_Read 002A  
                                 _switch_read 1264                       __end_of_TMR0_Initialize 1AB6  
               __end_of_OSCILLATOR_Initialize 1AA0                                         ?_main 002A  
                             _TMR1_StartTimer 1C30                                         _T1CLK 003FB5  
                                       _T1CON 003FB2                                         _U1P1H 003DED  
                                       _U1P2H 003DEF                                         _U1P3H 003DF1  
                                       _U1P1L 003DEC                                         _T3CLK 003FA9  
                                       _U1P2L 003DEE                                         _T2CON 003FAC  
                                       _U1P3L 003DF0                                         _U2P1L 003DD4  
                                       _U2P2L 003DD6                                         _T3CON 003FA6  
                                       _U2P3L 003DD8                                         _CMOUT 003EC0  
                                       _T5CLK 003F9D                                         _T2HLT 003FAD  
                                       _T5CON 003F9A                                   i2_mdb_reset 1474  
                                       _T2TMR 003FAA                                         _U1UIR 003DF8  
                                       _U1RXB 003DE8                                         _T2RST 003FAF  
                                 i2_mdb_noten 1966                                         _U2UIR 003DE0  
                                       _U1TXB 003DEA                                         _U2RXB 003DD0  
                                       _PCON0 003FF0                                         i2l162 1A6C  
                                       _U2TXB 003DD2                                         i2l156 15DC  
                                       i2l158 15EA                                         i2l159 15F6  
                                 i2_mdb_waitr 1B3E                                         i2l522 0FA6  
                                       i2l531 1A70                                         i2l540 1C3C  
                                       i2l534 1A86                                   i2_mdb_waitx 1B50  
                                       i2l543 1C3A                                         i2l528 1040  
                                       i2l537 1C2A                                         i2l546 1C3E  
                                       i2l727 1964                                         i2l674 1AE0  
                                       i2l770 1C20                                         i2l773 1C38  
                                       i2l767 17FE                                         i2l791 16E4  
                                       _OSCEN 0039DD                                         _TMR0H 003FB7  
                                       _TMR1H 003FB1                                         _TMR0L 003FB6  
                                       _TMR1L 003FB0                                         _TMR3H 003FA5  
                                       _TMR3L 003FA4                                         _TMR5H 003F99  
                                       _TMR5L 003F98                                         _TRISA 003FC2  
                                       _TRISB 003FC3                                         _TRISC 003FC4  
                             __end_of_cashint 080C                               __end_of_cashinv 0810  
                            ??i2_mdb_security 002F                         Set_Timeout@readValLow 003F  
                             __end_of_credmem 0816                               __end_of_coin_in 156C  
                            __end_of_TMR2_ISR 1800                               _DATAEE_ReadByte 1A20  
                              ??_mdb_security 003C                               __end_of_second1 081C  
                            ??i2_mdb_transmit 002B                       __end_of_TMR1_Initialize 17CE  
                                       pclath 003FFA                                         pclatu 003FFB  
                                       tablat 003FF5                               __end_of_sensval 0808  
                              ??_mdb_transmit 0038                                         status 003FD8  
       fp_i2_UART1_DefaultFramingErrorHandler 0000           fp__UART1_DefaultFramingErrorHandler 0000  
  __end_ofi2_UART1_DefaultFramingErrorHandler 1C3E      __end_of_UART1_DefaultFramingErrorHandler 1BA4  
          ??_UART1_DefaultFramingErrorHandler 0037          ??i2_UART1_DefaultFramingErrorHandler 002A  
         ?i2_UART1_DefaultFramingErrorHandler 002A             ?_UART1_DefaultFramingErrorHandler 002A  
          i2_UART1_DefaultFramingErrorHandler 1C3C              _UART1_DefaultFramingErrorHandler 1B98  
                             _TMR1_WriteTimer 18E2                               _TMR5_Initialize 172C  
              ??_UART2_SetOverrunErrorHandler 0039                  __end_of_CMP1_GetOutputStatus 1ACC  
                             __initialization 15F8                                  __end_of_main 09E8  
                     __end_of_DAC1_Initialize 1BC8                   ??_UART1_DefaultErrorHandler 0037  
                     __end_of_TMR2_Initialize 193A                   ?_INTERRUPT_InterruptManager 002A  
                          Set_Timeout@timeval 0041                                  ?_UART1_Write 002A  
                 ?i2_TMR2_SetInterruptHandler 002A                      _TMR2_SetInterruptHandler 1C0E  
                                      ??_main 0045                                 __activetblptr 000002  
                                i2_credit_add 185C                                   i2mdb_comm@i 002E  
                               _enter_service 0E2E                              _UART1_Initialize 1358  
                               ??_Set_Timeout 003F                                        _CM1NCH 003EBE  
                                      _CM1PCH 003EBF                                        _ANSELA 003A40  
                                      _ANSELB 003A50                                        _ANSELC 003A60  
                                 ?i2_mdb_comm 002C                                        _T0CON0 003FB8  
                                      _T0CON1 003FB9                                        _RB1I2C 003A5A  
                                 ?i2_mdb_init 002A                                        _T1GATE 003FB4  
                                      _RB2I2C 003A5B                                        _T1GCON 003FB3  
                                      _U1CON0 003DF2                                        _U1CON1 003DF3  
                                      _U1CON2 003DF4                                        _RC3I2C 003A6A  
                                      _T3GATE 003FA8                                        _RC4I2C 003A6B  
                                      _U1BRGH 003DF6                                        _U1FIFO 003DF7  
                                      _U2CON0 003DDA                                        _T3GCON 003FA7  
                                      _U2CON1 003DDB                                        _U2CON2 003DDC  
                                      _U1BRGL 003DF5                                        _U2BRGH 003DDE  
                                      _U2FIFO 003DDF                                        _U2BRGL 003DDD  
                                      _T5GATE 003F9C                                        _T5GCON 003F9B  
                                      _RB1PPS 003A09                           i2UART1_Write@txData 002A  
                                      _RC1PPS 003A11                                        _RB4PPS 003A0C  
                                      _RB5PPS 003A0D                       TMR1_WriteTimer@timerVal 0037  
                                      _ODCONA 003A42                                        _ODCONB 003A52  
                                      _ODCONC 003A62                              credit_add@credit 003A  
                     __end_of_TMR3_Initialize 1798                                        i2l1320 16B4  
                                      i2l1411 1B50                                        i2l1420 1B4E  
                                      i2l1317 19BC                                        i2l1405 0E2C  
                                      i2l1325 1492                                        i2l1414 1B60  
                                      i2l1350 1104                                        i2l1342 1B7C  
                                      i2l1327 14CA                                        i2l1096 1888  
                                      i2l1336 1990                                        i2l1417 1B3E  
                                      i2l1362 0B8C                                        i2l1339 1B3C  
                                      i2l1356 1158                                        i2l1429 1B8A  
                                      i2l1373 0B88                                        i2l4032 10F8  
                                      i2l4024 10D0                                        i2l1394 0DD2  
                                      i2l4034 10FC                                        i2l4050 1150  
                                      i2l4026 10D6                                        i2l4052 1156  
                                      i2l4028 10E6                                        i2l4060 194E  
                                      i2l4220 17D2                                        i2l1389 0D52  
                                      i2l4062 1952                                        i2l4222 17E4  
                                      i2l4310 16E0                                        i2l3600 0CE6  
                                      i2l4048 1116                                        i2l4064 1954  
                                      i2l3610 0D04                                        i2l3602 0CE8  
                                      i2l4066 1960                                        i2l4058 193A  
                                      i2l4218 17CE                                        i2l4306 16C2  
                                      i2l3620 0D40                                        i2l3612 0D12  
                                      i2l3604 0CF8                                        i2l3700 1A64  
                                      i2l4308 16D2                                        i2l3550 0FB6  
                                      i2l3542 1A70                                        i2l3630 0D70  
                                      i2l3614 0D1A                                        i2l3622 0D42  
                                      i2l3606 0CFE                                        i2l3702 1A66  
                                      i2l3710 147A                                        i2l3560 0FF6  
                                      i2l3552 0FBA                                        i2l3544 1A80  
                                      i2l3640 0D8C                                        i2l3632 0D78  
                                      i2l3624 0D60                                        i2l3616 0D2C  
                                      i2l3608 0D00                                        i2l3800 0A24  
                                      i2l3704 1A68                                        i2l3712 1484  
                                      i2l4184 1B70                                        i2l3562 0FF8  
                                      i2l3554 0FCA                                        i2l3546 1B50  
                                      i2l3642 0D9E                                        i2l3650 0DB4  
                                      i2l3634 0D7A                                        i2l3626 0D66  
                                      i2l3618 0D3E                                        i2l3730 197A  
                                      i2l3722 1966                                        i2l3714 1494  
                                      i2l4186 1B74                                        i2l3564 1012  
                                      i2l3556 0FCC                                        i2l3548 0FA6  
                                      i2l3572 1C24                                        i2l3660 0DFA  
                                      i2l3652 0DC4                                        i2l3644 0DA2  
                                      i2l3636 0D82                                        i2l3628 0D6C  
                                      i2l3812 0A42                                        i2l3804 0A2E  
                                      i2l3820 0A4E                                        i2l3732 197E  
                                      i2l3724 196C                                        i2l3716 14A0  
                                      i2l3708 1474                                        i2l3740 1B32  
                                      i2l3900 169C                                        i2l4188 1B78  
                                      i2l3574 1ACC                                        i2l3566 1022  
                                      i2l3558 0FE6                                        i2l3590 1B3E  
                                      i2l3662 0E08                                        i2l3654 0DE0  
                                      i2l3646 0DAE                                        i2l3638 0D86  
                                      i2l3830 0AAA                                        i2l3822 0A90  
                                      i2l3814 0A46                                        i2l3734 1982  
                                      i2l3726 1970                                        i2l3718 14C0  
                                      i2l3902 169E                                        i2l3576 1AD8  
                                      i2l3568 103C                                        i2l3584 1998  
                                      i2l3592 1B80                                        i2l3664 0E24  
                                      i2l3656 0DEE                                        i2l3648 0DB2  
                                      i2l4480 0B1A                                        i2l3840 0AC6  
                                      i2l3832 0AAE                                        i2l3808 0A38  
                                      i2l3680 15C2                                        i2l3736 198E  
                                      i2l3728 1976                                        i2l3904 16A2  
                                      _INLVLA 003A44                                        i2l3586 19AA  
                                      i2l3578 1994                                        i2l3594 1B86  
                                      i2l3666 0E2A                                        i2l3658 0DF0  
                                      i2l3850 0AEE                                        i2l3842 0ACE  
                                      i2l3826 0A9A                                        i2l3690 15D6  
                                      i2l3682 15C8                                        i2l3738 1B2C  
                                      i2l3906 16A6                                        _INLVLB 003A54  
                                      _INLVLC 003A64                                        i2l3588 19AC  
                                      i2l3596 0CE0                                        i2l3852 0AF6  
                                      i2l3844 0AD6                                        i2l3836 0AB6  
                                      i2l3828 0AA2                                        i2l3692 15DA  
                                      i2l3684 15CE                                        i2l3676 15B4  
                                      i2l3908 16AA                                        i2l4476 112A  
                                      _INLVLE 003A84                                        i2l3598 0CE0  
                                      i2l3854 0AFE                                        i2l3846 0ADE  
                                      i2l3838 0ABE                                        i2l4478 0A62  
                                      i2l3790 0A06                                        i2l3694 1A56  
                                      i2l3686 15D0                                        i2l3678 15BC  
                                      i2l3848 0AE6                                        i2l3792 0A10  
                                      i2l3856 0B06                                        i2l3784 09E8  
                                      i2l3696 1A5C                                        i2l3688 15D2  
                                      i2l3880 1C18                                        i2l3858 0B8A  
                                      i2l3786 09F2                                        i2l3698 1A62  
                                      i2l3890 1886                                        i2l3882 185E  
                                      i2l3796 0A1A                                        i2l3788 09F6  
                                      i2l3884 1866                                        i2l3892 1678  
                                      i2l3886 186C                                        i2l3894 168E  
                                      i2l3888 1876                                        i2l3896 1696  
                                      i2l3898 169A                                        _TABLAT 003FF5  
                               ?_init_mdbdata 002A                                        _OSCFRQ 0039DF  
                                      _NVMDAT 0039E3                         _UART1_SetErrorHandler 1C04  
                                 INTSTAT_ADDR 0000D3                                 ?_button_flash 002A  
                      Set_Timeout@readValHigh 0040                              _UART2_Initialize 13C0  
                   _UART2_OverrunErrorHandler 0009                              __end_of_dispense 1358  
                            __end_of_mdb_comm 0CDE                              __end_of_mdb_init 1678  
                            __end_of_mdb_poll 0B8E                          __end_of_credit_check 1BBC  
                     __end_of_TMR1_StartTimer 1C34                               mdb_reset@i_2642 003D  
                                      _credit 0025                              fp__InterruptTMR2 0000  
                            ?_TMR0_Initialize 002A                                        _mcount 0020  
                                      clear_0 1612                                        clear_1 161E  
                                      _noteen 001C                                        isa$std 000001  
                                      _slvadd 0021                                     ??_coin_in 003B  
                     __end_of_DATAEE_ReadByte 1A3A                              __end_of_second_5 081A  
                              _PMD_Initialize 19E2                                  __pdataCOMRAM 0048  
                              ?_enter_service 002A                              __end_of_notebits 080A  
                            __end_of_poll_mdb 115A                              __end_of_mototime 0832  
                                __mediumconst 0000                                        tblptrh 003FF7  
                                      tblptrl 003FF6                                        tblptru 003FF8  
                            ??i2_init_mdbdata 002A      TMR2_SetInterruptHandler@InterruptHandler 0037  
  i2TMR2_SetInterruptHandler@InterruptHandler 002A          __end_of_UART1_SetOverrunErrorHandler 1BFA  
                _UART1_SetOverrunErrorHandler 1BF0                  ?i2_UART1_DefaultErrorHandler 002A  
                   _UART1_DefaultErrorHandler 1BA4                              i2mdb_comm@mcount 002C  
                     __end_of_TMR1_WriteTimer 190E                                ??_init_mdbdata 0037  
                      i2init_mdbdata@initdata 002A                              i2mdb_comm@slvadd 002D  
                            ?_TMR1_Initialize 002A                       __end_of_TMR5_Initialize 1762  
                           _SYSTEM_Initialize 16F2                                    __accesstop 0060  
                     __end_of__initialization 1630                           __end_of_Set_Timeout 10D0  
                              ??_button_flash 0039                         __end_of_note_features 0829  
                             _CMP1_Initialize 1AE2                            ?_SYSTEM_Initialize 002A  
                       __end_of_theft_attempt 081D                                 ___rparam_used 000001  
                              __pcstackCOMRAM 002A                         _UART2_SetErrorHandler 1BE6  
                         ??_SYSTEM_Initialize 0039                              ?_DAC1_Initialize 002A  
                               ?i2_UART1_Read 002A                                     ?_TMR2_ISR 002A  
                        __end_of_mdb_security 1B08                              _DATAEE_WriteByte 156C  
                           ??_SPI1_Initialize 0037                         __end_of_note_rejected 081E  
                            ?_TMR2_Initialize 002A                         __end_of_note_security 082E  
                      __end_of_PMD_Initialize 1A06                          __end_of_mdb_transmit 1B70  
                          _spi1_configuration 0801                               i2init_mdbdata@i 002B  
                   _UART1_FramingErrorHandler 0011                          _CMP1_GetOutputStatus 1AB6  
                   __end_of_SYSTEM_Initialize 172C                                 _InterruptTMR2 1B70  
                                  __pbssBANK0 0060                 ?_UART1_SetOverrunErrorHandler 0037  
               ??i2_UART1_DefaultErrorHandler 002A                        ?_UART1_SetErrorHandler 0037  
                            ?_TMR3_Initialize 002A                                       IVTBASEH 003FD6  
                                     IVTBASEL 003FD5                                       IVTBASEU 003FD7  
                           ??_credit_subtract 003A    _UART1_DefaultFramingErrorHandler$intlevel0 1BA2  
                  __end_ofi2_DATAEE_WriteByte 15F8                                ??i2_UART1_Read 002A  
                                ??_UART1_Read 0037                                  ?_switch_read 002A  
                            ?_TMR1_StartTimer 002A                                    ??_TMR2_ISR 0035  
        __end_of_UART2_SetFramingErrorHandler 1BE6                  _UART2_SetFramingErrorHandler 1BDC  
                                     _CM1CON0 003EBC                                       _CM1CON1 003EBD  
                             ?_PMD_Initialize 002A                               ??_enter_service 0043  
                            ?_DATAEE_ReadByte 002A                                  ?i2_mdb_reset 002A  
                                ?i2_mdb_noten 002A                                  ?i2_mdb_waitr 002A  
                                ?i2_mdb_waitx 002A                                       _U1ERRIE 003DFA  
                                     _U1ERRIR 003DF9                                       _U2ERRIE 003DE2  
                                     _U2ERRIR 003DE1                                    _credit_add 182E  
                                     _U1RXPPS 003AE5                                       _U2RXPPS 003AE8  
                                     _OSCCON1 0039D9                                       _OSCCON3 0039DB  
                                     _TBLPTRH 003FF7                                       _TBLPTRL 003FF6  
                                     _SPI1CLK 003D1C                                       _TBLPTRU 003FF8  
                       ?_CMP1_GetOutputStatus 002A                                       _SPI1RXB 003D10  
                                     _NVMADRL 0039E0                                       _SPI1TXB 003D11  
                                  _jammed_err 0823                                       _OSCTUNE 0039DE  
                                     _NVMCON2 0039E6                                   _Set_Timeout 1042  
                                     _SLRCONA 003A43                                       _SLRCONB 003A53  
                                     _SLRCONC 003A63                                ?_InterruptTMR2 002A  
                     __end_of_CMP1_Initialize 1AF6                                     ?_mdb_comm 0039  
                                   ?_dispense 002A                              ?_TMR1_WriteTimer 0037  
                                   ?_mdb_init 002A                                     ?_mdb_poll 002A  
                          __end_of_UART1_Read 0FA6                              ?_TMR5_Initialize 002A  
                        DATAEE_WriteByte@bAdd 0038                         i2DATAEE_ReadByte@bAdd 002A  
                                     __Hparam 0000                        ?_UART2_SetErrorHandler 0037  
                                     __Lparam 0000                      __end_of_UART1_Initialize 13C0  
                  ??_TMR2_SetInterruptHandler 0039                                     ?_poll_mdb 002A  
                              mdb_comm@mcount 0039                                mdb_comm@slvadd 003A  
                           __end_of_mdb_reset 1474                             __end_of_mdb_noten 18B6  
                           __end_of_mdb_waitr 1B1A                             __end_of_mdb_waitx 1B2C  
                                __psmallconst 0800                 ?_UART2_SetFramingErrorHandler 0037  
                                     _dbcount 0003                                       __pcinit 15F8  
                                     _cashint 080A                          __end_of_init_mdbdata 18E2  
                                     _cashinv 080E                                       __ramtop 0800  
                    TMR1_ReadTimer@readValLow 003E                                       _chkbyte 001E  
                                  _errorflags 001A                                       __ptext0 0834  
                                     __ptext1 115A                                       __ptext2 163A  
                                     __ptext3 1AF6                                       __ptext4 141C  
                                     __ptext5 188A                                       __ptext6 0B8E  
                                     __ptext7 1B08                                       __ptext8 1B62  
                                     __ptext9 1B1A                                       _credmem 0814  
                                     _coin_in 151C    _UART1_DefaultOverrunErrorHandler$intlevel0 1B96  
                                     _mdbdata 0060                     TMR1_ReadTimer@readValHigh 003D  
                                   _T1CONbits 003FB2                          __end_of_button_flash 151C  
            _UART2_DefaultOverrunErrorHandler 000000                         _OSCILLATOR_Initialize 1A88  
                                   _T2CONbits 003FAC                                       _buttons 0023  
                                   _T3CONbits 003FA6                                       _second1 081A  
                    ??_PIN_MANAGER_Initialize 0037                                     _T2HLTbits 003FAD  
                                   _T5CONbits 003F9A                      __end_of_UART2_Initialize 141C  
                                     _notenum 0048                                       _sensval 0806  
                                     _timeout 0028                                  _credit_check 1BB0  
                                ??i2_mdb_comm 002D                                    ??_dispense 003B  
                                  ??_mdb_comm 003A                                  ??i2_mdb_init 0031  
                                  ??_mdb_init 003E                          end_of_initialization 1630  
                           __end_of_secondadd 0818                                    ??_mdb_poll 002F  
                                   _T2RSTbits 003FAF                                     _PCON1bits 003FF1  
                               __Lmediumconst 0000                             __end_of_note_poll 082D  
                           __end_of_note_type 082C                             __end_of_just_busy 0826  
                           __end_of_vend_init 11E0                ??_UART1_SetOverrunErrorHandler 0039  
                           __end_of_rom_error 0825                             __end_of_vendstore 080E  
                                  ??_poll_mdb 0033                                    _note_reset 082F  
                                   _SPI1TCNTL 003D12                                    _sens_error 0826  
                                  _note_setup 082E                                       postinc0 003FEE  
                                     postinc2 003FDE                                    _motr_error 0827  
                                  _just_reset 0822                                    _pricestore 0812  
                           UART1_Write@txData 0037                              vend_init@timeval 003A  
                          __end_ofi2_mdb_comm 0E2E                            __end_ofi2_mdb_init 16B6  
                                   _PORTAbits 003FCA                                    _venderrors 0810  
                               i2_UART1_Write 1A6E                                   ?_credit_add 002A  
                      ??_CMP1_GetOutputStatus 0037                                _TMR1_ReadTimer 19BE  
                             ??_InterruptTMR2 0035                                     _TRISBbits 003FC3  
                        __end_ofi2_UART1_Read 1042                              ?_CMP1_Initialize 002A  
                    __end_of_DATAEE_WriteByte 15B2                                  _mdb_security 1AF6  
                                 _CM1CON0bits 003EBC                               _SPI1_Initialize 1A3A  
                         __end_of_cashbox_err 0821                                  _mdb_transmit 1B62  
                          i2credit_add@credit 002D                  __end_of_INTERRUPT_Initialize 1C38  
        __end_of_TMR2_DefaultInterruptHandler 1C3A                  _TMR2_DefaultInterruptHandler 1C38  
                          mdb_transmit@txbyte 0038                                 __pidataCOMRAM 1C40  
                              ?i2_UART1_Write 002A                                _TMR1_StopTimer 1C2C  
                      ?_OSCILLATOR_Initialize 002A                        __end_of_TMR1_ReadTimer 19E2  
              ??_UART2_SetFramingErrorHandler 0039                           start_initialization 15F8  
                     ??_UART1_SetErrorHandler 0039                     _UART2_DefaultErrorHandler 000000  
                             _credit_subtract 1800                                    ivt0x8_base 0008  
                         DATAEE_ReadByte@bAdd 0037                  ??_UART1_SetAddresstoTransmit 0037  
                            ??_PMD_Initialize 0037                        __end_of_TMR1_StopTimer 1C30  
             fp__TMR2_DefaultInterruptHandler 0000                 ?_TMR2_DefaultInterruptHandler 002A  
                             ?_TMR1_ReadTimer 0037                            i2_DATAEE_WriteByte 15B2  
                                 __pbssCOMRAM 0001                            _UART1_ErrorHandler 000D  
                   _UART2_FramingErrorHandler 000B                                  ?_Set_Timeout 002A  
                           i2_TMR0_Initialize 1ACC                       __end_of_SPI1_Initialize 1A54  
                                 _cashbox_err 0820                           ?i2_DATAEE_WriteByte 002A  
                        __end_of_note_removed 0822                            ?i2_TMR0_Initialize 002A  
                       credit_subtract@credit 003A                          __end_of_note_stacker 082A  
                        init_mdbdata@initdata 0037                                  _init_mdbdata 18B6  
                fp__UART1_DefaultErrorHandler 0000                       ??_UART2_SetErrorHandler 0039  
                                _button_flash 14CC                           ??i2_TMR0_Initialize 002A  
                      _PIN_MANAGER_Initialize 11E0                             ?_UART1_Initialize 002A  
        __end_of_UART1_SetFramingErrorHandler 1C04                  _UART1_SetFramingErrorHandler 1BFA  
                        ??i2_DATAEE_WriteByte 002B                            ??_UART1_Initialize 0039  
                             ??i2_UART1_Write 002A                               ?_TMR1_StopTimer 002A  
                            _uart1RxLastError 0027                                 ??_UART1_Write 0037  
                                    _DAC1CON0 003E9E                                      _DAC1CON1 003E9C  
                ??_INTERRUPT_InterruptManager 0035                                      ?_coin_in 002A  
                                   _mdb_reset 141C                                     _mdb_noten 188A  
                                   _mdb_waitr 1B08                                     _mdb_waitx 1B1A  
                ??i2_TMR2_SetInterruptHandler 002C                                   __smallconst 0800  
                     __end_of_credit_subtract 182E                         __end_of_enter_service 0F0A  
       fp_i2_UART1_DefaultOverrunErrorHandler 0000           fp__UART1_DefaultOverrunErrorHandler 0000  
  __end_ofi2_UART1_DefaultOverrunErrorHandler 1C3C      __end_of_UART1_DefaultOverrunErrorHandler 1B98  
          ??_UART1_DefaultOverrunErrorHandler 0037          ??i2_UART1_DefaultOverrunErrorHandler 002A  
         ?i2_UART1_DefaultOverrunErrorHandler 002A             ?_UART1_DefaultOverrunErrorHandler 002A  
          i2_UART1_DefaultOverrunErrorHandler 1C3A              _UART1_DefaultOverrunErrorHandler 1B8C  
                               ?i2_credit_add 002A                     __end_ofi2_TMR0_Initialize 1AE2  
               i2DATAEE_WriteByte@GIEBitValue 002C                                     _mdbtxbyte 0019  
                           ?_UART2_Initialize 002A           __end_ofi2_UART1_DefaultErrorHandler 1C40  
                 i2_UART1_DefaultErrorHandler 1C3E                             i2_TMR2_Initialize 193A  
                              _acept_disabled 081F                                      _T2CLKCON 003FAE  
                                 _U1ERRIRbits 003DF9                            ??_UART2_Initialize 0039  
                        _INTERRUPT_Initialize 1C34                            ?i2_TMR2_Initialize 002A  
                            _uart2RxLastError 0026                             ??_TMR0_Initialize 0037  
        __end_ofi2_UART1_SetAddresstoTransmit 1C2C                  i2_UART1_SetAddresstoTransmit 1C22  
                                 _U2ERRIRbits 003DE1                                i2_mdb_security 1B2C  
                                    _LATAbits 003FBA         UART2_SetErrorHandler@interruptHandler 0037  
       UART1_SetErrorHandler@interruptHandler 0037                                      _LATBbits 003FBB  
                                    _LATCbits 003FBC                                     _secondadd 0816  
                               _note_features 0828                                      _PIE4bits 003994  
                               _theft_attempt 081C                           ??i2_TMR2_Initialize 002C  
                                _SPI1CON0bits 003D14                                      i2u200_48 17EA  
                                    i2u200_49 17FE                                      i2u140_40 0FF6  
                                    i2u140_41 0FF2                                      i2u142_40 1022  
                                    i2u141_48 0FFE                                      i2u214_40 16D2  
                                    i2u142_41 101E                                      i2u141_49 1012  
                                    i2u214_41 16CE                                      i2u150_45 0DAC  
                                    i2u150_47 0DAE                                      i2u135_40 1A80  
                                    i2u151_40 0DC4                                      i2u215_40 16E0  
                                    i2u135_41 1A7C                                      i2u151_41 0DC0  
                                    i2u215_41 16DC                                      i2u143_48 1028  
                                    i2u144_40 19BC                                      i2u136_40 1B60  
                                    i2u152_40 0DD2                                      i2u160_40 15EA  
                                    i2u143_49 103C                                      i2u144_41 19B8  
                                    i2u136_41 1B5C                                      i2u152_41 0DCE  
                                    i2u160_41 15E6                                      i2u137_40 0FB6  
                                    i2u145_40 1B4E                                      i2u153_40 0DE0  
                                    i2u137_41 0FB2                                      i2u145_41 1B4A  
                                    i2u153_41 0DDC                                      i2u161_45 15F4  
                                    i2u161_46 15F6                                      i2u241_47 1682  
                                    i2u138_40 0FCA                                      i2u154_40 0DEE  
                                    i2u146_40 0CF8                                      i2u162_40 1492  
                                    i2u138_41 0FC6                                      i2u154_41 0DEA  
                                    i2u146_41 0CF4                                      i2u162_41 148E  
                                    i2u147_40 0D12                                      i2u163_40 14C0  
                                    i2u147_41 0D0E                                      i2u163_41 14BC  
                                    i2u155_45 0DF8                                      i2u155_47 0DFA  
                                    i2u139_48 0FD2                                      i2u156_40 0E08  
                                    i2u148_40 0D52                                      i2u172_40 0A06  
                                    i2u139_49 0FE6                                      i2u156_41 0E04  
                                    i2u148_41 0D4E                                      i2u172_41 0A02  
                                    i2u157_40 0E24                                      i2u149_40 0D60  
                                    i2u157_41 0E20                                      i2u149_41 0D5C  
                                    i2u174_40 1886                                      i2u190_40 10F4  
                                    i2u174_41 1882                                      i2u190_41 10F0  
                                    i2u191_40 1112                                      i2u191_41 110E  
                                    _PIR0bits 0039A0                                i2_mdb_transmit 1B7E  
                                    _PIR2bits 0039A2                                      _SPI1BAUD 003D19  
                                    i2u189_40 10E6                                      i2u189_41 10E2  
                                    _PIR3bits 0039A3                                      i2u199_40 17E4  
                                    i2u199_41 17E0                                      _PIR4bits 0039A4  
                                    _SPI1CON0 003D14                                      _SPI1CON1 003D15  
                                    _SPI1CON2 003D16                                      _PIR6bits 0039A6  
                                    _PIR8bits 0039A8                                     _note_poll 082C  
                                   _note_type 082B                                     _just_busy 0825  
                                   _vend_init 115A                                      _TMR2_ISR 17CE  
                                i2_UART1_Read 0FA6                                     _rom_error 0824  
               ?_UART1_SetFramingErrorHandler 0037                                     _vendprice 0022  
                                   _vendstore 080C                                 _note_rejected 081D  
                           ??_TMR1_Initialize 0037                                 _note_security 082D  
                                  ?_mdb_reset 002A                                    ?_mdb_noten 002A  
                                  ?_mdb_waitr 002A                                    ?_mdb_waitx 002A  
                              ??i2_credit_add 002D                                  ??_credit_add 003A  
                   __end_ofi2_TMR2_Initialize 1966                                     mdb_comm@i 003B  
                      __end_of_acept_disabled 0820                ??_TMR2_DefaultInterruptHandler 002A  
                   ?_TMR2_SetInterruptHandler 0037                           __end_of_UART1_Write 1A20  
                          _UART2_ErrorHandler 0007                         DATAEE_WriteByte@bData 0037  
                            ?_SPI1_Initialize 002A                                   _INTCON0bits 003FD2  
                       ?_INTERRUPT_Initialize 002A                             ??_DAC1_Initialize 0037  
                      __end_ofi2_mdb_security 1B3E                             i2_DATAEE_ReadByte 1A54  
                           ?_DATAEE_WriteByte 0037                             ??_TMR2_Initialize 0039  
                          ?i2_DATAEE_ReadByte 002A                            ??_DATAEE_WriteByte 0038  
                      __end_ofi2_mdb_transmit 1B8C            __end_of_UART1_SetAddresstoTransmit 1BD2  
               ?i2_UART1_SetAddresstoTransmit 002A                    _UART1_SetAddresstoTransmit 1BC8  
                                    __Hrparam 0000                                      __Lrparam 0000  
                          __end_of_credit_add 185C                         TMR1_ReadTimer@readVal 003B  
                         ??i2_DATAEE_ReadByte 002A                                    ?_vend_init 002A  
                     ??_OSCILLATOR_Initialize 0037                            __end_of_jammed_err 0824  
         UART1_SetAddresstoTransmit@txAddress 0037         i2UART1_SetAddresstoTransmit@txAddress 002A  
                              _invalid_escrow 081E                           __end_of_note_escrow 082B  
                           ??_TMR3_Initialize 0037                              ?_credit_subtract 002A  
                                  _T0CON0bits 003FB8                                      __pivt0x8 0008  
                   __end_ofi2_DATAEE_ReadByte 1A6E                                      __ptext10 1A06  
                                    __ptext11 18B6                                      __ptext20 19BE  
                                    __ptext12 1BC8                                      __ptext21 12E6  
                                    __ptext13 0F0A                                    _T1GCONbits 003FB3  
                                    __ptext30 156C                                      __ptext22 1800  
                                    __ptext14 1B8C                                      __ptext31 1A20  
                                    __ptext23 18E2                                      __ptext15 1B98  
                                    __ptext40 1C04                                      __ptext32 16F2  
                                    __ptext24 1C2C                                      __ptext16 1BA4  
                                    __ptext41 172C                                      __ptext33 13C0  
                                    __ptext25 1C30                                      __ptext17 0E2E  
                                    __ptext50 1A88                                      __ptext42 1762  
                                    __ptext34 1BD2                                      __ptext26 151C  
                                    __ptext18 14CC                                      __ptext51 1C34  
                                    __ptext43 190E                                      __ptext35 1BDC  
                                    __ptext27 1264                                      __ptext19 1042  
                                    __ptext60 1C18                                      __ptext52 1BBC  
                                    __ptext44 1C0E                                      __ptext36 1BE6  
                                    __ptext28 1BB0                                      __ptext61 10D0  
                                    __ptext53 1AE2                                      __ptext45 1798  
                                    __ptext37 1358                                      __ptext29 182E  
                                    __ptext70 0CDE                                      __ptext62 1678  
                                    __ptext54 1AB6                                      __ptext46 1AA0  
                                    __ptext38 1BF0                                      __ptext71 1B3E  
                                    __ptext63 1B2C                                      __ptext55 16B6  
                                    __ptext47 1A3A                                      __ptext39 1BFA  
                                    __ptext80 1C3E                                      __ptext72 1B7E  
                                    __ptext64 1474                                      __ptext56 17CE  
                                    __ptext48 19E2                                      __ptext81 1ACC  
                                    __ptext73 1B50                                      __ptext65 1966  
                                    __ptext57 1B70                                      __ptext49 11E0  
                                    __ptext82 0000                                      __ptext74 1A6E  
                                    __ptext66 185C                                      __ptext58 1C38  
                                    __ptext75 1992                                      __ptext67 15B2  
                                    __ptext59 193A                                      __ptext76 1C22  
                                    __ptext68 1A54                                      __ptext77 0FA6  
                                    __ptext69 09E8                                      __ptext78 1C3A  
                                    __ptext79 1C3C                         __end_of_InterruptTMR2 1B7E  
                                  _U1CON0bits 003DF2                                      _mdb_comm 0B8E  
                                    _dispense 12E6                                      _mdb_init 163A  
                           ??_TMR1_StartTimer 0037                 __end_of_UART1_SetErrorHandler 1C0E  
                                    _mdb_poll 09E8                                      _mdbflags 001D  
                             ?i2_mdb_security 002A                                    _T3GCONbits 003FA7  
                                  _U2CON0bits 003DDA                   DATAEE_WriteByte@GIEBitValue 0039  
                                  _T5GCONbits 003F9B              _UART2_DefaultFramingErrorHandler 000000  
                             ?i2_mdb_transmit 002A                             ??_DATAEE_ReadByte 0037  
                              i2_init_mdbdata 1992                                      _second_5 0818  
                   _UART1_OverrunErrorHandler 000F                                      _notebits 0808  
UART2_SetOverrunErrorHandler@interruptHandler 0037  UART1_SetOverrunErrorHandler@interruptHandler 0037  
                                    _notebyte 001F                                      _poll_mdb 10D0  
                                    isa$xinst 000000                                      _mototime 0830  
                               ??_switch_read 0037                                      _venflags 0001  
                               init_mdbdata@i 0038                              ??_TMR1_ReadTimer 0039  
                  ?_UART1_DefaultErrorHandler 002A                        __end_of_invalid_escrow 081F  
                                _note_removed 0821            __end_of_INTERRUPT_InterruptManager 16F2  
                  _INTERRUPT_InterruptManager 16B6                             ??_TMR1_WriteTimer 0039  
                                _note_stacker 0829                             i2mdb_reset@i_2642 0030  
                                 _UART1_Write 1A06            __end_ofi2_TMR2_SetInterruptHandler 1C22  
                  i2_TMR2_SetInterruptHandler 1C18                             ??_TMR5_Initialize 0037  
                               ??i2_mdb_reset 002F                                 ??i2_mdb_noten 002F  
                               ??i2_mdb_waitr 002A                                 ??i2_mdb_waitx 002A  
                                 ??_mdb_reset 003C                                   ??_mdb_noten 003C  
                                 ??_mdb_waitr 0037                                   ??_mdb_waitx 0037  
              ??_UART1_SetFramingErrorHandler 0039                                   _NVMCON1bits 0039E5  
                      ??_INTERRUPT_Initialize 0037          __end_of_UART2_SetOverrunErrorHandler 1BDC  
                _UART2_SetOverrunErrorHandler 1BD2                            __end_of_note_reset 0830  
                          __end_of_sens_error 0827                            __end_of_note_setup 082F  
                                    intlevel2 0000                            __end_of_motr_error 0828  
                          __end_of_just_reset 0823                        __end_ofi2_init_mdbdata 19BE  
                     ?_PIN_MANAGER_Initialize 002A                            __end_of_pricestore 0814  
                        __end_ofi2_credit_add 188A                            __end_of_venderrors 0812  
               __end_of_UART2_SetErrorHandler 1BF0                              ??_TMR1_StopTimer 0037  
                                 _note_escrow 082A                                    _SPI1SDIPPS 003ADF  
                                  _SPI1SCKPPS 003ADE                                   ??_vend_init 0038  
              ??i2_UART1_SetAddresstoTransmit 002A                                    _UART1_Read 0F0A  
                                 _noteen_byte 001B  UART2_SetFramingErrorHandler@interruptHandler 0037  
UART1_SetFramingErrorHandler@interruptHandler 0037                          i2mdb_transmit@txbyte 002B  
              fp_i2_UART1_DefaultErrorHandler 0000             __end_of_UART1_DefaultErrorHandler 1BB0  
                         __end_of_switch_read 12E6                       i2DATAEE_WriteByte@bData 002A  
                             _TMR0_Initialize 1AA0                                 ?_credit_check 002A  
                         __end_ofi2_mdb_reset 14CC                           __end_ofi2_mdb_noten 1992  
                         __end_ofi2_mdb_waitr 1B50                           __end_ofi2_mdb_waitx 1B62  
              __end_of_PIN_MANAGER_Initialize 1264                        i2DATAEE_WriteByte@bAdd 002B  
         _UART1_DefaultErrorHandler$intlevel0 1BAE                 ?_UART2_SetOverrunErrorHandler 0037  
                             ?i2_init_mdbdata 002A                         _TMR2_InterruptHandler 0005  
                             _TMR1_Initialize 1798                    __end_of_spi1_configuration 0806  
