

Microchip MPLAB XC8 Assembler V2.40 build 20220703182018 
                                                                                               Sun Aug 21 17:17:31 2022

Microchip MPLAB XC8 C Compiler v2.40 (Free license) build 20220703182018 Og1 
     1                           	processor	18F25K42
     2                           	fnconf	rparam,??,?,0
     3                           	pagewidth 120
     4                           	opt	flic
     5                           	psect	idataCOMRAM,global,class=CODE,delta=1,noexec
     6                           	psect	smallconst,global,reloc=2,class=SMALLCONST,delta=1,noexec
     7                           	psect	cinit,global,reloc=2,class=CODE,delta=1
     8                           	psect	bssCOMRAM,global,class=COMRAM,space=1,delta=1,lowdata,noexec
     9                           	psect	dataCOMRAM,global,class=COMRAM,space=1,delta=1,lowdata,noexec
    10                           	psect	bssBANK0,global,class=BANK0,space=1,delta=1,lowdata,noexec
    11                           	psect	cstackCOMRAM,global,class=COMRAM,space=1,delta=1,lowdata,noexec
    12                           	psect	text0,global,reloc=2,class=CODE,delta=1
    13                           	psect	text1,global,reloc=2,class=CODE,delta=1
    14                           	psect	text2,global,reloc=2,class=CODE,delta=1
    15                           	psect	text3,global,reloc=2,class=CODE,delta=1
    16                           	psect	text4,global,reloc=2,class=CODE,delta=1
    17                           	psect	text5,global,reloc=2,class=CODE,delta=1
    18                           	psect	text6,global,reloc=2,class=CODE,delta=1
    19                           	psect	text7,global,reloc=2,class=CODE,delta=1
    20                           	psect	text8,global,reloc=2,class=CODE,delta=1
    21                           	psect	text9,global,reloc=2,class=CODE,delta=1
    22                           	psect	text10,global,reloc=2,class=CODE,delta=1
    23                           	psect	text11,global,reloc=2,class=CODE,delta=1
    24                           	psect	text12,global,reloc=2,class=CODE,delta=1
    25                           	psect	text13,global,reloc=2,class=CODE,delta=1
    26                           	psect	text14,global,reloc=2,class=CODE,delta=1
    27                           	psect	text15,global,reloc=2,class=CODE,delta=1
    28                           	psect	text16,global,reloc=2,class=CODE,delta=1
    29                           	psect	text17,global,reloc=2,class=CODE,delta=1
    30                           	psect	text18,global,reloc=2,class=CODE,delta=1
    31                           	psect	text19,global,reloc=2,class=CODE,delta=1
    32                           	psect	text20,global,reloc=2,class=CODE,delta=1
    33                           	psect	text21,global,reloc=2,class=CODE,delta=1
    34                           	psect	text22,global,reloc=2,class=CODE,delta=1
    35                           	psect	text23,global,reloc=2,class=CODE,delta=1
    36                           	psect	text24,global,reloc=2,class=CODE,delta=1
    37                           	psect	text25,global,reloc=2,class=CODE,delta=1
    38                           	psect	text26,global,reloc=2,class=CODE,delta=1
    39                           	psect	text27,global,reloc=2,class=CODE,delta=1
    40                           	psect	text28,global,reloc=2,class=CODE,delta=1
    41                           	psect	text29,global,reloc=2,class=CODE,delta=1
    42                           	psect	text30,global,reloc=2,class=CODE,delta=1
    43                           	psect	text31,global,reloc=2,class=CODE,delta=1
    44                           	psect	text32,global,reloc=2,class=CODE,delta=1
    45                           	psect	text33,global,reloc=2,class=CODE,delta=1
    46                           	psect	text34,global,reloc=2,class=CODE,delta=1
    47                           	psect	text35,global,reloc=2,class=CODE,delta=1
    48                           	psect	text36,global,reloc=2,class=CODE,delta=1
    49                           	psect	text37,global,reloc=2,class=CODE,delta=1
    50                           	psect	text38,global,reloc=2,class=CODE,delta=1
    51                           	psect	text39,global,reloc=2,class=CODE,delta=1
    52                           	psect	text40,global,reloc=2,class=CODE,delta=1
    53                           	psect	text41,global,reloc=2,class=CODE,delta=1
    54                           	psect	text42,global,reloc=2,class=CODE,delta=1
    55                           	psect	text43,global,reloc=2,class=CODE,delta=1
    56                           	psect	text44,global,reloc=2,class=CODE,delta=1
    57                           	psect	text45,global,reloc=2,class=CODE,delta=1
    58                           	psect	text46,global,reloc=2,class=CODE,delta=1
    59                           	psect	text47,global,reloc=2,class=CODE,delta=1
    60                           	psect	text48,global,reloc=2,class=CODE,delta=1
    61                           	psect	text49,global,reloc=2,class=CODE,delta=1
    62                           	psect	text50,global,reloc=2,class=CODE,delta=1
    63                           	psect	text51,global,reloc=2,class=CODE,delta=1
    64                           	psect	text52,global,reloc=2,class=CODE,delta=1
    65                           	psect	text53,global,reloc=2,class=CODE,delta=1
    66                           	psect	text54,global,reloc=2,class=CODE,delta=1
    67                           	psect	text55,global,reloc=2,class=CODE,delta=1
    68                           	psect	text56,global,reloc=2,class=CODE,delta=1
    69                           	psect	text57,global,reloc=2,class=CODE,delta=1
    70                           	psect	text58,global,reloc=2,class=CODE,delta=1
    71                           	psect	text59,global,reloc=2,class=CODE,delta=1
    72                           	psect	text60,global,reloc=2,class=CODE,delta=1
    73                           	psect	text61,global,reloc=2,class=CODE,delta=1
    74                           	psect	text62,global,reloc=2,class=CODE,delta=1
    75                           	psect	text63,global,reloc=2,class=CODE,delta=1
    76                           	psect	text64,global,reloc=2,class=CODE,delta=1
    77                           	psect	text65,global,reloc=2,class=CODE,delta=1
    78                           	psect	text66,global,reloc=2,class=CODE,delta=1
    79                           	psect	text67,global,reloc=2,class=CODE,delta=1
    80                           	psect	text68,global,reloc=2,class=CODE,delta=1
    81                           	psect	text69,global,reloc=2,class=CODE,delta=1
    82                           	psect	text70,global,reloc=2,class=CODE,delta=1
    83                           	psect	text71,global,reloc=2,class=CODE,delta=1
    84                           	psect	text72,global,reloc=2,class=CODE,delta=1
    85                           	psect	text73,global,reloc=2,class=CODE,delta=1
    86                           	psect	ivt0x8,global,reloc=2,class=CODE,delta=1,noexec,keep,optim=
    87                           	psect	intsave_regs,global,class=BIGRAM,space=1,delta=1,noexec
    88                           	psect	text74,global,reloc=2,class=CODE,delta=1
    89                           	psect	rparam,global,class=COMRAM,space=1,delta=1,noexec
    90                           	psect	idloc,global,abs,ovrld,class=IDLOC,space=5,delta=1,noexec
    91                           	psect	config,global,abs,ovrld,class=CONFIG,space=4,delta=1,noexec
    92   000000                     
    93                           ; Version 2.40
    94                           ; Generated 17/11/2021 GMT
    95                           ; 
    96                           ; Copyright © 2021, Microchip Technology Inc. and its subsidiaries ("Microchip")
    97                           ; All rights reserved.
    98                           ; 
    99                           ; This software is developed by Microchip Technology Inc. and its subsidiaries ("Microch
      +                          ip").
   100                           ; 
   101                           ; Redistribution and use in source and binary forms, with or without modification, are
   102                           ; permitted provided that the following conditions are met:
   103                           ; 
   104                           ;     1. Redistributions of source code must retain the above copyright notice, this lis
      +                          t of
   105                           ;        conditions and the following disclaimer.
   106                           ; 
   107                           ;     2. Redistributions in binary form must reproduce the above copyright notice, this 
      +                          list
   108                           ;        of conditions and the following disclaimer in the documentation and/or other
   109                           ;        materials provided with the distribution. Publication is not required when
   110                           ;        this file is used in an embedded application.
   111                           ; 
   112                           ;     3. Microchip's name may not be used to endorse or promote products derived from th
      +                          is
   113                           ;        software without specific prior written permission.
   114                           ; 
   115                           ; THIS SOFTWARE IS PROVIDED BY MICROCHIP "AS IS" AND ANY EXPRESS OR IMPLIED WARRANTIES,
   116                           ; INCLUDING, BUT NOT LIMITED TO, THE IMPLIED WARRANTIES OF MERCHANTABILITY AND FITNESS F
      +                          OR
   117                           ; PURPOSE ARE DISCLAIMED.  IN NO EVENT SHALL MICROCHIP BE LIABLE FOR ANY DIRECT, INDIREC
      +                          T,
   118                           ; INCIDENTAL, SPECIAL, EXEMPLARY, OR CONSEQUENTIAL DAMAGES (INCLUDING BUT NOT LIMITED TO
   119                           ; PROCUREMENT OF SUBSTITUTE GOODS OR SERVICES; LOSS OF USE, DATA OR PROFITS; OR BUSINESS
   120                           ; INTERRUPTION) HOWSOEVER CAUSED AND ON ANY THEORY OF LIABILITY, WHETHER IN CONTRACT, ST
      +                          RICT
   121                           ; LIABILITY, OR TORT (INCLUDING NEGLIGENCE OR OTHERWISE) ARISING IN ANY WAY OUT OF THE U
      +                          SE OF
   122                           ; THIS SOFTWARE, EVEN IF ADVISED OF THE POSSIBILITY OF SUCH DAMAGE.
   123                           ; 
   124                           ; 
   125                           ; Code-generator required, PIC18F25K42 Definitions
   126                           ; 
   127                           ; SFR Addresses
   128   000000                     
   129 ;; Function _UART1_DefaultFramingErrorHandler is unused but had its address taken
   130   000000                     
   131 ;; Function _UART1_DefaultOverrunErrorHandler is unused but had its address taken
   132   000000                     
   133 ;; Function _UART1_DefaultErrorHandler is unused but had its address taken
   134   000000                     
   135 ;; Function _UART2_DefaultFramingErrorHandler is unused but had its address taken
   136   000000                     
   137 ;; Function _UART2_DefaultOverrunErrorHandler is unused but had its address taken
   138   000000                     
   139 ;; Function _UART2_DefaultErrorHandler is unused but had its address taken
   140   000000                     
   141                           	psect	idataCOMRAM
   142   001A86                     __pidataCOMRAM:
   143                           	callstack 0
   144                           
   145                           ;initializer for _notenum
   146   001A86  FF                 	db	255
   147                           
   148                           	psect	smallconst
   149   000800                     __psmallconst:
   150                           	callstack 0
   151   000800  00                 	db	0
   152   000801                     _sensval:
   153                           	callstack 0
   154   000801  0019               	dw	25
   155   000803                     __end_of_sensval:
   156                           	callstack 0
   157   000803  0018               	dw	24
   158   000805                     __end_of_notebits:
   159                           	callstack 0
   160   000805                     _cashint:
   161                           	callstack 0
   162   000805  000C               	dw	12
   163   000807                     __end_of_cashint:
   164                           	callstack 0
   165   000807                     _vendstore:
   166                           	callstack 0
   167   000807  0004               	dw	4
   168   000809                     __end_of_vendstore:
   169                           	callstack 0
   170   000809                     _cashinv:
   171                           	callstack 0
   172   000809  0002               	dw	2
   173   00080B                     __end_of_cashinv:
   174                           	callstack 0
   175   00080B  0002               	dw	2
   176   00080D                     __end_of_venderrors:
   177                           	callstack 0
   178   00080D  0001               	dw	1
   179   00080F                     __end_of_pricestore:
   180                           	callstack 0
   181   00080F  0000               	dw	0
   182   000811                     __end_of_credmem:
   183                           	callstack 0
   184   000811                     _secondadd:
   185                           	callstack 0
   186   000811  1E46               	dw	7750
   187   000813                     __end_of_secondadd:
   188                           	callstack 0
   189   000813                     _second_5:
   190                           	callstack 0
   191   000813  0F23               	dw	3875
   192   000815                     __end_of_second_5:
   193                           	callstack 0
   194   000815                     _second1:
   195                           	callstack 0
   196   000815  F0DD               	dw	61661
   197   000817                     __end_of_second1:
   198                           	callstack 0
   199   000817                     _theft_attempt:
   200                           	callstack 0
   201   000817  0C                 	db	12
   202   000818                     __end_of_theft_attempt:
   203                           	callstack 0
   204   000818                     _note_rejected:
   205                           	callstack 0
   206   000818  0B                 	db	11
   207   000819                     __end_of_note_rejected:
   208                           	callstack 0
   209   000819                     _invalid_escrow:
   210                           	callstack 0
   211   000819  0A                 	db	10
   212   00081A                     __end_of_invalid_escrow:
   213                           	callstack 0
   214   00081A                     _acept_disabled:
   215                           	callstack 0
   216   00081A  09                 	db	9
   217   00081B                     __end_of_acept_disabled:
   218                           	callstack 0
   219   00081B                     _cashbox_err:
   220                           	callstack 0
   221   00081B  08                 	db	8
   222   00081C                     __end_of_cashbox_err:
   223                           	callstack 0
   224   00081C                     _note_removed:
   225                           	callstack 0
   226   00081C  07                 	db	7
   227   00081D                     __end_of_note_removed:
   228                           	callstack 0
   229   00081D  06                 	db	6
   230   00081E                     __end_of_just_reset:
   231                           	callstack 0
   232   00081E                     _jammed_err:
   233                           	callstack 0
   234   00081E  05                 	db	5
   235   00081F                     __end_of_jammed_err:
   236                           	callstack 0
   237   00081F                     _rom_error:
   238                           	callstack 0
   239   00081F  04                 	db	4
   240   000820                     __end_of_rom_error:
   241                           	callstack 0
   242   000820                     _just_busy:
   243                           	callstack 0
   244   000820  03                 	db	3
   245   000821                     __end_of_just_busy:
   246                           	callstack 0
   247   000821                     _sens_error:
   248                           	callstack 0
   249   000821  02                 	db	2
   250   000822                     __end_of_sens_error:
   251                           	callstack 0
   252   000822                     _motr_error:
   253                           	callstack 0
   254   000822  01                 	db	1
   255   000823                     __end_of_motr_error:
   256                           	callstack 0
   257   000823                     _note_features:
   258                           	callstack 0
   259   000823  33                 	db	51
   260   000824                     __end_of_note_features:
   261                           	callstack 0
   262   000824                     _note_stacker:
   263                           	callstack 0
   264   000824  36                 	db	54
   265   000825                     __end_of_note_stacker:
   266                           	callstack 0
   267   000825                     _note_escrow:
   268                           	callstack 0
   269   000825  35                 	db	53
   270   000826                     __end_of_note_escrow:
   271                           	callstack 0
   272   000826  34                 	db	52
   273   000827                     __end_of_note_type:
   274                           	callstack 0
   275   000827  33                 	db	51
   276   000828                     __end_of_note_poll:
   277                           	callstack 0
   278   000828  32                 	db	50
   279   000829                     __end_of_note_security:
   280                           	callstack 0
   281   000829                     _note_setup:
   282                           	callstack 0
   283   000829  31                 	db	49
   284   00082A                     __end_of_note_setup:
   285                           	callstack 0
   286   00082A  30                 	db	48
   287   00082B                     __end_of_note_reset:
   288                           	callstack 0
   289   00082B  0003               	dw	3
   290   00082D                     __end_of_mototime:
   291                           	callstack 0
   292   000000                     _T2CON	set	16300
   293   000000                     _T2TMR	set	16298
   294   000000                     _T2PR	set	16299
   295   000000                     _T2RST	set	16303
   296   000000                     _T2HLT	set	16301
   297   000000                     _T2CLKCON	set	16302
   298   000000                     _T0CON0	set	16312
   299   000000                     _TMR0L	set	16310
   300   000000                     _TMR0H	set	16311
   301   000000                     _T0CON1	set	16313
   302   000000                     _T5CON	set	16282
   303   000000                     _T3CON	set	16294
   304   000000                     _T3CLK	set	16297
   305   000000                     _T3GATE	set	16296
   306   000000                     _T1CON	set	16306
   307   000000                     _T1CLK	set	16309
   308   000000                     _T1GATE	set	16308
   309   000000                     _OSCTUNE	set	14814
   310   000000                     _OSCFRQ	set	14815
   311   000000                     _U1FIFObits	set	15863
   312   000000                     _U2ERRIRbits	set	15841
   313   000000                     _U2CON0bits	set	15834
   314   000000                     _U1ERRIRbits	set	15865
   315   000000                     _U1CON0bits	set	15858
   316   000000                     _CM1CON0bits	set	16060
   317   000000                     _LATBbits	set	16315
   318   000000                     _LATCbits	set	16316
   319   000000                     _LATAbits	set	16314
   320   000000                     _PR2	set	16299
   321   000000                     _TMR2	set	16298
   322   000000                     _T2CONbits	set	16300
   323   000000                     _T2RSTbits	set	16303
   324   000000                     _T2HLTbits	set	16301
   325   000000                     _T0CON0bits	set	16312
   326   000000                     _T5GCONbits	set	16283
   327   000000                     _T5CONbits	set	16282
   328   000000                     _T3GCONbits	set	16295
   329   000000                     _T3CONbits	set	16294
   330   000000                     _T1GCONbits	set	16307
   331   000000                     _T1CONbits	set	16306
   332   000000                     _PIE4bits	set	14740
   333   000000                     _PIR0bits	set	14752
   334   000000                     _NVMADRL	set	14816
   335   000000                     _NVMCON1bits	set	14821
   336   000000                     _RB1PPS	set	14857
   337   000000                     _ANSELA	set	14912
   338   000000                     _ANSELB	set	14928
   339   000000                     _ANSELC	set	14944
   340   000000                     _DAC1CON1	set	16028
   341   000000                     _DAC1CON0	set	16030
   342   000000                     _CM1CON0	set	16060
   343   000000                     _LATA	set	16314
   344   000000                     _TRISA	set	16322
   345   000000                     _LATC	set	16316
   346   000000                     _LATB	set	16315
   347   000000                     _PORTAbits	set	16330
   348   000000                     _INTCON0bits	set	16338
   349   000000                     _TABLAT	set	16373
   350   000000                     _TBLPTRL	set	16374
   351   000000                     _TBLPTRH	set	16375
   352   000000                     _TBLPTRU	set	16376
   353   000000                     _TRISC	set	16324
   354   000000                     _TRISB	set	16323
   355   000000                     _INLVLC	set	14948
   356   000000                     _SLRCONC	set	14947
   357   000000                     _ODCONC	set	14946
   358   000000                     _RC3I2C	set	14954
   359   000000                     _WPUC	set	14945
   360   000000                     _WPUE	set	14977
   361   000000                     _INLVLB	set	14932
   362   000000                     _SLRCONB	set	14931
   363   000000                     _ODCONB	set	14930
   364   000000                     _RB1I2C	set	14938
   365   000000                     _WPUB	set	14929
   366   000000                     _INLVLA	set	14916
   367   000000                     _SLRCONA	set	14915
   368   000000                     _ODCONA	set	14914
   369   000000                     _WPUA	set	14913
   370   000000                     _INLVLE	set	14980
   371   000000                     _RB2I2C	set	14939
   372   000000                     _RC4I2C	set	14955
   373   000000                     _U1RXPPS	set	15077
   374   000000                     _U2RXPPS	set	15080
   375   000000                     _U2RXB	set	15824
   376   000000                     _U2P1L	set	15828
   377   000000                     _U1RXB	set	15848
   378   000000                     _U1P1L	set	15852
   379   000000                     _RC1PPS	set	14865
   380   000000                     _CMOUT	set	16064
   381   000000                     _TMR5L	set	16280
   382   000000                     _TMR5H	set	16281
   383   000000                     _T5GCON	set	16283
   384   000000                     _TMR3L	set	16292
   385   000000                     _TMR3H	set	16293
   386   000000                     _T3GCON	set	16295
   387   000000                     _TMR1L	set	16304
   388   000000                     _TMR1H	set	16305
   389   000000                     _T1GCON	set	16307
   390   000000                     _CM1PCH	set	16063
   391   000000                     _CM1NCH	set	16062
   392   000000                     _CM1CON1	set	16061
   393   000000                     _NVMCON2	set	14822
   394   000000                     _PCON0	set	16368
   395   000000                     _NVMDAT	set	14819
   396   000000                     _PIR3bits	set	14755
   397   000000                     _PIR4bits	set	14756
   398   000000                     _PMD0	set	14784
   399   000000                     _OSCCON1	set	14809
   400   000000                     _OSCCON3	set	14811
   401   000000                     _OSCEN	set	14813
   402   000000                     _PMD7	set	14791
   403   000000                     _PMD6	set	14790
   404   000000                     _PMD5	set	14789
   405   000000                     _PMD4	set	14788
   406   000000                     _PMD3	set	14787
   407   000000                     _PMD2	set	14786
   408   000000                     _PMD1	set	14785
   409   000000                     _PIR6bits	set	14758
   410   000000                     _PIR8bits	set	14760
   411   000000                     _T5CLK	set	16285
   412   000000                     _T5GATE	set	16284
   413   000000                     _U1ERRIE	set	15866
   414   000000                     _U1ERRIR	set	15865
   415   000000                     _U1UIR	set	15864
   416   000000                     _U1FIFO	set	15863
   417   000000                     _U1BRGH	set	15862
   418   000000                     _U1BRGL	set	15861
   419   000000                     _U1CON2	set	15860
   420   000000                     _U1CON1	set	15859
   421   000000                     _U1CON0	set	15858
   422   000000                     _U1P3H	set	15857
   423   000000                     _U1P3L	set	15856
   424   000000                     _U1P2H	set	15855
   425   000000                     _U1P2L	set	15854
   426   000000                     _U1P1H	set	15853
   427   000000                     _U1TXB	set	15850
   428   000000                     _U2P2L	set	15830
   429   000000                     _U2P3L	set	15832
   430   000000                     _U2CON0	set	15834
   431   000000                     _U2ERRIE	set	15842
   432   000000                     _U2ERRIR	set	15841
   433   000000                     _U2UIR	set	15840
   434   000000                     _U2FIFO	set	15839
   435   000000                     _U2BRGH	set	15838
   436   000000                     _U2BRGL	set	15837
   437   000000                     _U2CON2	set	15836
   438   000000                     _U2CON1	set	15835
   439   000000                     _U2TXB	set	15826
   440   000000                     _PCON1bits	set	16369
   441   00082D  00                 	db	0	; dummy byte at the end
   442   000000                     
   443                           ; #config settings
   444                           
   445                           	psect	cinit
   446   00151C                     __pcinit:
   447                           	callstack 0
   448   00151C                     start_initialization:
   449                           	callstack 0
   450   00151C                     __initialization:
   451                           	callstack 0
   452                           
   453                           ; Initialize objects allocated to COMRAM (1 bytes)
   454                           ; load TBLPTR registers with __pidataCOMRAM
   455   00151C  0E86               	movlw	low __pidataCOMRAM
   456   00151E  6EF6               	movwf	tblptrl,c
   457   001520  0E1A               	movlw	high __pidataCOMRAM
   458   001522  6EF7               	movwf	tblptrh,c
   459   001524  0E00               	movlw	low (__pidataCOMRAM shr (0+16))
   460   001526  6EF8               	movwf	tblptru,c
   461   001528  0009               	tblrd		*+	;fetch initializer
   462   00152A  006F FFD4  F048    	movff	tablat,__pdataCOMRAM
   463                           
   464                           ; Clear objects allocated to BANK0 (33 bytes)
   465   001530  EE00  F060         	lfsr	0,__pbssBANK0
   466   001534  0E21               	movlw	33
   467   001536                     clear_0:
   468   001536  6AEE               	clrf	postinc0,c
   469   001538  06E8               	decf	wreg,f,c
   470   00153A  E1FD               	bnz	clear_0
   471                           
   472                           ; Clear objects allocated to COMRAM (41 bytes)
   473   00153C  EE00  F001         	lfsr	0,__pbssCOMRAM
   474   001540  0E29               	movlw	41
   475   001542                     clear_1:
   476   001542  6AEE               	clrf	postinc0,c
   477   001544  06E8               	decf	wreg,f,c
   478   001546  E1FD               	bnz	clear_1
   479                           
   480                           ;
   481                           ; Setup IVTBASE
   482                           ;
   483   001548  0E08               	movlw	(ivt0x8_base shr 0)& (0+255)
   484   00154A  6ED5               	movwf	213,c
   485   00154C  0E00               	movlw	(ivt0x8_base shr (0+8))& (0+255)
   486   00154E  6ED6               	movwf	214,c
   487   001550  0E00               	movlw	(ivt0x8_base shr (0+16))& (0+255)
   488   001552  6ED7               	movwf	215,c
   489   001554                     end_of_initialization:
   490                           	callstack 0
   491   001554                     __end_of__initialization:
   492                           	callstack 0
   493   001554  0E00               	movlw	low (__Lmediumconst shr (0+16))
   494   001556  6EF8               	movwf	tblptru,c
   495   001558  0100               	movlb	0
   496   00155A  EF17  F004         	goto	_main	;jump to C main() function
   497                           
   498                           	psect	bssCOMRAM
   499   000001                     __pbssCOMRAM:
   500                           	callstack 0
   501   000001                     _venflags:
   502                           	callstack 0
   503   000001                     	ds	2
   504   000003                     _dbcount:
   505                           	callstack 0
   506   000003                     	ds	2
   507   000005                     _TMR2_InterruptHandler:
   508                           	callstack 0
   509   000005                     	ds	2
   510   000007                     _UART2_ErrorHandler:
   511                           	callstack 0
   512   000007                     	ds	2
   513   000009                     _UART2_OverrunErrorHandler:
   514                           	callstack 0
   515   000009                     	ds	2
   516   00000B                     _UART2_FramingErrorHandler:
   517                           	callstack 0
   518   00000B                     	ds	2
   519   00000D                     _UART1_ErrorHandler:
   520                           	callstack 0
   521   00000D                     	ds	2
   522   00000F                     _UART1_OverrunErrorHandler:
   523                           	callstack 0
   524   00000F                     	ds	2
   525   000011                     _UART1_FramingErrorHandler:
   526                           	callstack 0
   527   000011                     	ds	2
   528   000013                     _timer5ReloadVal:
   529                           	callstack 0
   530   000013                     	ds	2
   531   000015                     _timer3ReloadVal:
   532                           	callstack 0
   533   000015                     	ds	2
   534   000017                     _timer1ReloadVal:
   535                           	callstack 0
   536   000017                     	ds	2
   537   000019                     _mdbtxbyte:
   538                           	callstack 0
   539   000019                     	ds	1
   540   00001A                     _errorflags:
   541                           	callstack 0
   542   00001A                     	ds	1
   543   00001B                     _noteen_byte:
   544                           	callstack 0
   545   00001B                     	ds	1
   546   00001C                     _noteen:
   547                           	callstack 0
   548   00001C                     	ds	1
   549   00001D                     _mdbflags:
   550                           	callstack 0
   551   00001D                     	ds	1
   552   00001E                     _chkbyte:
   553                           	callstack 0
   554   00001E                     	ds	1
   555   00001F                     _notebyte:
   556                           	callstack 0
   557   00001F                     	ds	1
   558   000020                     _mcount:
   559                           	callstack 0
   560   000020                     	ds	1
   561   000021                     _slvadd:
   562                           	callstack 0
   563   000021                     	ds	1
   564   000022                     _vendprice:
   565                           	callstack 0
   566   000022                     	ds	1
   567   000023                     _buttons:
   568                           	callstack 0
   569   000023                     	ds	1
   570   000024                     _cash:
   571                           	callstack 0
   572   000024                     	ds	1
   573   000025                     _credit:
   574                           	callstack 0
   575   000025                     	ds	1
   576   000026                     _uart2RxLastError:
   577                           	callstack 0
   578   000026                     	ds	1
   579   000027                     _uart1RxLastError:
   580                           	callstack 0
   581   000027                     	ds	1
   582   000028                     _timeout:
   583                           	callstack 0
   584   000028                     	ds	2
   585                           
   586                           	psect	dataCOMRAM
   587   000048                     __pdataCOMRAM:
   588                           	callstack 0
   589   000048                     _notenum:
   590                           	callstack 0
   591   000048                     	ds	1
   592                           
   593                           	psect	bssBANK0
   594   000060                     __pbssBANK0:
   595                           	callstack 0
   596   000060                     _mdbdata:
   597                           	callstack 0
   598   000060                     	ds	33
   599                           
   600                           	psect	cstackCOMRAM
   601   00002A                     __pcstackCOMRAM:
   602                           	callstack 0
   603   00002A                     i2DATAEE_WriteByte@bData:
   604                           	callstack 0
   605   00002A                     i2DATAEE_ReadByte@bAdd:
   606                           	callstack 0
   607   00002A                     i2UART1_Write@txData:
   608                           	callstack 0
   609   00002A                     i2UART1_SetAddresstoTransmit@txAddress:
   610                           	callstack 0
   611   00002A                     i2init_mdbdata@initdata:
   612                           	callstack 0
   613   00002A                     i2TMR2_SetInterruptHandler@InterruptHandler:
   614                           	callstack 0
   615                           
   616                           ; 2 bytes @ 0x0
   617   00002A                     	ds	1
   618   00002B                     i2DATAEE_WriteByte@bAdd:
   619                           	callstack 0
   620   00002B                     i2mdb_transmit@txbyte:
   621                           	callstack 0
   622                           
   623                           ; 1 bytes @ 0x1
   624   00002B                     	ds	1
   625   00002C                     i2DATAEE_WriteByte@GIEBitValue:
   626                           	callstack 0
   627   00002C                     i2mdb_comm@mcount:
   628                           	callstack 0
   629                           
   630                           ; 1 bytes @ 0x2
   631   00002C                     	ds	1
   632   00002D                     i2credit_add@credit:
   633                           	callstack 0
   634   00002D                     i2mdb_comm@slvadd:
   635                           	callstack 0
   636                           
   637                           ; 1 bytes @ 0x3
   638   00002D                     	ds	1
   639   00002E                     i2mdb_comm@i:
   640                           	callstack 0
   641                           
   642                           ; 1 bytes @ 0x4
   643   00002E                     	ds	1
   644   00002F                     ??_mdb_poll:
   645   00002F                     
   646                           ; 1 bytes @ 0x5
   647   00002F                     	ds	1
   648   000030                     i2mdb_reset@i_2612:
   649                           	callstack 0
   650                           
   651                           ; 1 bytes @ 0x6
   652   000030                     	ds	1
   653   000031                     ??i2_mdb_init:
   654                           
   655                           ; 1 bytes @ 0x7
   656   000031                     	ds	2
   657   000033                     ??_poll_mdb:
   658                           
   659                           ; 1 bytes @ 0x9
   660   000033                     	ds	2
   661   000035                     ??_INTERRUPT_InterruptManager:
   662                           
   663                           ; 1 bytes @ 0xB
   664   000035                     	ds	2
   665   000037                     ??_TMR3_Initialize:
   666   000037                     ??_TMR5_Initialize:
   667   000037                     ??_TMR1_Initialize:
   668   000037                     ??_switch_read:
   669   000037                     ?_TMR1_ReadTimer:
   670                           	callstack 0
   671   000037                     DATAEE_WriteByte@bData:
   672                           	callstack 0
   673   000037                     DATAEE_ReadByte@bAdd:
   674                           	callstack 0
   675   000037                     UART1_Write@txData:
   676                           	callstack 0
   677   000037                     UART1_SetAddresstoTransmit@txAddress:
   678                           	callstack 0
   679   000037                     init_mdbdata@initdata:
   680                           	callstack 0
   681   000037                     TMR1_WriteTimer@timerVal:
   682                           	callstack 0
   683   000037                     UART1_SetFramingErrorHandler@interruptHandler:
   684                           	callstack 0
   685   000037                     UART1_SetOverrunErrorHandler@interruptHandler:
   686                           	callstack 0
   687   000037                     UART1_SetErrorHandler@interruptHandler:
   688                           	callstack 0
   689   000037                     UART2_SetFramingErrorHandler@interruptHandler:
   690                           	callstack 0
   691   000037                     UART2_SetOverrunErrorHandler@interruptHandler:
   692                           	callstack 0
   693   000037                     UART2_SetErrorHandler@interruptHandler:
   694                           	callstack 0
   695   000037                     TMR2_SetInterruptHandler@InterruptHandler:
   696                           	callstack 0
   697                           
   698                           ; 2 bytes @ 0xD
   699   000037                     	ds	1
   700   000038                     ??_vend_init:
   701   000038                     DATAEE_WriteByte@bAdd:
   702                           	callstack 0
   703   000038                     mdb_transmit@txbyte:
   704                           	callstack 0
   705                           
   706                           ; 1 bytes @ 0xE
   707   000038                     	ds	1
   708   000039                     ??_button_flash:
   709   000039                     ??_TMR1_ReadTimer:
   710   000039                     DATAEE_WriteByte@GIEBitValue:
   711                           	callstack 0
   712   000039                     mdb_comm@mcount:
   713                           	callstack 0
   714                           
   715                           ; 1 bytes @ 0xF
   716   000039                     	ds	1
   717   00003A                     credit_add@credit:
   718                           	callstack 0
   719   00003A                     credit_subtract@credit:
   720                           	callstack 0
   721   00003A                     mdb_comm@slvadd:
   722                           	callstack 0
   723   00003A                     vend_init@timeval:
   724                           	callstack 0
   725                           
   726                           ; 2 bytes @ 0x10
   727   00003A                     	ds	1
   728   00003B                     ??_coin_in:
   729   00003B                     mdb_comm@i:
   730                           	callstack 0
   731   00003B                     TMR1_ReadTimer@readVal:
   732                           	callstack 0
   733                           
   734                           ; 2 bytes @ 0x11
   735   00003B                     	ds	1
   736   00003C                     
   737                           ; 1 bytes @ 0x12
   738   00003C                     	ds	1
   739   00003D                     TMR1_ReadTimer@readValHigh:
   740                           	callstack 0
   741   00003D                     mdb_reset@i_2612:
   742                           	callstack 0
   743                           
   744                           ; 1 bytes @ 0x13
   745   00003D                     	ds	1
   746   00003E                     ??_mdb_init:
   747   00003E                     TMR1_ReadTimer@readValLow:
   748                           	callstack 0
   749                           
   750                           ; 1 bytes @ 0x14
   751   00003E                     	ds	1
   752   00003F                     Set_Timeout@readValLow:
   753                           	callstack 0
   754                           
   755                           ; 1 bytes @ 0x15
   756   00003F                     	ds	1
   757   000040                     Set_Timeout@readValHigh:
   758                           	callstack 0
   759                           
   760                           ; 1 bytes @ 0x16
   761   000040                     	ds	1
   762   000041                     Set_Timeout@timeval:
   763                           	callstack 0
   764                           
   765                           ; 2 bytes @ 0x17
   766   000041                     	ds	2
   767   000043                     ??_enter_service:
   768                           
   769                           ; 1 bytes @ 0x19
   770   000043                     	ds	2
   771   000045                     ??_main:
   772                           
   773                           ; 1 bytes @ 0x1B
   774   000045                     	ds	3
   775                           
   776 ;;
   777 ;;Main: autosize = 0, tempsize = 3, incstack = 0, save=0
   778 ;;
   779 ;; *************** function _main *****************
   780 ;; Defined at:
   781 ;;		line 59 in file "main.c"
   782 ;; Parameters:    Size  Location     Type
   783 ;;		None
   784 ;; Auto vars:     Size  Location     Type
   785 ;;		None
   786 ;; Return value:  Size  Location     Type
   787 ;;                  1    wreg      void 
   788 ;; Registers used:
   789 ;;		wreg, fsr2l, fsr2h, status,2, status,0, cstack
   790 ;; Tracked objects:
   791 ;;		On entry : 0/0
   792 ;;		On exit  : 0/0
   793 ;;		Unchanged: 0/0
   794 ;; Data sizes:     COMRAM   BANK0   BANK1   BANK2   BANK3   BANK4   BANK5   BANK6   BANK7
   795 ;;      Params:         0       0       0       0       0       0       0       0       0
   796 ;;      Locals:         0       0       0       0       0       0       0       0       0
   797 ;;      Temps:          3       0       0       0       0       0       0       0       0
   798 ;;      Totals:         3       0       0       0       0       0       0       0       0
   799 ;;Total ram usage:        3 bytes
   800 ;; Hardware stack levels required when called: 14
   801 ;; This function calls:
   802 ;;		_DATAEE_WriteByte
   803 ;;		_SYSTEM_Initialize
   804 ;;		_TMR2_SetInterruptHandler
   805 ;;		_button_flash
   806 ;;		_coin_in
   807 ;;		_credit_check
   808 ;;		_dispense
   809 ;;		_enter_service
   810 ;;		_mdb_init
   811 ;;		_vend_init
   812 ;; This function is called by:
   813 ;;		Startup code after reset
   814 ;; This function uses a non-reentrant model
   815 ;;
   816                           
   817                           	psect	text0
   818   00082E                     __ptext0:
   819                           	callstack 0
   820   00082E                     _main:
   821                           	callstack 17
   822   00082E                     
   823                           ;main.c: 63:     if((PCON0 == 0x3C | 0x3D) & PCON1bits.MEMV)
   824   00082E  0E3C               	movlw	60
   825   000830  18F0               	xorwf	240,w,c	;volatile
   826   000832  B4D8               	btfsc	status,2,c
   827   000834  EF1E  F004         	goto	u1881
   828   000838  EF21  F004         	goto	u1880
   829   00083C                     u1881:
   830   00083C  0E01               	movlw	1
   831   00083E  EF22  F004         	goto	u1890
   832   000842                     u1880:
   833   000842  0E00               	movlw	0
   834   000844                     u1890:
   835   000844  6E45               	movwf	??_main^0,c
   836   000846  6A46               	clrf	(??_main+1)^0,c
   837   000848  0E3D               	movlw	61
   838   00084A  1245               	iorwf	??_main^0,f,c
   839   00084C  0E00               	movlw	0
   840   00084E  1246               	iorwf	(??_main+1)^0,f,c
   841   000850  B2F1               	btfsc	241,1,c	;volatile
   842   000852  EF2D  F004         	goto	u1901
   843   000856  EF31  F004         	goto	u1900
   844   00085A                     u1901:
   845   00085A  6A47               	clrf	(??_main+2)^0,c
   846   00085C  2A47               	incf	(??_main+2)^0,f,c
   847   00085E  EF32  F004         	goto	u1908
   848   000862                     u1900:
   849   000862  6A47               	clrf	(??_main+2)^0,c
   850   000864                     u1908:
   851   000864  5047               	movf	(??_main+2)^0,w,c
   852   000866  1645               	andwf	??_main^0,f,c
   853   000868  0E00               	movlw	0
   854   00086A  1646               	andwf	(??_main+1)^0,f,c
   855   00086C  5045               	movf	??_main^0,w,c
   856   00086E  1046               	iorwf	(??_main+1)^0,w,c
   857   000870  B4D8               	btfsc	status,2,c
   858   000872  EF3D  F004         	goto	u1911
   859   000876  EF3F  F004         	goto	u1910
   860   00087A                     u1911:
   861   00087A  EF49  F004         	goto	l4097
   862   00087E                     u1910:
   863   00087E  0E00               	movlw	0
   864   000880  6E37               	movwf	DATAEE_WriteByte@bData^0,c
   865   000882  0E02               	movlw	2
   866   000884  EC04  F00A         	call	_DATAEE_WriteByte
   867   000888  0E00               	movlw	0
   868   00088A  6E37               	movwf	DATAEE_WriteByte@bData^0,c
   869   00088C  0E00               	movlw	0
   870   00088E  EC04  F00A         	call	_DATAEE_WriteByte
   871   000892                     l4097:
   872                           
   873                           ;main.c: 68:     SYSTEM_Initialize();
   874   000892  ECCD  F00A         	call	_SYSTEM_Initialize	;wreg free
   875   000896                     
   876                           ;main.c: 70:     PIE4bits.TMR2IE = 0;
   877   000896  0139               	movlb	57	; () banked
   878   000898  9594               	bcf	148,2,b	;volatile
   879   00089A                     
   880                           ; BSR set to: 57
   881                           ;main.c: 71:     T2CONbits.ON = 0;
   882   00089A  9EAC               	bcf	172,7,c	;volatile
   883   00089C                     
   884                           ; BSR set to: 57
   885                           ;main.c: 72:     TMR2_SetInterruptHandler(InterruptTMR2);
   886   00089C  0ED0               	movlw	low _InterruptTMR2
   887   00089E  6E37               	movwf	TMR2_SetInterruptHandler@InterruptHandler^0,c
   888   0008A0  0E19               	movlw	high _InterruptTMR2
   889   0008A2  6E38               	movwf	(TMR2_SetInterruptHandler@InterruptHandler+1)^0,c
   890   0008A4  EC25  F00D         	call	_TMR2_SetInterruptHandler	;wreg free
   891   0008A8  82BA               	bsf	186,1,c	;volatile
   892   0008AA  8CBC               	bsf	188,6,c	;volatile
   893   0008AC                     
   894                           ;main.c: 75:     vend_init();
   895   0008AC  EC03  F008         	call	_vend_init	;wreg free
   896   0008B0  8ABC               	bsf	188,5,c	;volatile
   897   0008B2  9CBC               	bcf	188,6,c	;volatile
   898   0008B4  92BA               	bcf	186,1,c	;volatile
   899   0008B6                     
   900                           ;main.c: 79:     mdb_init();
   901   0008B6  EC4A  F00A         	call	_mdb_init	;wreg free
   902   0008BA  9ABC               	bcf	188,5,c	;volatile
   903   0008BC                     
   904                           ;main.c: 84:     PIE4bits.TMR2IE = 1;
   905   0008BC  0139               	movlb	57	; () banked
   906   0008BE  8594               	bsf	148,2,b	;volatile
   907   0008C0                     l4123:
   908                           
   909                           ;main.c: 97:     {;main.c: 98:         if(!PORTAbits.RA3)
   910   0008C0  B6CA               	btfsc	202,3,c	;volatile
   911   0008C2  EF65  F004         	goto	u1921
   912   0008C6  EF67  F004         	goto	u1920
   913   0008CA                     u1921:
   914   0008CA  EF87  F004         	goto	l4133
   915   0008CE                     u1920:
   916   0008CE                     
   917                           ;main.c: 99:         {;main.c: 100:             enter_service();
   918   0008CE  EC09  F007         	call	_enter_service	;wreg free
   919   0008D2  EF87  F004         	goto	l4133
   920   0008D6                     l878:
   921                           
   922                           ; BSR set to: 62
   923   0008D6  9ABC               	bcf	188,5,c	;volatile
   924   0008D8                     
   925                           ; BSR set to: 62
   926   0008D8  8CBC               	bsf	188,6,c	;volatile
   927   0008DA                     
   928                           ; BSR set to: 62
   929                           ;main.c: 107:             _delay((unsigned long)((100)*(12000000/4000.0)));
   930   0008DA  0E02               	movlw	2
   931   0008DC  6E46               	movwf	(??_main+1)^0,c
   932   0008DE  0E86               	movlw	134
   933   0008E0  6E45               	movwf	??_main^0,c
   934   0008E2  0E99               	movlw	153
   935   0008E4                     u2057:
   936   0008E4  2EE8               	decfsz	wreg,f,c
   937   0008E6  D7FE               	bra	u2057
   938   0008E8  2E45               	decfsz	??_main^0,f,c
   939   0008EA  D7FC               	bra	u2057
   940   0008EC  2E46               	decfsz	(??_main+1)^0,f,c
   941   0008EE  D7FA               	bra	u2057
   942   0008F0  F000               	nop	
   943   0008F2  8ABC               	bsf	188,5,c	;volatile
   944   0008F4  9CBC               	bcf	188,6,c	;volatile
   945   0008F6                     
   946                           ;main.c: 110:             _delay((unsigned long)((100)*(12000000/4000.0)));
   947   0008F6  0E02               	movlw	2
   948   0008F8  6E46               	movwf	(??_main+1)^0,c
   949   0008FA  0E86               	movlw	134
   950   0008FC  6E45               	movwf	??_main^0,c
   951   0008FE  0E99               	movlw	153
   952   000900                     u2067:
   953   000900  2EE8               	decfsz	wreg,f,c
   954   000902  D7FE               	bra	u2067
   955   000904  2E45               	decfsz	??_main^0,f,c
   956   000906  D7FC               	bra	u2067
   957   000908  2E46               	decfsz	(??_main+1)^0,f,c
   958   00090A  D7FA               	bra	u2067
   959   00090C  F000               	nop	
   960   00090E                     l4133:
   961                           
   962                           ;main.c: 103:         while(!CM1CON0bits.C1OUT)
   963   00090E  013E               	movlb	62	; () banked
   964   000910  ADBC               	btfss	188,6,b	;volatile
   965   000912  EF8D  F004         	goto	u1931
   966   000916  EF8F  F004         	goto	u1930
   967   00091A                     u1931:
   968   00091A  EF6B  F004         	goto	l878
   969   00091E                     u1930:
   970   00091E                     
   971                           ; BSR set to: 62
   972                           ;main.c: 113:         if(venflags.error)
   973   00091E  A201               	btfss	_venflags^0,1,c
   974   000920  EF94  F004         	goto	u1941
   975   000924  EF96  F004         	goto	u1940
   976   000928                     u1941:
   977   000928  EF99  F004         	goto	l891
   978   00092C                     u1940:
   979   00092C                     
   980                           ; BSR set to: 62
   981   00092C  98BA               	bcf	186,4,c	;volatile
   982   00092E  EF9A  F004         	goto	l890
   983   000932                     l891:
   984                           
   985                           ; BSR set to: 62
   986   000932  88BA               	bsf	186,4,c	;volatile
   987   000934                     l890:
   988                           
   989                           ; BSR set to: 62
   990                           ;main.c: 122:         if(!PORTAbits.RA5)
   991   000934  BACA               	btfsc	202,5,c	;volatile
   992   000936  EF9F  F004         	goto	u1951
   993   00093A  EFA1  F004         	goto	u1950
   994   00093E                     u1951:
   995   00093E  EFA3  F004         	goto	l4137
   996   000942                     u1950:
   997   000942                     
   998                           ; BSR set to: 62
   999                           ;main.c: 123:         {;main.c: 124:             coin_in();
  1000   000942  ECDC  F009         	call	_coin_in	;wreg free
  1001   000946                     l4137:
  1002                           
  1003                           ;main.c: 127:         if(venflags.error)
  1004   000946  A201               	btfss	_venflags^0,1,c
  1005   000948  EFA8  F004         	goto	u1961
  1006   00094C  EFAA  F004         	goto	u1960
  1007   000950                     u1961:
  1008   000950  EFAC  F004         	goto	l894
  1009   000954                     u1960:
  1010   000954                     
  1011                           ;main.c: 128:         {;main.c: 129:             button_flash();
  1012   000954  ECB4  F009         	call	_button_flash	;wreg free
  1013   000958                     l894:
  1014                           
  1015                           ;main.c: 132:         if(credit_check() >= vendprice)
  1016   000958  ECF6  F00C         	call	_credit_check	;wreg free
  1017   00095C  6E45               	movwf	??_main^0,c
  1018   00095E  5022               	movf	_vendprice^0,w,c	;volatile
  1019   000960  5C45               	subwf	??_main^0,w,c
  1020   000962  A0D8               	btfss	status,0,c
  1021   000964  EFB6  F004         	goto	u1971
  1022   000968  EFB8  F004         	goto	u1970
  1023   00096C                     u1971:
  1024   00096C  EFBB  F004         	goto	l895
  1025   000970                     u1970:
  1026   000970                     
  1027                           ;main.c: 133:         {;main.c: 134:             venflags.crednuff = 1;
  1028   000970  8402               	bsf	(_venflags+1)^0,2,c
  1029                           
  1030                           ;main.c: 135:         }
  1031   000972  EFBC  F004         	goto	l896
  1032   000976                     l895:
  1033                           
  1034                           ;main.c: 137:         {;main.c: 138:             venflags.crednuff = 0;
  1035   000976  9402               	bcf	(_venflags+1)^0,2,c
  1036   000978                     l896:
  1037                           
  1038                           ;main.c: 141:         if(PIR8bits.TMR5IF)
  1039   000978  0139               	movlb	57	; () banked
  1040   00097A  ADA8               	btfss	168,6,b	;volatile
  1041   00097C  EFC2  F004         	goto	u1981
  1042   000980  EFC4  F004         	goto	u1980
  1043   000984                     u1981:
  1044   000984  EFC5  F004         	goto	l897
  1045   000988                     u1980:
  1046   000988                     
  1047                           ; BSR set to: 57
  1048                           ;main.c: 142:         {;main.c: 143:             venflags.t5time = 1;
  1049   000988  8602               	bsf	(_venflags+1)^0,3,c
  1050   00098A                     l897:
  1051                           
  1052                           ; BSR set to: 57
  1053                           ;main.c: 146:         if(venflags.crednuff && venflags.t5time)
  1054   00098A  A402               	btfss	(_venflags+1)^0,2,c
  1055   00098C  EFCA  F004         	goto	u1991
  1056   000990  EFCC  F004         	goto	u1990
  1057   000994                     u1991:
  1058   000994  EF60  F004         	goto	l4123
  1059   000998                     u1990:
  1060   000998                     
  1061                           ; BSR set to: 57
  1062   000998  A602               	btfss	(_venflags+1)^0,3,c
  1063   00099A  EFD1  F004         	goto	u2001
  1064   00099E  EFD3  F004         	goto	u2000
  1065   0009A2                     u2001:
  1066   0009A2  EF60  F004         	goto	l4123
  1067   0009A6                     u2000:
  1068   0009A6                     
  1069                           ; BSR set to: 57
  1070                           ;main.c: 147:         {;main.c: 148:             if(!venflags.error)
  1071   0009A6  B201               	btfsc	_venflags^0,1,c
  1072   0009A8  EFD8  F004         	goto	u2011
  1073   0009AC  EFDA  F004         	goto	u2010
  1074   0009B0                     u2011:
  1075   0009B0  EFDC  F004         	goto	l899
  1076   0009B4                     u2010:
  1077   0009B4                     
  1078                           ; BSR set to: 57
  1079   0009B4  98BA               	bcf	186,4,c	;volatile
  1080   0009B6                     
  1081                           ; BSR set to: 57
  1082   0009B6  8CBC               	bsf	188,6,c	;volatile
  1083   0009B8                     l899:
  1084                           
  1085                           ; BSR set to: 57
  1086                           ;main.c: 153:             if(!PORTAbits.RA6 && !venflags.error)
  1087   0009B8  BCCA               	btfsc	202,6,c	;volatile
  1088   0009BA  EFE1  F004         	goto	u2021
  1089   0009BE  EFE3  F004         	goto	u2020
  1090   0009C2                     u2021:
  1091   0009C2  EF60  F004         	goto	l4123
  1092   0009C6                     u2020:
  1093   0009C6                     
  1094                           ; BSR set to: 57
  1095   0009C6  B201               	btfsc	_venflags^0,1,c
  1096   0009C8  EFE8  F004         	goto	u2031
  1097   0009CC  EFEA  F004         	goto	u2030
  1098   0009D0                     u2031:
  1099   0009D0  EF60  F004         	goto	l4123
  1100   0009D4                     u2030:
  1101   0009D4                     
  1102                           ; BSR set to: 57
  1103                           ;main.c: 154:             {;main.c: 155:                 dispense();
  1104   0009D4  ECC1  F008         	call	_dispense	;wreg free
  1105   0009D8  EF60  F004         	goto	l4123
  1106   0009DC  EF0D  F000         	goto	start
  1107   0009E0                     __end_of_main:
  1108                           	callstack 0
  1109                           
  1110 ;; *************** function _vend_init *****************
  1111 ;; Defined at:
  1112 ;;		line 9 in file "vend.c"
  1113 ;; Parameters:    Size  Location     Type
  1114 ;;		None
  1115 ;; Auto vars:     Size  Location     Type
  1116 ;;  timeval         2   16[COMRAM] PTR unsigned char 
  1117 ;;		 -> timeout(2), 
  1118 ;; Return value:  Size  Location     Type
  1119 ;;                  1    wreg      void 
  1120 ;; Registers used:
  1121 ;;		wreg, fsr2l, fsr2h, status,2, status,0, cstack
  1122 ;; Tracked objects:
  1123 ;;		On entry : 0/0
  1124 ;;		On exit  : 0/0
  1125 ;;		Unchanged: 0/0
  1126 ;; Data sizes:     COMRAM   BANK0   BANK1   BANK2   BANK3   BANK4   BANK5   BANK6   BANK7
  1127 ;;      Params:         0       0       0       0       0       0       0       0       0
  1128 ;;      Locals:         2       0       0       0       0       0       0       0       0
  1129 ;;      Temps:          2       0       0       0       0       0       0       0       0
  1130 ;;      Totals:         4       0       0       0       0       0       0       0       0
  1131 ;;Total ram usage:        4 bytes
  1132 ;; Hardware stack levels used: 1
  1133 ;; Hardware stack levels required when called: 10
  1134 ;; This function calls:
  1135 ;;		_DATAEE_ReadByte
  1136 ;; This function is called by:
  1137 ;;		_main
  1138 ;; This function uses a non-reentrant model
  1139 ;;
  1140                           
  1141                           	psect	text1
  1142   001006                     __ptext1:
  1143                           	callstack 0
  1144   001006                     _vend_init:
  1145                           	callstack 20
  1146   001006                     
  1147                           ;vend.c: 11:     venflags.bflash = 0;
  1148   001006  9202               	bcf	(_venflags+1)^0,1,c
  1149                           
  1150                           ;vend.c: 12:     venflags.priceset = 0;
  1151   001008  9801               	bcf	_venflags^0,4,c
  1152   00100A  8CBC               	bsf	188,6,c	;volatile
  1153   00100C                     
  1154                           ;vend.c: 14:     uint8_t *timeval = &timeout;
  1155   00100C  0E28               	movlw	low _timeout
  1156   00100E  6E3A               	movwf	vend_init@timeval^0,c
  1157   001010  0E00               	movlw	high _timeout
  1158   001012  6E3B               	movwf	(vend_init@timeval+1)^0,c
  1159   001014  0E03               	movlw	3
  1160   001016  EC58  F00C         	call	_DATAEE_ReadByte
  1161   00101A  0060  F0EB  FFD9   	movff	vend_init@timeval,fsr2l
  1162   001020  0060  F0EF  FFDA   	movff	vend_init@timeval+1,fsr2h
  1163   001026  6EDF               	movwf	indf2,c
  1164   001028  EE20 F001          	lfsr	2,1
  1165   00102C  503A               	movf	vend_init@timeval^0,w,c
  1166   00102E  26D9               	addwf	fsr2l,f,c
  1167   001030  503B               	movf	(vend_init@timeval+1)^0,w,c
  1168   001032  22DA               	addwfc	fsr2h,f,c
  1169   001034  0E04               	movlw	4
  1170   001036  EC58  F00C         	call	_DATAEE_ReadByte
  1171   00103A  6EDF               	movwf	indf2,c
  1172   00103C  0E01               	movlw	1
  1173   00103E  EC58  F00C         	call	_DATAEE_ReadByte
  1174   001042  6E22               	movwf	_vendprice^0,c	;volatile
  1175   001044  0E00               	movlw	0
  1176   001046  EC58  F00C         	call	_DATAEE_ReadByte
  1177   00104A  6E25               	movwf	_credit^0,c	;volatile
  1178                           
  1179                           ;vend.c: 19:     DAC1CON1 = 0x0C;
  1180   00104C  0E0C               	movlw	12
  1181   00104E  013E               	movlb	62	; () banked
  1182   001050  6F9C               	movwf	156,b	;volatile
  1183   001052                     
  1184                           ; BSR set to: 62
  1185                           ;vend.c: 20:     _delay((unsigned long)((250)*(12000000/4000.0)));
  1186   001052  0E04               	movlw	4
  1187   001054  6E39               	movwf	(??_vend_init+1)^0,c
  1188   001056  0ECF               	movlw	207
  1189   001058  6E38               	movwf	??_vend_init^0,c
  1190   00105A  0E02               	movlw	2
  1191   00105C                     u2077:
  1192   00105C  2EE8               	decfsz	wreg,f,c
  1193   00105E  D7FE               	bra	u2077
  1194   001060  2E38               	decfsz	??_vend_init^0,f,c
  1195   001062  D7FC               	bra	u2077
  1196   001064  2E39               	decfsz	(??_vend_init+1)^0,f,c
  1197   001066  D7FA               	bra	u2077
  1198   001068  0E02               	movlw	2
  1199   00106A  EC58  F00C         	call	_DATAEE_ReadByte
  1200   00106E  0900               	iorlw	0
  1201   001070  B4D8               	btfsc	status,2,c
  1202   001072  EF3D  F008         	goto	u631
  1203   001076  EF3F  F008         	goto	u630
  1204   00107A                     u631:
  1205   00107A  EF43  F008         	goto	l1002
  1206   00107E                     u630:
  1207   00107E  98BA               	bcf	186,4,c	;volatile
  1208   001080                     
  1209                           ;vend.c: 24:         venflags.error = 1;
  1210   001080  8201               	bsf	_venflags^0,1,c
  1211                           
  1212                           ;vend.c: 25:     }
  1213   001082  EF45  F008         	goto	l1004
  1214   001086                     l1002:
  1215   001086  88BA               	bsf	186,4,c	;volatile
  1216   001088                     
  1217                           ;vend.c: 29:         venflags.error = 0;
  1218   001088  9201               	bcf	_venflags^0,1,c
  1219   00108A                     l1004:
  1220   00108A  0012               	return		;funcret
  1221   00108C                     __end_of_vend_init:
  1222                           	callstack 0
  1223                           
  1224 ;; *************** function _mdb_init *****************
  1225 ;; Defined at:
  1226 ;;		line 23 in file "mdb.c"
  1227 ;; Parameters:    Size  Location     Type
  1228 ;;		None
  1229 ;; Auto vars:     Size  Location     Type
  1230 ;;  i               1    0        unsigned char 
  1231 ;; Return value:  Size  Location     Type
  1232 ;;                  1    wreg      void 
  1233 ;; Registers used:
  1234 ;;		wreg, fsr2l, fsr2h, status,2, status,0, cstack
  1235 ;; Tracked objects:
  1236 ;;		On entry : 0/0
  1237 ;;		On exit  : 0/0
  1238 ;;		Unchanged: 0/0
  1239 ;; Data sizes:     COMRAM   BANK0   BANK1   BANK2   BANK3   BANK4   BANK5   BANK6   BANK7
  1240 ;;      Params:         0       0       0       0       0       0       0       0       0
  1241 ;;      Locals:         0       0       0       0       0       0       0       0       0
  1242 ;;      Temps:          2       0       0       0       0       0       0       0       0
  1243 ;;      Totals:         2       0       0       0       0       0       0       0       0
  1244 ;;Total ram usage:        2 bytes
  1245 ;; Hardware stack levels used: 1
  1246 ;; Hardware stack levels required when called: 13
  1247 ;; This function calls:
  1248 ;;		_DATAEE_ReadByte
  1249 ;;		_mdb_comm
  1250 ;;		_mdb_noten
  1251 ;;		_mdb_reset
  1252 ;;		_mdb_security
  1253 ;; This function is called by:
  1254 ;;		_main
  1255 ;; This function uses a non-reentrant model
  1256 ;;
  1257                           
  1258                           	psect	text2
  1259   001494                     __ptext2:
  1260                           	callstack 0
  1261   001494                     _mdb_init:
  1262                           	callstack 17
  1263   001494                     
  1264                           ;mdb.c: 25:     _delay((unsigned long)((250)*(12000000/4000.0)));
  1265   001494  0E04               	movlw	4
  1266   001496  6E3F               	movwf	(??_mdb_init+1)^0,c
  1267   001498  0ECF               	movlw	207
  1268   00149A  6E3E               	movwf	??_mdb_init^0,c
  1269   00149C  0E02               	movlw	2
  1270   00149E                     u2087:
  1271   00149E  2EE8               	decfsz	wreg,f,c
  1272   0014A0  D7FE               	bra	u2087
  1273   0014A2  2E3E               	decfsz	??_mdb_init^0,f,c
  1274   0014A4  D7FC               	bra	u2087
  1275   0014A6  2E3F               	decfsz	(??_mdb_init+1)^0,f,c
  1276   0014A8  D7FA               	bra	u2087
  1277   0014AA  0E18               	movlw	24
  1278   0014AC  EC58  F00C         	call	_DATAEE_ReadByte
  1279   0014B0  6E1B               	movwf	_noteen_byte^0,c	;volatile
  1280   0014B2                     
  1281                           ;mdb.c: 27:     ((uint8_t*) &noteen)[0] = noteen_byte;
  1282   0014B2  C01B  F01C         	movff	_noteen_byte,_noteen	;volatile
  1283   0014B6                     
  1284                           ;mdb.c: 29:     mdbflags.noteerr = 0;
  1285   0014B6  921D               	bcf	_mdbflags^0,1,c
  1286   0014B8                     
  1287                           ;mdb.c: 30:     mdbflags.isdata = 0;
  1288   0014B8  901D               	bcf	_mdbflags^0,0,c
  1289   0014BA                     
  1290                           ;mdb.c: 31:     mdb_reset();
  1291   0014BA  EC5C  F009         	call	_mdb_reset	;wreg free
  1292   0014BE                     
  1293                           ;mdb.c: 32:     mdb_noten();
  1294   0014BE  EC97  F00B         	call	_mdb_noten	;wreg free
  1295   0014C2                     
  1296                           ;mdb.c: 33:     mdb_security();
  1297   0014C2  ECAB  F00C         	call	_mdb_security	;wreg free
  1298   0014C6  0E00               	movlw	0
  1299   0014C8  6E39               	movwf	mdb_comm@mcount^0,c
  1300   0014CA  0E33               	movlw	51
  1301   0014CC  ECC3  F005         	call	_mdb_comm
  1302   0014D0                     
  1303                           ;mdb.c: 36:     PIE4bits.TMR2IE = 1;
  1304   0014D0  0139               	movlb	57	; () banked
  1305   0014D2  8594               	bsf	148,2,b	;volatile
  1306   0014D4                     
  1307                           ; BSR set to: 57
  1308                           ;mdb.c: 37:     T2CONbits.ON = 1;
  1309   0014D4  8EAC               	bsf	172,7,c	;volatile
  1310   0014D6                     
  1311                           ; BSR set to: 57
  1312   0014D6  0012               	return		;funcret
  1313   0014D8                     __end_of_mdb_init:
  1314                           	callstack 0
  1315                           
  1316 ;; *************** function _mdb_security *****************
  1317 ;; Defined at:
  1318 ;;		line 157 in file "mdb.c"
  1319 ;; Parameters:    Size  Location     Type
  1320 ;;		None
  1321 ;; Auto vars:     Size  Location     Type
  1322 ;;		None
  1323 ;; Return value:  Size  Location     Type
  1324 ;;                  1    wreg      void 
  1325 ;; Registers used:
  1326 ;;		wreg, fsr2l, fsr2h, status,2, status,0, cstack
  1327 ;; Tracked objects:
  1328 ;;		On entry : 0/0
  1329 ;;		On exit  : 0/0
  1330 ;;		Unchanged: 0/0
  1331 ;; Data sizes:     COMRAM   BANK0   BANK1   BANK2   BANK3   BANK4   BANK5   BANK6   BANK7
  1332 ;;      Params:         0       0       0       0       0       0       0       0       0
  1333 ;;      Locals:         0       0       0       0       0       0       0       0       0
  1334 ;;      Temps:          0       0       0       0       0       0       0       0       0
  1335 ;;      Totals:         0       0       0       0       0       0       0       0       0
  1336 ;;Total ram usage:        0 bytes
  1337 ;; Hardware stack levels used: 1
  1338 ;; Hardware stack levels required when called: 12
  1339 ;; This function calls:
  1340 ;;		_init_mdbdata
  1341 ;;		_mdb_comm
  1342 ;; This function is called by:
  1343 ;;		_mdb_init
  1344 ;; This function uses a non-reentrant model
  1345 ;;
  1346                           
  1347                           	psect	text3
  1348   001956                     __ptext3:
  1349                           	callstack 0
  1350   001956                     _mdb_security:
  1351                           	callstack 17
  1352   001956                     
  1353                           ;mdb.c: 159:     init_mdbdata(0x00);
  1354   001956  0E00               	movlw	0
  1355   001958  EC34  F00D         	call	_init_mdbdata
  1356   00195C  0E01               	movlw	1
  1357   00195E  6E39               	movwf	mdb_comm@mcount^0,c
  1358   001960  0E32               	movlw	50
  1359   001962  ECC3  F005         	call	_mdb_comm
  1360   001966  0012               	return		;funcret
  1361   001968                     __end_of_mdb_security:
  1362                           	callstack 0
  1363                           
  1364 ;; *************** function _mdb_reset *****************
  1365 ;; Defined at:
  1366 ;;		line 40 in file "mdb.c"
  1367 ;; Parameters:    Size  Location     Type
  1368 ;;		None
  1369 ;; Auto vars:     Size  Location     Type
  1370 ;;  i               1    0        unsigned char 
  1371 ;;  i               1   19[COMRAM] unsigned char 
  1372 ;; Return value:  Size  Location     Type
  1373 ;;                  1    wreg      unsigned char 
  1374 ;; Registers used:
  1375 ;;		wreg, fsr2l, fsr2h, status,2, status,0, cstack
  1376 ;; Tracked objects:
  1377 ;;		On entry : 0/0
  1378 ;;		On exit  : 0/0
  1379 ;;		Unchanged: 0/0
  1380 ;; Data sizes:     COMRAM   BANK0   BANK1   BANK2   BANK3   BANK4   BANK5   BANK6   BANK7
  1381 ;;      Params:         0       0       0       0       0       0       0       0       0
  1382 ;;      Locals:         1       0       0       0       0       0       0       0       0
  1383 ;;      Temps:          1       0       0       0       0       0       0       0       0
  1384 ;;      Totals:         2       0       0       0       0       0       0       0       0
  1385 ;;Total ram usage:        2 bytes
  1386 ;; Hardware stack levels used: 1
  1387 ;; Hardware stack levels required when called: 12
  1388 ;; This function calls:
  1389 ;;		_mdb_comm
  1390 ;; This function is called by:
  1391 ;;		_mdb_init
  1392 ;; This function uses a non-reentrant model
  1393 ;;
  1394                           
  1395                           	psect	text4
  1396   0012B8                     __ptext4:
  1397                           	callstack 0
  1398   0012B8                     _mdb_reset:
  1399                           	callstack 17
  1400   0012B8                     
  1401                           ;mdb.c: 45:     mdbflags.timeout = 1;
  1402   0012B8  861D               	bsf	_mdbflags^0,3,c
  1403                           
  1404                           ;mdb.c: 46:     while(mdbflags.timeout)
  1405   0012BA  EF64  F009         	goto	l3933
  1406   0012BE                     l3931:
  1407   0012BE  0E00               	movlw	0
  1408   0012C0  6E39               	movwf	mdb_comm@mcount^0,c
  1409   0012C2  0E30               	movlw	48
  1410   0012C4  ECC3  F005         	call	_mdb_comm
  1411   0012C8                     l3933:
  1412                           
  1413                           ;mdb.c: 46:     while(mdbflags.timeout)
  1414   0012C8  B61D               	btfsc	_mdbflags^0,3,c
  1415   0012CA  EF69  F009         	goto	u1691
  1416   0012CE  EF6B  F009         	goto	u1690
  1417   0012D2                     u1691:
  1418   0012D2  EF5F  F009         	goto	l3931
  1419   0012D6                     u1690:
  1420   0012D6  F000               	nop		;# 
  1421   0012D8  0E00               	movlw	0
  1422   0012DA  6E39               	movwf	mdb_comm@mcount^0,c
  1423   0012DC  0E33               	movlw	51
  1424   0012DE  ECC3  F005         	call	_mdb_comm
  1425   0012E2  6E3D               	movwf	mdb_reset@i_2612^0,c
  1426   0012E4  063D               	decf	mdb_reset@i_2612^0,f,c
  1427   0012E6  0E60               	movlw	low _mdbdata
  1428   0012E8  243D               	addwf	mdb_reset@i_2612^0,w,c
  1429   0012EA  6ED9               	movwf	fsr2l,c
  1430   0012EC  6ADA               	clrf	fsr2h,c
  1431   0012EE  0E00               	movlw	high _mdbdata
  1432   0012F0  22DA               	addwfc	fsr2h,f,c
  1433   0012F2  0E06               	movlw	6
  1434   0012F4  18DE               	xorwf	postinc2,w,c
  1435   0012F6  A4D8               	btfss	status,2,c
  1436   0012F8  EF80  F009         	goto	u1701
  1437   0012FC  EF82  F009         	goto	u1700
  1438   001300                     u1701:
  1439   001300  EF87  F009         	goto	l1252
  1440   001304                     u1700:
  1441   001304  0E00               	movlw	0
  1442   001306  6E39               	movwf	mdb_comm@mcount^0,c
  1443   001308  0E33               	movlw	51
  1444   00130A  ECC3  F005         	call	_mdb_comm
  1445   00130E                     l1252:
  1446   00130E  0012               	return		;funcret
  1447   001310                     __end_of_mdb_reset:
  1448                           	callstack 0
  1449                           
  1450 ;; *************** function _mdb_noten *****************
  1451 ;; Defined at:
  1452 ;;		line 141 in file "mdb.c"
  1453 ;; Parameters:    Size  Location     Type
  1454 ;;		None
  1455 ;; Auto vars:     Size  Location     Type
  1456 ;;		None
  1457 ;; Return value:  Size  Location     Type
  1458 ;;                  1    wreg      void 
  1459 ;; Registers used:
  1460 ;;		wreg, fsr2l, fsr2h, status,2, status,0, cstack
  1461 ;; Tracked objects:
  1462 ;;		On entry : 0/0
  1463 ;;		On exit  : 0/0
  1464 ;;		Unchanged: 0/0
  1465 ;; Data sizes:     COMRAM   BANK0   BANK1   BANK2   BANK3   BANK4   BANK5   BANK6   BANK7
  1466 ;;      Params:         0       0       0       0       0       0       0       0       0
  1467 ;;      Locals:         0       0       0       0       0       0       0       0       0
  1468 ;;      Temps:          0       0       0       0       0       0       0       0       0
  1469 ;;      Totals:         0       0       0       0       0       0       0       0       0
  1470 ;;Total ram usage:        0 bytes
  1471 ;; Hardware stack levels used: 1
  1472 ;; Hardware stack levels required when called: 12
  1473 ;; This function calls:
  1474 ;;		_init_mdbdata
  1475 ;;		_mdb_comm
  1476 ;; This function is called by:
  1477 ;;		_mdb_init
  1478 ;;		_note_disable
  1479 ;; This function uses a non-reentrant model
  1480 ;;
  1481                           
  1482                           	psect	text5
  1483   00172E                     __ptext5:
  1484                           	callstack 0
  1485   00172E                     _mdb_noten:
  1486                           	callstack 17
  1487   00172E                     
  1488                           ;mdb.c: 144:     init_mdbdata(0x00);
  1489   00172E  0E00               	movlw	0
  1490   001730  EC34  F00D         	call	_init_mdbdata
  1491   001734                     
  1492                           ;mdb.c: 146:     mcount = 3;
  1493   001734  0E03               	movlw	3
  1494   001736  6E20               	movwf	_mcount^0,c
  1495   001738                     
  1496                           ;mdb.c: 148:     mdbdata[0] = 0x00;
  1497   001738  0E00               	movlw	0
  1498   00173A  0100               	movlb	0	; () banked
  1499   00173C  6F60               	movwf	_mdbdata& (0+255),b
  1500   00173E                     
  1501                           ; BSR set to: 0
  1502                           ;mdb.c: 149:     mdbdata[1] = 0x00;
  1503   00173E  0E00               	movlw	0
  1504   001740  6F61               	movwf	(_mdbdata+1)& (0+255),b
  1505   001742                     
  1506                           ; BSR set to: 0
  1507                           ;mdb.c: 151:     mdbdata[2] = noteen_byte;
  1508   001742  C01B  F062         	movff	_noteen_byte,_mdbdata+2	;volatile
  1509   001746                     
  1510                           ; BSR set to: 0
  1511                           ;mdb.c: 153:     mdbdata[3] = 0x00;
  1512   001746  0E00               	movlw	0
  1513   001748  6F63               	movwf	(_mdbdata+3)& (0+255),b
  1514   00174A                     
  1515                           ; BSR set to: 0
  1516   00174A  C020  F039         	movff	_mcount,mdb_comm@mcount
  1517   00174E  0E34               	movlw	52
  1518   001750  ECC3  F005         	call	_mdb_comm
  1519   001754  6E20               	movwf	_mcount^0,c
  1520   001756                     
  1521                           ;mdb.c: 155:     mdbflags.vending = 0;
  1522   001756  981D               	bcf	_mdbflags^0,4,c
  1523   001758  0012               	return		;funcret
  1524   00175A                     __end_of_mdb_noten:
  1525                           	callstack 0
  1526                           
  1527 ;; *************** function _mdb_comm *****************
  1528 ;; Defined at:
  1529 ;;		line 295 in file "mdb.c"
  1530 ;; Parameters:    Size  Location     Type
  1531 ;;  slvadd          1    wreg     unsigned char 
  1532 ;;  mcount          1   15[COMRAM] unsigned char 
  1533 ;; Auto vars:     Size  Location     Type
  1534 ;;  slvadd          1   16[COMRAM] unsigned char 
  1535 ;;  i               1   17[COMRAM] unsigned char 
  1536 ;; Return value:  Size  Location     Type
  1537 ;;                  1    wreg      unsigned char 
  1538 ;; Registers used:
  1539 ;;		wreg, fsr2l, fsr2h, status,2, status,0, cstack
  1540 ;; Tracked objects:
  1541 ;;		On entry : 0/0
  1542 ;;		On exit  : 0/0
  1543 ;;		Unchanged: 0/0
  1544 ;; Data sizes:     COMRAM   BANK0   BANK1   BANK2   BANK3   BANK4   BANK5   BANK6   BANK7
  1545 ;;      Params:         1       0       0       0       0       0       0       0       0
  1546 ;;      Locals:         2       0       0       0       0       0       0       0       0
  1547 ;;      Temps:          0       0       0       0       0       0       0       0       0
  1548 ;;      Totals:         3       0       0       0       0       0       0       0       0
  1549 ;;Total ram usage:        3 bytes
  1550 ;; Hardware stack levels used: 1
  1551 ;; Hardware stack levels required when called: 11
  1552 ;; This function calls:
  1553 ;;		_TMR0_Initialize
  1554 ;;		_UART1_SetAddresstoTransmit
  1555 ;;		_UART9_Read
  1556 ;;		_init_mdbdata
  1557 ;;		_mdb_transmit
  1558 ;;		_mdb_waitr
  1559 ;; This function is called by:
  1560 ;;		_mdb_init
  1561 ;;		_mdb_reset
  1562 ;;		_mdb_noten
  1563 ;;		_mdb_security
  1564 ;; This function uses a non-reentrant model
  1565 ;;
  1566                           
  1567                           	psect	text6
  1568   000B86                     __ptext6:
  1569                           	callstack 0
  1570   000B86                     _mdb_comm:
  1571                           	callstack 17
  1572                           
  1573                           ;incstack = 0
  1574                           ;mdb_comm@slvadd stored from wreg
  1575   000B86  6E3A               	movwf	mdb_comm@slvadd^0,c
  1576   000B88                     
  1577                           ;mdb.c: 307:     dbcount = 0;
  1578   000B88  0E00               	movlw	0
  1579   000B8A  6E04               	movwf	(_dbcount+1)^0,c
  1580   000B8C  0E00               	movlw	0
  1581   000B8E  6E03               	movwf	_dbcount^0,c
  1582   000B90                     
  1583                           ;mdb.c: 308:     UART1_SetAddresstoTransmit(slvadd);
  1584   000B90  503A               	movf	mdb_comm@slvadd^0,w,c
  1585   000B92  EC02  F00D         	call	_UART1_SetAddresstoTransmit
  1586   000B96                     
  1587                           ;mdb.c: 309:     mdbflags.nodata = 0;
  1588   000B96  9E1D               	bcf	_mdbflags^0,7,c
  1589   000B98                     
  1590                           ;mdb.c: 310:     if(!mcount)
  1591   000B98  5039               	movf	mdb_comm@mcount^0,w,c
  1592   000B9A  A4D8               	btfss	status,2,c
  1593   000B9C  EFD2  F005         	goto	u1501
  1594   000BA0  EFD4  F005         	goto	u1500
  1595   000BA4                     u1501:
  1596   000BA4  EFD8  F005         	goto	l3745
  1597   000BA8                     u1500:
  1598   000BA8                     
  1599                           ;mdb.c: 311:     {;mdb.c: 312:         mdb_transmit(slvadd);
  1600   000BA8  503A               	movf	mdb_comm@slvadd^0,w,c
  1601   000BAA  ECE1  F00C         	call	_mdb_transmit
  1602   000BAE                     
  1603                           ;mdb.c: 313:         mdbflags.nodata = 1;
  1604   000BAE  8E1D               	bsf	_mdbflags^0,7,c
  1605   000BB0                     l3745:
  1606                           
  1607                           ;mdb.c: 318:     chkbyte = slvadd;
  1608   000BB0  C03A  F01E         	movff	mdb_comm@slvadd,_chkbyte
  1609   000BB4                     
  1610                           ;mdb.c: 319:     if(!mdbflags.nodata)
  1611   000BB4  BE1D               	btfsc	_mdbflags^0,7,c
  1612   000BB6  EFDF  F005         	goto	u1511
  1613   000BBA  EFE1  F005         	goto	u1510
  1614   000BBE                     u1511:
  1615   000BBE  EF01  F006         	goto	l1314
  1616   000BC2                     u1510:
  1617   000BC2                     
  1618                           ;mdb.c: 320:     {;mdb.c: 321:         i = mcount + 1;
  1619   000BC2  2839               	incf	mdb_comm@mcount^0,w,c
  1620   000BC4  6E3B               	movwf	mdb_comm@i^0,c
  1621                           
  1622                           ;mdb.c: 322:         while(i != 0)
  1623   000BC6  EFF9  F005         	goto	l3759
  1624   000BCA                     l3751:
  1625                           
  1626                           ;mdb.c: 323:         {;mdb.c: 324:             mdb_transmit(mdbdata[mcount]);
  1627   000BCA  0E60               	movlw	low _mdbdata
  1628   000BCC  2439               	addwf	mdb_comm@mcount^0,w,c
  1629   000BCE  6ED9               	movwf	fsr2l,c
  1630   000BD0  6ADA               	clrf	fsr2h,c
  1631   000BD2  0E00               	movlw	high _mdbdata
  1632   000BD4  22DA               	addwfc	fsr2h,f,c
  1633   000BD6  50DF               	movf	indf2,w,c
  1634   000BD8  ECE1  F00C         	call	_mdb_transmit
  1635   000BDC                     
  1636                           ;mdb.c: 327:             chkbyte = chkbyte + mdbdata[mcount];
  1637   000BDC  0E60               	movlw	low _mdbdata
  1638   000BDE  2439               	addwf	mdb_comm@mcount^0,w,c
  1639   000BE0  6ED9               	movwf	fsr2l,c
  1640   000BE2  6ADA               	clrf	fsr2h,c
  1641   000BE4  0E00               	movlw	high _mdbdata
  1642   000BE6  22DA               	addwfc	fsr2h,f,c
  1643   000BE8  50DF               	movf	indf2,w,c
  1644   000BEA  241E               	addwf	_chkbyte^0,w,c
  1645   000BEC  6E1E               	movwf	_chkbyte^0,c
  1646   000BEE                     
  1647                           ;mdb.c: 328:             i--;
  1648   000BEE  063B               	decf	mdb_comm@i^0,f,c
  1649   000BF0                     
  1650                           ;mdb.c: 329:             mcount--;
  1651   000BF0  0639               	decf	mdb_comm@mcount^0,f,c
  1652   000BF2                     l3759:
  1653                           
  1654                           ;mdb.c: 322:         while(i != 0)
  1655   000BF2  503B               	movf	mdb_comm@i^0,w,c
  1656   000BF4  A4D8               	btfss	status,2,c
  1657   000BF6  EFFF  F005         	goto	u1521
  1658   000BFA  EF01  F006         	goto	u1520
  1659   000BFE                     u1521:
  1660   000BFE  EFE5  F005         	goto	l3751
  1661   000C02                     u1520:
  1662   000C02                     l1314:
  1663                           
  1664                           ;mdb.c: 332:     if(!mdbflags.nodata)
  1665   000C02  BE1D               	btfsc	_mdbflags^0,7,c
  1666   000C04  EF06  F006         	goto	u1531
  1667   000C08  EF08  F006         	goto	u1530
  1668   000C0C                     u1531:
  1669   000C0C  EF0B  F006         	goto	l3763
  1670   000C10                     u1530:
  1671   000C10                     
  1672                           ;mdb.c: 333:     {;mdb.c: 334:         mdb_transmit(chkbyte);
  1673   000C10  501E               	movf	_chkbyte^0,w,c
  1674   000C12  ECE1  F00C         	call	_mdb_transmit
  1675   000C16                     l3763:
  1676                           
  1677                           ;mdb.c: 347:     init_mdbdata(0xFF);
  1678   000C16  0EFF               	movlw	255
  1679   000C18  EC34  F00D         	call	_init_mdbdata
  1680   000C1C                     
  1681                           ;mdb.c: 348:     TMR0_Initialize();
  1682   000C1C  EC8B  F00C         	call	_TMR0_Initialize	;wreg free
  1683   000C20                     
  1684                           ;mdb.c: 349:     mdbflags.isdata = 0;
  1685   000C20  901D               	bcf	_mdbflags^0,0,c
  1686   000C22                     
  1687                           ;mdb.c: 350:     i = 0;
  1688   000C22  0E00               	movlw	0
  1689   000C24  6E3B               	movwf	mdb_comm@i^0,c
  1690                           
  1691                           ;mdb.c: 353:     while(!PIR3bits.TMR0IF && !mdbflags.isdata)
  1692   000C26  EF37  F006         	goto	l1319
  1693   000C2A                     l3771:
  1694                           
  1695                           ; BSR set to: 57
  1696                           ;mdb.c: 354:     {;mdb.c: 356:         dbcount++;
  1697   000C2A  4A03               	infsnz	_dbcount^0,f,c
  1698   000C2C  2A04               	incf	(_dbcount+1)^0,f,c
  1699   000C2E                     
  1700                           ; BSR set to: 57
  1701                           ;mdb.c: 357:         mdbflags.isdata = 0;
  1702   000C2E  901D               	bcf	_mdbflags^0,0,c
  1703                           
  1704                           ;mdb.c: 360:         while(PIR3bits.U1RXIF && !mdbflags.isdata)
  1705   000C30  EF28  F006         	goto	l3783
  1706   000C34                     l3775:
  1707                           
  1708                           ; BSR set to: 57
  1709                           ;mdb.c: 361:         {;mdb.c: 364:             mdbdata[i] = UART9_Read();
  1710   000C34  0E60               	movlw	low _mdbdata
  1711   000C36  243B               	addwf	mdb_comm@i^0,w,c
  1712   000C38  6ED9               	movwf	fsr2l,c
  1713   000C3A  6ADA               	clrf	fsr2h,c
  1714   000C3C  0E00               	movlw	high _mdbdata
  1715   000C3E  22DA               	addwfc	fsr2h,f,c
  1716   000C40  EC29  F00C         	call	_UART9_Read	;wreg free
  1717   000C44  6EDF               	movwf	indf2,c
  1718   000C46                     
  1719                           ;mdb.c: 365:             mdb_waitr();
  1720   000C46  ECB4  F00C         	call	_mdb_waitr	;wreg free
  1721   000C4A                     
  1722                           ;mdb.c: 368:             TMR0_Initialize();
  1723   000C4A  EC8B  F00C         	call	_TMR0_Initialize	;wreg free
  1724   000C4E                     
  1725                           ;mdb.c: 369:             i++;
  1726   000C4E  2A3B               	incf	mdb_comm@i^0,f,c
  1727   000C50                     l3783:
  1728                           
  1729                           ;mdb.c: 360:         while(PIR3bits.U1RXIF && !mdbflags.isdata)
  1730   000C50  0139               	movlb	57	; () banked
  1731   000C52  A7A3               	btfss	163,3,b	;volatile
  1732   000C54  EF2E  F006         	goto	u1541
  1733   000C58  EF30  F006         	goto	u1540
  1734   000C5C                     u1541:
  1735   000C5C  EF37  F006         	goto	l1319
  1736   000C60                     u1540:
  1737   000C60                     
  1738                           ; BSR set to: 57
  1739   000C60  A01D               	btfss	_mdbflags^0,0,c
  1740   000C62  EF35  F006         	goto	u1551
  1741   000C66  EF37  F006         	goto	u1550
  1742   000C6A                     u1551:
  1743   000C6A  EF1A  F006         	goto	l3775
  1744   000C6E                     u1550:
  1745   000C6E                     l1319:
  1746                           
  1747                           ;mdb.c: 353:     while(!PIR3bits.TMR0IF && !mdbflags.isdata)
  1748   000C6E  0139               	movlb	57	; () banked
  1749   000C70  BFA3               	btfsc	163,7,b	;volatile
  1750   000C72  EF3D  F006         	goto	u1561
  1751   000C76  EF3F  F006         	goto	u1560
  1752   000C7A                     u1561:
  1753   000C7A  EF46  F006         	goto	l3789
  1754   000C7E                     u1560:
  1755   000C7E                     
  1756                           ; BSR set to: 57
  1757   000C7E  A01D               	btfss	_mdbflags^0,0,c
  1758   000C80  EF44  F006         	goto	u1571
  1759   000C84  EF46  F006         	goto	u1570
  1760   000C88                     u1571:
  1761   000C88  EF15  F006         	goto	l3771
  1762   000C8C                     u1570:
  1763   000C8C                     l3789:
  1764                           
  1765                           ; BSR set to: 57
  1766                           ;mdb.c: 375:     i--;
  1767   000C8C  063B               	decf	mdb_comm@i^0,f,c
  1768   000C8E                     
  1769                           ; BSR set to: 57
  1770                           ;mdb.c: 377:     mdbflags.timeout = PIR3bits.TMR0IF;
  1771   000C8E  AFA3               	btfss	163,7,b	;volatile
  1772   000C90  D002               	bra	u1585
  1773   000C92  861D               	bsf	_mdbflags^0,3,c
  1774   000C94  D001               	bra	u1587
  1775   000C96                     u1585:
  1776   000C96  961D               	bcf	_mdbflags^0,3,c
  1777   000C98                     u1587:
  1778   000C98                     
  1779                           ;mdb.c: 379:     if(mdbflags.isdata == 1 && mdbdata[i] != 0x00)
  1780   000C98  A01D               	btfss	_mdbflags^0,0,c
  1781   000C9A  EF51  F006         	goto	u1591
  1782   000C9E  EF53  F006         	goto	u1590
  1783   000CA2                     u1591:
  1784   000CA2  EF64  F006         	goto	l3799
  1785   000CA6                     u1590:
  1786   000CA6  0E60               	movlw	low _mdbdata
  1787   000CA8  243B               	addwf	mdb_comm@i^0,w,c
  1788   000CAA  6ED9               	movwf	fsr2l,c
  1789   000CAC  6ADA               	clrf	fsr2h,c
  1790   000CAE  0E00               	movlw	high _mdbdata
  1791   000CB0  22DA               	addwfc	fsr2h,f,c
  1792   000CB2  50DF               	movf	indf2,w,c
  1793   000CB4  B4D8               	btfsc	status,2,c
  1794   000CB6  EF5F  F006         	goto	u1601
  1795   000CBA  EF61  F006         	goto	u1600
  1796   000CBE                     u1601:
  1797   000CBE  EF64  F006         	goto	l3799
  1798   000CC2                     u1600:
  1799   000CC2                     
  1800                           ;mdb.c: 380:     {;mdb.c: 381:         mdb_transmit(0x00);
  1801   000CC2  0E00               	movlw	0
  1802   000CC4  ECE1  F00C         	call	_mdb_transmit
  1803   000CC8                     l3799:
  1804                           
  1805                           ;mdb.c: 385:     return(i);
  1806   000CC8  503B               	movf	mdb_comm@i^0,w,c
  1807   000CCA  0012               	return		;funcret
  1808   000CCC                     __end_of_mdb_comm:
  1809                           	callstack 0
  1810                           
  1811 ;; *************** function _mdb_waitr *****************
  1812 ;; Defined at:
  1813 ;;		line 420 in file "mdb.c"
  1814 ;; Parameters:    Size  Location     Type
  1815 ;;		None
  1816 ;; Auto vars:     Size  Location     Type
  1817 ;;		None
  1818 ;; Return value:  Size  Location     Type
  1819 ;;                  1    wreg      void 
  1820 ;; Registers used:
  1821 ;;		None
  1822 ;; Tracked objects:
  1823 ;;		On entry : 0/0
  1824 ;;		On exit  : 0/0
  1825 ;;		Unchanged: 0/0
  1826 ;; Data sizes:     COMRAM   BANK0   BANK1   BANK2   BANK3   BANK4   BANK5   BANK6   BANK7
  1827 ;;      Params:         0       0       0       0       0       0       0       0       0
  1828 ;;      Locals:         0       0       0       0       0       0       0       0       0
  1829 ;;      Temps:          0       0       0       0       0       0       0       0       0
  1830 ;;      Totals:         0       0       0       0       0       0       0       0       0
  1831 ;;Total ram usage:        0 bytes
  1832 ;; Hardware stack levels used: 1
  1833 ;; Hardware stack levels required when called: 9
  1834 ;; This function calls:
  1835 ;;		Nothing
  1836 ;; This function is called by:
  1837 ;;		_mdb_comm
  1838 ;; This function uses a non-reentrant model
  1839 ;;
  1840                           
  1841                           	psect	text7
  1842   001968                     __ptext7:
  1843                           	callstack 0
  1844   001968                     _mdb_waitr:
  1845                           	callstack 18
  1846   001968                     l1348:
  1847                           
  1848                           ;mdb.c: 422:     while(!U1FIFObits.RXIDL )
  1849   001968  013D               	movlb	61	; () banked
  1850   00196A  A7F7               	btfss	247,3,b	;volatile
  1851   00196C  EFBA  F00C         	goto	u1461
  1852   001970  EFBC  F00C         	goto	u1460
  1853   001974                     u1461:
  1854   001974  EFB4  F00C         	goto	l1348
  1855   001978                     u1460:
  1856   001978                     
  1857                           ; BSR set to: 61
  1858   001978  0012               	return		;funcret
  1859   00197A                     __end_of_mdb_waitr:
  1860                           	callstack 0
  1861                           
  1862 ;; *************** function _mdb_transmit *****************
  1863 ;; Defined at:
  1864 ;;		line 516 in file "mdb.c"
  1865 ;; Parameters:    Size  Location     Type
  1866 ;;  txbyte          1    wreg     unsigned char 
  1867 ;; Auto vars:     Size  Location     Type
  1868 ;;  txbyte          1   14[COMRAM] unsigned char 
  1869 ;; Return value:  Size  Location     Type
  1870 ;;                  1    wreg      void 
  1871 ;; Registers used:
  1872 ;;		wreg, status,2, cstack
  1873 ;; Tracked objects:
  1874 ;;		On entry : 0/0
  1875 ;;		On exit  : 0/0
  1876 ;;		Unchanged: 0/0
  1877 ;; Data sizes:     COMRAM   BANK0   BANK1   BANK2   BANK3   BANK4   BANK5   BANK6   BANK7
  1878 ;;      Params:         0       0       0       0       0       0       0       0       0
  1879 ;;      Locals:         1       0       0       0       0       0       0       0       0
  1880 ;;      Temps:          0       0       0       0       0       0       0       0       0
  1881 ;;      Totals:         1       0       0       0       0       0       0       0       0
  1882 ;;Total ram usage:        1 bytes
  1883 ;; Hardware stack levels used: 1
  1884 ;; Hardware stack levels required when called: 10
  1885 ;; This function calls:
  1886 ;;		_UART1_Write
  1887 ;;		_mdb_waitx
  1888 ;; This function is called by:
  1889 ;;		_mdb_comm
  1890 ;;		_mdb_test
  1891 ;; This function uses a non-reentrant model
  1892 ;;
  1893                           
  1894                           	psect	text8
  1895   0019C2                     __ptext8:
  1896                           	callstack 0
  1897   0019C2                     _mdb_transmit:
  1898                           	callstack 17
  1899                           
  1900                           ; BSR set to: 61
  1901                           ;incstack = 0
  1902                           ;mdb_transmit@txbyte stored from wreg
  1903   0019C2  6E38               	movwf	mdb_transmit@txbyte^0,c
  1904   0019C4                     
  1905                           ;mdb.c: 516: void mdb_transmit(uint8_t txbyte);mdb.c: 517: {;mdb.c: 518:     UART1_Write
      +                          (txbyte);
  1906   0019C4  5038               	movf	mdb_transmit@txbyte^0,w,c
  1907   0019C6  EC4B  F00C         	call	_UART1_Write
  1908   0019CA                     
  1909                           ;mdb.c: 519:     mdb_waitx();
  1910   0019CA  ECBD  F00C         	call	_mdb_waitx	;wreg free
  1911   0019CE  0012               	return		;funcret
  1912   0019D0                     __end_of_mdb_transmit:
  1913                           	callstack 0
  1914                           
  1915 ;; *************** function _mdb_waitx *****************
  1916 ;; Defined at:
  1917 ;;		line 401 in file "mdb.c"
  1918 ;; Parameters:    Size  Location     Type
  1919 ;;		None
  1920 ;; Auto vars:     Size  Location     Type
  1921 ;;		None
  1922 ;; Return value:  Size  Location     Type
  1923 ;;                  1    wreg      void 
  1924 ;; Registers used:
  1925 ;;		None
  1926 ;; Tracked objects:
  1927 ;;		On entry : 0/0
  1928 ;;		On exit  : 0/0
  1929 ;;		Unchanged: 0/0
  1930 ;; Data sizes:     COMRAM   BANK0   BANK1   BANK2   BANK3   BANK4   BANK5   BANK6   BANK7
  1931 ;;      Params:         0       0       0       0       0       0       0       0       0
  1932 ;;      Locals:         0       0       0       0       0       0       0       0       0
  1933 ;;      Temps:          0       0       0       0       0       0       0       0       0
  1934 ;;      Totals:         0       0       0       0       0       0       0       0       0
  1935 ;;Total ram usage:        0 bytes
  1936 ;; Hardware stack levels used: 1
  1937 ;; Hardware stack levels required when called: 9
  1938 ;; This function calls:
  1939 ;;		Nothing
  1940 ;; This function is called by:
  1941 ;;		_mdb_transmit
  1942 ;; This function uses a non-reentrant model
  1943 ;;
  1944                           
  1945                           	psect	text9
  1946   00197A                     __ptext9:
  1947                           	callstack 0
  1948   00197A                     _mdb_waitx:
  1949                           	callstack 17
  1950   00197A                     l1336:
  1951                           
  1952                           ;mdb.c: 403:     while(!U1ERRIRbits.TXMTIF)
  1953   00197A  013D               	movlb	61	; () banked
  1954   00197C  AFF9               	btfss	249,7,b	;volatile
  1955   00197E  EFC3  F00C         	goto	u1381
  1956   001982  EFC5  F00C         	goto	u1380
  1957   001986                     u1381:
  1958   001986  EFBD  F00C         	goto	l1336
  1959   00198A                     u1380:
  1960   00198A                     
  1961                           ; BSR set to: 61
  1962   00198A  0012               	return		;funcret
  1963   00198C                     __end_of_mdb_waitx:
  1964                           	callstack 0
  1965                           
  1966 ;; *************** function _UART1_Write *****************
  1967 ;; Defined at:
  1968 ;;		line 170 in file "mcc_generated_files/uart1.c"
  1969 ;; Parameters:    Size  Location     Type
  1970 ;;  txData          1    wreg     unsigned char 
  1971 ;; Auto vars:     Size  Location     Type
  1972 ;;  txData          1   13[COMRAM] unsigned char 
  1973 ;; Return value:  Size  Location     Type
  1974 ;;                  1    wreg      void 
  1975 ;; Registers used:
  1976 ;;		wreg
  1977 ;; Tracked objects:
  1978 ;;		On entry : 0/0
  1979 ;;		On exit  : 0/0
  1980 ;;		Unchanged: 0/0
  1981 ;; Data sizes:     COMRAM   BANK0   BANK1   BANK2   BANK3   BANK4   BANK5   BANK6   BANK7
  1982 ;;      Params:         0       0       0       0       0       0       0       0       0
  1983 ;;      Locals:         1       0       0       0       0       0       0       0       0
  1984 ;;      Temps:          0       0       0       0       0       0       0       0       0
  1985 ;;      Totals:         1       0       0       0       0       0       0       0       0
  1986 ;;Total ram usage:        1 bytes
  1987 ;; Hardware stack levels used: 1
  1988 ;; Hardware stack levels required when called: 9
  1989 ;; This function calls:
  1990 ;;		Nothing
  1991 ;; This function is called by:
  1992 ;;		_mdb_transmit
  1993 ;; This function uses a non-reentrant model
  1994 ;;
  1995                           
  1996                           	psect	text10
  1997   001896                     __ptext10:
  1998                           	callstack 0
  1999   001896                     _UART1_Write:
  2000                           	callstack 17
  2001                           
  2002                           ; BSR set to: 61
  2003                           ;incstack = 0
  2004                           ;UART1_Write@txData stored from wreg
  2005   001896  6E37               	movwf	UART1_Write@txData^0,c
  2006   001898                     l454:
  2007                           
  2008                           ;mcc_generated_files/uart1.c: 172:     while(0 == PIR3bits.U1TXIF)
  2009   001898  0139               	movlb	57	; () banked
  2010   00189A  A9A3               	btfss	163,4,b	;volatile
  2011   00189C  EF52  F00C         	goto	u1371
  2012   0018A0  EF54  F00C         	goto	u1370
  2013   0018A4                     u1371:
  2014   0018A4  EF4C  F00C         	goto	l454
  2015   0018A8                     u1370:
  2016   0018A8                     
  2017                           ; BSR set to: 57
  2018                           ;mcc_generated_files/uart1.c: 176:     U1TXB = txData;
  2019   0018A8  0060  F0DF  FDEA   	movff	UART1_Write@txData,15850	;volatile
  2020   0018AE                     
  2021                           ; BSR set to: 57
  2022   0018AE  0012               	return		;funcret
  2023   0018B0                     __end_of_UART1_Write:
  2024                           	callstack 0
  2025                           
  2026 ;; *************** function _init_mdbdata *****************
  2027 ;; Defined at:
  2028 ;;		line 13 in file "mdb.c"
  2029 ;; Parameters:    Size  Location     Type
  2030 ;;  initdata        1    wreg     unsigned char 
  2031 ;; Auto vars:     Size  Location     Type
  2032 ;;  initdata        1   13[COMRAM] unsigned char 
  2033 ;; Return value:  Size  Location     Type
  2034 ;;                  1    wreg      void 
  2035 ;; Registers used:
  2036 ;;		wreg
  2037 ;; Tracked objects:
  2038 ;;		On entry : 0/0
  2039 ;;		On exit  : 0/0
  2040 ;;		Unchanged: 0/0
  2041 ;; Data sizes:     COMRAM   BANK0   BANK1   BANK2   BANK3   BANK4   BANK5   BANK6   BANK7
  2042 ;;      Params:         0       0       0       0       0       0       0       0       0
  2043 ;;      Locals:         1       0       0       0       0       0       0       0       0
  2044 ;;      Temps:          0       0       0       0       0       0       0       0       0
  2045 ;;      Totals:         1       0       0       0       0       0       0       0       0
  2046 ;;Total ram usage:        1 bytes
  2047 ;; Hardware stack levels used: 1
  2048 ;; Hardware stack levels required when called: 9
  2049 ;; This function calls:
  2050 ;;		Nothing
  2051 ;; This function is called by:
  2052 ;;		_mdb_noten
  2053 ;;		_mdb_security
  2054 ;;		_mdb_comm
  2055 ;; This function uses a non-reentrant model
  2056 ;;
  2057                           
  2058                           	psect	text11
  2059   001A68                     __ptext11:
  2060                           	callstack 0
  2061   001A68                     _init_mdbdata:
  2062                           	callstack 18
  2063                           
  2064                           ; BSR set to: 57
  2065                           ;incstack = 0
  2066                           ;init_mdbdata@initdata stored from wreg
  2067   001A68  6E37               	movwf	init_mdbdata@initdata^0,c
  2068   001A6A                     
  2069                           ;mdb.c: 13: void init_mdbdata(uint8_t initdata);mdb.c: 14: {;mdb.c: 15:     mdbdata[0] =
      +                           initdata;
  2070   001A6A  C037  F060         	movff	init_mdbdata@initdata,_mdbdata
  2071   001A6E  0012               	return		;funcret
  2072   001A70                     __end_of_init_mdbdata:
  2073                           	callstack 0
  2074                           
  2075 ;; *************** function _UART9_Read *****************
  2076 ;; Defined at:
  2077 ;;		line 409 in file "mdb.c"
  2078 ;; Parameters:    Size  Location     Type
  2079 ;;		None
  2080 ;; Auto vars:     Size  Location     Type
  2081 ;;		None
  2082 ;; Return value:  Size  Location     Type
  2083 ;;                  1    wreg      unsigned char 
  2084 ;; Registers used:
  2085 ;;		wreg, status,2
  2086 ;; Tracked objects:
  2087 ;;		On entry : 0/0
  2088 ;;		On exit  : 0/0
  2089 ;;		Unchanged: 0/0
  2090 ;; Data sizes:     COMRAM   BANK0   BANK1   BANK2   BANK3   BANK4   BANK5   BANK6   BANK7
  2091 ;;      Params:         0       0       0       0       0       0       0       0       0
  2092 ;;      Locals:         0       0       0       0       0       0       0       0       0
  2093 ;;      Temps:          0       0       0       0       0       0       0       0       0
  2094 ;;      Totals:         0       0       0       0       0       0       0       0       0
  2095 ;;Total ram usage:        0 bytes
  2096 ;; Hardware stack levels used: 1
  2097 ;; Hardware stack levels required when called: 9
  2098 ;; This function calls:
  2099 ;;		Nothing
  2100 ;; This function is called by:
  2101 ;;		_mdb_comm
  2102 ;; This function uses a non-reentrant model
  2103 ;;
  2104                           
  2105                           	psect	text12
  2106   001852                     __ptext12:
  2107                           	callstack 0
  2108   001852                     _UART9_Read:
  2109                           	callstack 18
  2110   001852                     l1342:
  2111                           
  2112                           ;mdb.c: 411:     while(!PIR3bits.U1RXIF)
  2113   001852  0139               	movlb	57	; () banked
  2114   001854  A7A3               	btfss	163,3,b	;volatile
  2115   001856  EF2F  F00C         	goto	u1441
  2116   00185A  EF31  F00C         	goto	u1440
  2117   00185E                     u1441:
  2118   00185E  EF29  F00C         	goto	l1342
  2119   001862                     u1440:
  2120   001862                     
  2121                           ; BSR set to: 57
  2122                           ;mdb.c: 415:     mdbflags.isdata = U1ERRIRbits.PERIF;
  2123   001862  013D               	movlb	61	; () banked
  2124   001864  ADF9               	btfss	249,6,b	;volatile
  2125   001866  D002               	bra	u1455
  2126   001868  801D               	bsf	_mdbflags^0,0,c
  2127   00186A  D001               	bra	u1457
  2128   00186C                     u1455:
  2129   00186C  901D               	bcf	_mdbflags^0,0,c
  2130   00186E                     u1457:
  2131   00186E                     
  2132                           ;mdb.c: 416:     return U1RXB;
  2133   00186E  013D               	movlb	61	; () banked
  2134   001870  51E8               	movf	232,w,b	;volatile
  2135   001872                     
  2136                           ; BSR set to: 61
  2137   001872  0012               	return		;funcret
  2138   001874                     __end_of_UART9_Read:
  2139                           	callstack 0
  2140                           
  2141 ;; *************** function _UART1_SetAddresstoTransmit *****************
  2142 ;; Defined at:
  2143 ;;		line 179 in file "mcc_generated_files/uart1.c"
  2144 ;; Parameters:    Size  Location     Type
  2145 ;;  txAddress       1    wreg     unsigned char 
  2146 ;; Auto vars:     Size  Location     Type
  2147 ;;  txAddress       1   13[COMRAM] unsigned char 
  2148 ;; Return value:  Size  Location     Type
  2149 ;;                  1    wreg      void 
  2150 ;; Registers used:
  2151 ;;		wreg
  2152 ;; Tracked objects:
  2153 ;;		On entry : 0/0
  2154 ;;		On exit  : 0/0
  2155 ;;		Unchanged: 0/0
  2156 ;; Data sizes:     COMRAM   BANK0   BANK1   BANK2   BANK3   BANK4   BANK5   BANK6   BANK7
  2157 ;;      Params:         0       0       0       0       0       0       0       0       0
  2158 ;;      Locals:         1       0       0       0       0       0       0       0       0
  2159 ;;      Temps:          0       0       0       0       0       0       0       0       0
  2160 ;;      Totals:         1       0       0       0       0       0       0       0       0
  2161 ;;Total ram usage:        1 bytes
  2162 ;; Hardware stack levels used: 1
  2163 ;; Hardware stack levels required when called: 9
  2164 ;; This function calls:
  2165 ;;		Nothing
  2166 ;; This function is called by:
  2167 ;;		_mdb_comm
  2168 ;; This function uses a non-reentrant model
  2169 ;;
  2170                           
  2171                           	psect	text13
  2172   001A04                     __ptext13:
  2173                           	callstack 0
  2174   001A04                     _UART1_SetAddresstoTransmit:
  2175                           	callstack 18
  2176                           
  2177                           ; BSR set to: 61
  2178                           ;incstack = 0
  2179                           ;UART1_SetAddresstoTransmit@txAddress stored from wreg
  2180   001A04  6E37               	movwf	UART1_SetAddresstoTransmit@txAddress^0,c
  2181   001A06                     
  2182                           ;mcc_generated_files/uart1.c: 179: void UART1_SetAddresstoTransmit(uint8_t txAddress);mc
      +                          c_generated_files/uart1.c: 180: {;mcc_generated_files/uart1.c: 181:     U1P1L = txAddres
      +                          s;
  2183   001A06  0060  F0DF  FDEC   	movff	UART1_SetAddresstoTransmit@txAddress,15852	;volatile
  2184   001A0C  0012               	return		;funcret
  2185   001A0E                     __end_of_UART1_SetAddresstoTransmit:
  2186                           	callstack 0
  2187                           
  2188 ;; *************** function _enter_service *****************
  2189 ;; Defined at:
  2190 ;;		line 131 in file "vend.c"
  2191 ;; Parameters:    Size  Location     Type
  2192 ;;		None
  2193 ;; Auto vars:     Size  Location     Type
  2194 ;;		None
  2195 ;; Return value:  Size  Location     Type
  2196 ;;                  1    wreg      void 
  2197 ;; Registers used:
  2198 ;;		wreg, fsr2l, fsr2h, status,2, status,0, cstack
  2199 ;; Tracked objects:
  2200 ;;		On entry : 0/0
  2201 ;;		On exit  : 0/0
  2202 ;;		Unchanged: 0/0
  2203 ;; Data sizes:     COMRAM   BANK0   BANK1   BANK2   BANK3   BANK4   BANK5   BANK6   BANK7
  2204 ;;      Params:         0       0       0       0       0       0       0       0       0
  2205 ;;      Locals:         0       0       0       0       0       0       0       0       0
  2206 ;;      Temps:          2       0       0       0       0       0       0       0       0
  2207 ;;      Totals:         2       0       0       0       0       0       0       0       0
  2208 ;;Total ram usage:        2 bytes
  2209 ;; Hardware stack levels used: 1
  2210 ;; Hardware stack levels required when called: 11
  2211 ;; This function calls:
  2212 ;;		_DATAEE_WriteByte
  2213 ;;		_Set_Timeout
  2214 ;;		_button_flash
  2215 ;;		_switch_read
  2216 ;; This function is called by:
  2217 ;;		_main
  2218 ;; This function uses a non-reentrant model
  2219 ;;
  2220                           
  2221                           	psect	text14
  2222   000E12                     __ptext14:
  2223                           	callstack 0
  2224   000E12                     _enter_service:
  2225                           	callstack 19
  2226   000E12  0E00               	movlw	0
  2227   000E14  6E37               	movwf	DATAEE_WriteByte@bData^0,c
  2228   000E16  0E02               	movlw	2
  2229   000E18  EC04  F00A         	call	_DATAEE_WriteByte
  2230   000E1C  0E00               	movlw	0
  2231   000E1E  6E37               	movwf	DATAEE_WriteByte@bData^0,c
  2232   000E20  0E00               	movlw	0
  2233   000E22  EC04  F00A         	call	_DATAEE_WriteByte
  2234   000E26                     
  2235                           ;vend.c: 136:     credit = 0x00;
  2236   000E26  0E00               	movlw	0
  2237   000E28  6E25               	movwf	_credit^0,c	;volatile
  2238   000E2A                     
  2239                           ;vend.c: 137:     venflags.priceset = 0;
  2240   000E2A  9801               	bcf	_venflags^0,4,c
  2241   000E2C  88BA               	bsf	186,4,c	;volatile
  2242   000E2E                     l1056:
  2243   000E2E  A6CA               	btfss	202,3,c	;volatile
  2244   000E30  EF1C  F007         	goto	u1731
  2245   000E34  EF1E  F007         	goto	u1730
  2246   000E38                     u1731:
  2247   000E38  EF17  F007         	goto	l1056
  2248   000E3C                     u1730:
  2249   000E3C                     
  2250                           ;vend.c: 140:     _delay((unsigned long)((500)*(12000000/4000.0)));
  2251   000E3C  0E08               	movlw	8
  2252   000E3E  6E44               	movwf	(??_enter_service+1)^0,c
  2253   000E40  0E9D               	movlw	157
  2254   000E42  6E43               	movwf	??_enter_service^0,c
  2255   000E44  0E06               	movlw	6
  2256   000E46                     u2097:
  2257   000E46  2EE8               	decfsz	wreg,f,c
  2258   000E48  D7FE               	bra	u2097
  2259   000E4A  2E43               	decfsz	??_enter_service^0,f,c
  2260   000E4C  D7FC               	bra	u2097
  2261   000E4E  2E44               	decfsz	(??_enter_service+1)^0,f,c
  2262   000E50  D7FA               	bra	u2097
  2263                           
  2264                           ;vend.c: 141:     while(PORTAbits.RA3)
  2265   000E52  EF56  F007         	goto	l4049
  2266   000E56                     l4033:
  2267                           
  2268                           ;vend.c: 142:     {;vend.c: 143:         button_flash();
  2269   000E56  ECB4  F009         	call	_button_flash	;wreg free
  2270   000E5A                     
  2271                           ;vend.c: 144:         if(!PORTAbits.RA6 && !venflags.priceset)
  2272   000E5A  BCCA               	btfsc	202,6,c	;volatile
  2273   000E5C  EF32  F007         	goto	u1741
  2274   000E60  EF34  F007         	goto	u1740
  2275   000E64                     u1741:
  2276   000E64  EF3F  F007         	goto	l4041
  2277   000E68                     u1740:
  2278   000E68  B801               	btfsc	_venflags^0,4,c
  2279   000E6A  EF39  F007         	goto	u1751
  2280   000E6E  EF3B  F007         	goto	u1750
  2281   000E72                     u1751:
  2282   000E72  EF3F  F007         	goto	l4041
  2283   000E76                     u1750:
  2284   000E76  98BA               	bcf	186,4,c	;volatile
  2285   000E78                     
  2286                           ;vend.c: 147:             Set_Timeout();
  2287   000E78  EC77  F007         	call	_Set_Timeout	;wreg free
  2288   000E7C  00FF               	reset		;# 
  2289   000E7E                     l4041:
  2290                           
  2291                           ;vend.c: 150:         if(switch_read())
  2292   000E7E  EC46  F008         	call	_switch_read	;wreg free
  2293   000E82  0900               	iorlw	0
  2294   000E84  B4D8               	btfsc	status,2,c
  2295   000E86  EF47  F007         	goto	u1761
  2296   000E8A  EF49  F007         	goto	u1760
  2297   000E8E                     u1761:
  2298   000E8E  EF56  F007         	goto	l4049
  2299   000E92                     u1760:
  2300   000E92                     
  2301                           ;vend.c: 151:         {;vend.c: 152:             venflags.priceset = 1;
  2302   000E92  8801               	bsf	_venflags^0,4,c
  2303   000E94                     l4045:
  2304   000E94  EC46  F008         	call	_switch_read	;wreg free
  2305   000E98  0900               	iorlw	0
  2306   000E9A  A4D8               	btfss	status,2,c
  2307   000E9C  EF52  F007         	goto	u1771
  2308   000EA0  EF54  F007         	goto	u1770
  2309   000EA4                     u1771:
  2310   000EA4  EF4A  F007         	goto	l4045
  2311   000EA8                     u1770:
  2312   000EA8                     
  2313                           ;vend.c: 154:             credit++;
  2314   000EA8  2A25               	incf	_credit^0,f,c	;volatile
  2315   000EAA  F000               	nop		;# 
  2316   000EAC                     l4049:
  2317                           
  2318                           ;vend.c: 141:     while(PORTAbits.RA3)
  2319   000EAC  B6CA               	btfsc	202,3,c	;volatile
  2320   000EAE  EF5B  F007         	goto	u1781
  2321   000EB2  EF5D  F007         	goto	u1780
  2322   000EB6                     u1781:
  2323   000EB6  EF2B  F007         	goto	l4033
  2324   000EBA                     u1780:
  2325   000EBA                     
  2326                           ;vend.c: 158:     if(venflags.priceset)
  2327   000EBA  A801               	btfss	_venflags^0,4,c
  2328   000EBC  EF62  F007         	goto	u1791
  2329   000EC0  EF64  F007         	goto	u1790
  2330   000EC4                     u1791:
  2331   000EC4  EF69  F007         	goto	l4053
  2332   000EC8                     u1790:
  2333   000EC8  C025  F037         	movff	_credit,DATAEE_WriteByte@bData	;volatile
  2334   000ECC  0E01               	movlw	1
  2335   000ECE  EC04  F00A         	call	_DATAEE_WriteByte
  2336   000ED2                     l4053:
  2337   000ED2  9CBC               	bcf	188,6,c	;volatile
  2338   000ED4                     
  2339                           ;vend.c: 164:     _delay((unsigned long)((1000)*(12000000/4000.0)));
  2340   000ED4  0E10               	movlw	16
  2341   000ED6  6E44               	movwf	(??_enter_service+1)^0,c
  2342   000ED8  0E39               	movlw	57
  2343   000EDA  6E43               	movwf	??_enter_service^0,c
  2344   000EDC  0E0E               	movlw	14
  2345   000EDE                     u2107:
  2346   000EDE  2EE8               	decfsz	wreg,f,c
  2347   000EE0  D7FE               	bra	u2107
  2348   000EE2  2E43               	decfsz	??_enter_service^0,f,c
  2349   000EE4  D7FC               	bra	u2107
  2350   000EE6  2E44               	decfsz	(??_enter_service+1)^0,f,c
  2351   000EE8  D7FA               	bra	u2107
  2352   000EEA  00FF               	reset		;# 
  2353   000EEC  0012               	return		;funcret
  2354   000EEE                     __end_of_enter_service:
  2355                           	callstack 0
  2356                           
  2357 ;; *************** function _button_flash *****************
  2358 ;; Defined at:
  2359 ;;		line 116 in file "vend.c"
  2360 ;; Parameters:    Size  Location     Type
  2361 ;;		None
  2362 ;; Auto vars:     Size  Location     Type
  2363 ;;		None
  2364 ;; Return value:  Size  Location     Type
  2365 ;;                  1    wreg      void 
  2366 ;; Registers used:
  2367 ;;		wreg, status,2, status,0, cstack
  2368 ;; Tracked objects:
  2369 ;;		On entry : 0/0
  2370 ;;		On exit  : 0/0
  2371 ;;		Unchanged: 0/0
  2372 ;; Data sizes:     COMRAM   BANK0   BANK1   BANK2   BANK3   BANK4   BANK5   BANK6   BANK7
  2373 ;;      Params:         0       0       0       0       0       0       0       0       0
  2374 ;;      Locals:         0       0       0       0       0       0       0       0       0
  2375 ;;      Temps:          1       0       0       0       0       0       0       0       0
  2376 ;;      Totals:         1       0       0       0       0       0       0       0       0
  2377 ;;Total ram usage:        1 bytes
  2378 ;; Hardware stack levels used: 1
  2379 ;; Hardware stack levels required when called: 10
  2380 ;; This function calls:
  2381 ;;		_TMR3_Initialize
  2382 ;; This function is called by:
  2383 ;;		_main
  2384 ;;		_enter_service
  2385 ;; This function uses a non-reentrant model
  2386 ;;
  2387                           
  2388                           	psect	text15
  2389   001368                     __ptext15:
  2390                           	callstack 0
  2391   001368                     _button_flash:
  2392                           	callstack 19
  2393   001368                     
  2394                           ;vend.c: 118:     if(!venflags.bflash)
  2395   001368  B202               	btfsc	(_venflags+1)^0,1,c
  2396   00136A  EFB9  F009         	goto	u451
  2397   00136E  EFBB  F009         	goto	u450
  2398   001372                     u451:
  2399   001372  EFBF  F009         	goto	l2649
  2400   001376                     u450:
  2401   001376                     
  2402                           ;vend.c: 119:     {;vend.c: 120:         venflags.bflash = 1;
  2403   001376  8202               	bsf	(_venflags+1)^0,1,c
  2404   001378                     
  2405                           ;vend.c: 121:         TMR3_Initialize();
  2406   001378  EC03  F00B         	call	_TMR3_Initialize	;wreg free
  2407   00137C  8CBC               	bsf	188,6,c	;volatile
  2408   00137E                     l2649:
  2409                           
  2410                           ;vend.c: 124:     if(PIR6bits.TMR3IF)
  2411   00137E  0139               	movlb	57	; () banked
  2412   001380  ADA6               	btfss	166,6,b	;volatile
  2413   001382  EFC5  F009         	goto	u461
  2414   001386  EFC7  F009         	goto	u460
  2415   00138A                     u461:
  2416   00138A  EFDB  F009         	goto	l1051
  2417   00138E                     u460:
  2418   00138E                     
  2419                           ; BSR set to: 57
  2420                           ;vend.c: 125:     {;vend.c: 126:         LATCbits.LC2 = ~LATCbits.LC2;
  2421   00138E  B4BC               	btfsc	188,2,c	;volatile
  2422   001390  EFCC  F009         	goto	u471
  2423   001394  EFCF  F009         	goto	u470
  2424   001398                     u471:
  2425   001398  0E01               	movlw	1
  2426   00139A  EFD0  F009         	goto	u476
  2427   00139E                     u470:
  2428   00139E  0E00               	movlw	0
  2429   0013A0                     u476:
  2430   0013A0  0AFF               	xorlw	255
  2431   0013A2  6E39               	movwf	??_button_flash^0,c
  2432   0013A4  4639               	rlncf	??_button_flash^0,f,c
  2433   0013A6  4639               	rlncf	??_button_flash^0,f,c
  2434   0013A8  50BC               	movf	188,w,c	;volatile
  2435   0013AA  1839               	xorwf	??_button_flash^0,w,c
  2436   0013AC  0BFB               	andlw	-5
  2437   0013AE  1839               	xorwf	??_button_flash^0,w,c
  2438   0013B0  6EBC               	movwf	188,c	;volatile
  2439   0013B2                     
  2440                           ; BSR set to: 57
  2441                           ;vend.c: 127:         TMR3_Initialize();
  2442   0013B2  EC03  F00B         	call	_TMR3_Initialize	;wreg free
  2443   0013B6                     l1051:
  2444   0013B6  0012               	return		;funcret
  2445   0013B8                     __end_of_button_flash:
  2446                           	callstack 0
  2447                           
  2448 ;; *************** function _Set_Timeout *****************
  2449 ;; Defined at:
  2450 ;;		line 168 in file "vend.c"
  2451 ;; Parameters:    Size  Location     Type
  2452 ;;		None
  2453 ;; Auto vars:     Size  Location     Type
  2454 ;;  timeval         2   23[COMRAM] PTR unsigned char 
  2455 ;;		 -> timeout(2), 
  2456 ;;  readValHigh     1   22[COMRAM] unsigned char 
  2457 ;;  readValLow      1   21[COMRAM] unsigned char 
  2458 ;; Return value:  Size  Location     Type
  2459 ;;                  1    wreg      void 
  2460 ;; Registers used:
  2461 ;;		wreg, fsr2l, fsr2h, status,2, status,0, cstack
  2462 ;; Tracked objects:
  2463 ;;		On entry : 0/0
  2464 ;;		On exit  : 0/0
  2465 ;;		Unchanged: 0/0
  2466 ;; Data sizes:     COMRAM   BANK0   BANK1   BANK2   BANK3   BANK4   BANK5   BANK6   BANK7
  2467 ;;      Params:         0       0       0       0       0       0       0       0       0
  2468 ;;      Locals:         4       0       0       0       0       0       0       0       0
  2469 ;;      Temps:          0       0       0       0       0       0       0       0       0
  2470 ;;      Totals:         4       0       0       0       0       0       0       0       0
  2471 ;;Total ram usage:        4 bytes
  2472 ;; Hardware stack levels used: 1
  2473 ;; Hardware stack levels required when called: 10
  2474 ;; This function calls:
  2475 ;;		_DATAEE_WriteByte
  2476 ;;		_TMR1_Initialize
  2477 ;;		_TMR1_ReadTimer
  2478 ;;		_TMR1_StopTimer
  2479 ;; This function is called by:
  2480 ;;		_enter_service
  2481 ;; This function uses a non-reentrant model
  2482 ;;
  2483                           
  2484                           	psect	text16
  2485   000EEE                     __ptext16:
  2486                           	callstack 0
  2487   000EEE                     _Set_Timeout:
  2488                           	callstack 19
  2489   000EEE                     
  2490                           ;vend.c: 170:     TMR1_Initialize();
  2491   000EEE  EC1E  F00B         	call	_TMR1_Initialize	;wreg free
  2492                           
  2493                           ;vend.c: 171:     while(!PIR4bits.TMR1IF)
  2494   000EF2  EFB5  F007         	goto	l1075
  2495   000EF6                     l1077:
  2496                           
  2497                           ; BSR set to: 57
  2498   000EF6  80BB               	bsf	187,0,c	;volatile
  2499   000EF8                     
  2500                           ; BSR set to: 57
  2501                           ;vend.c: 174:         if(!CM1CON0bits.C1OUT)
  2502   000EF8  013E               	movlb	62	; () banked
  2503   000EFA  BDBC               	btfsc	188,6,b	;volatile
  2504   000EFC  EF82  F007         	goto	u1671
  2505   000F00  EF84  F007         	goto	u1670
  2506   000F04                     u1671:
  2507   000F04  EFB5  F007         	goto	l1075
  2508   000F08                     u1670:
  2509   000F08                     
  2510                           ; BSR set to: 62
  2511   000F08  90BB               	bcf	187,0,c	;volatile
  2512   000F0A                     
  2513                           ; BSR set to: 62
  2514                           ;vend.c: 177:             TMR1_StopTimer();
  2515   000F0A  EC3C  F00D         	call	_TMR1_StopTimer	;wreg free
  2516   000F0E                     
  2517                           ;vend.c: 178:             timeout = TMR1_ReadTimer();
  2518   000F0E  EC05  F00C         	call	_TMR1_ReadTimer	;wreg free
  2519   000F12  C037  F028         	movff	?_TMR1_ReadTimer,_timeout	;volatile
  2520   000F16  C038  F029         	movff	?_TMR1_ReadTimer+1,_timeout+1	;volatile
  2521   000F1A                     
  2522                           ;vend.c: 179:             timeout = 0x00 - timeout;
  2523   000F1A  5028               	movf	_timeout^0,w,c	;volatile
  2524   000F1C  0800               	sublw	0
  2525   000F1E  6E28               	movwf	_timeout^0,c	;volatile
  2526   000F20  5029               	movf	(_timeout+1)^0,w,c	;volatile
  2527   000F22  A0D8               	btfss	status,0,c
  2528   000F24  2AE8               	incf	wreg,f,c
  2529   000F26  0800               	sublw	0
  2530   000F28  6E29               	movwf	(_timeout+1)^0,c	;volatile
  2531   000F2A                     
  2532                           ;vend.c: 180:             uint8_t *timeval = &timeout;
  2533   000F2A  0E28               	movlw	low _timeout
  2534   000F2C  6E41               	movwf	Set_Timeout@timeval^0,c
  2535   000F2E  0E00               	movlw	high _timeout
  2536   000F30  6E42               	movwf	(Set_Timeout@timeval+1)^0,c
  2537   000F32                     
  2538                           ;vend.c: 181:             uint8_t readValLow = timeval[0];
  2539   000F32  0060  F107  FFD9   	movff	Set_Timeout@timeval,fsr2l
  2540   000F38  0060  F10B  FFDA   	movff	Set_Timeout@timeval+1,fsr2h
  2541   000F3E  50DF               	movf	indf2,w,c
  2542   000F40  6E3F               	movwf	Set_Timeout@readValLow^0,c
  2543   000F42                     
  2544                           ;vend.c: 182:             uint8_t readValHigh = timeval[1];
  2545   000F42  EE20 F001          	lfsr	2,1
  2546   000F46  5041               	movf	Set_Timeout@timeval^0,w,c
  2547   000F48  26D9               	addwf	fsr2l,f,c
  2548   000F4A  5042               	movf	(Set_Timeout@timeval+1)^0,w,c
  2549   000F4C  22DA               	addwfc	fsr2h,f,c
  2550   000F4E  50DF               	movf	indf2,w,c
  2551   000F50  6E40               	movwf	Set_Timeout@readValHigh^0,c
  2552   000F52  C03F  F037         	movff	Set_Timeout@readValLow,DATAEE_WriteByte@bData
  2553   000F56  0E03               	movlw	3
  2554   000F58  EC04  F00A         	call	_DATAEE_WriteByte
  2555   000F5C  C040  F037         	movff	Set_Timeout@readValHigh,DATAEE_WriteByte@bData
  2556   000F60  0E04               	movlw	4
  2557   000F62  EC04  F00A         	call	_DATAEE_WriteByte
  2558                           
  2559                           ;vend.c: 185:             break;
  2560   000F66  EFBD  F007         	goto	l1083
  2561   000F6A                     l1075:
  2562                           
  2563                           ;vend.c: 171:     while(!PIR4bits.TMR1IF)
  2564   000F6A  0139               	movlb	57	; () banked
  2565   000F6C  A1A4               	btfss	164,0,b	;volatile
  2566   000F6E  EFBB  F007         	goto	u1681
  2567   000F72  EFBD  F007         	goto	u1680
  2568   000F76                     u1681:
  2569   000F76  EF7B  F007         	goto	l1077
  2570   000F7A                     u1680:
  2571   000F7A                     l1083:
  2572   000F7A  0012               	return		;funcret
  2573   000F7C                     __end_of_Set_Timeout:
  2574                           	callstack 0
  2575                           
  2576 ;; *************** function _TMR1_ReadTimer *****************
  2577 ;; Defined at:
  2578 ;;		line 104 in file "mcc_generated_files/tmr1.c"
  2579 ;; Parameters:    Size  Location     Type
  2580 ;;		None
  2581 ;; Auto vars:     Size  Location     Type
  2582 ;;  readVal         2   17[COMRAM] unsigned short 
  2583 ;;  readValLow      1   20[COMRAM] unsigned char 
  2584 ;;  readValHigh     1   19[COMRAM] unsigned char 
  2585 ;; Return value:  Size  Location     Type
  2586 ;;                  2   13[COMRAM] unsigned short 
  2587 ;; Registers used:
  2588 ;;		wreg, status,2
  2589 ;; Tracked objects:
  2590 ;;		On entry : 0/0
  2591 ;;		On exit  : 0/0
  2592 ;;		Unchanged: 0/0
  2593 ;; Data sizes:     COMRAM   BANK0   BANK1   BANK2   BANK3   BANK4   BANK5   BANK6   BANK7
  2594 ;;      Params:         2       0       0       0       0       0       0       0       0
  2595 ;;      Locals:         4       0       0       0       0       0       0       0       0
  2596 ;;      Temps:          2       0       0       0       0       0       0       0       0
  2597 ;;      Totals:         8       0       0       0       0       0       0       0       0
  2598 ;;Total ram usage:        8 bytes
  2599 ;; Hardware stack levels used: 1
  2600 ;; Hardware stack levels required when called: 9
  2601 ;; This function calls:
  2602 ;;		Nothing
  2603 ;; This function is called by:
  2604 ;;		_Set_Timeout
  2605 ;; This function uses a non-reentrant model
  2606 ;;
  2607                           
  2608                           	psect	text17
  2609   00180A                     __ptext17:
  2610                           	callstack 0
  2611   00180A                     _TMR1_ReadTimer:
  2612                           	callstack 19
  2613   00180A                     
  2614                           ;mcc_generated_files/tmr1.c: 106:     uint16_t readVal;;mcc_generated_files/tmr1.c: 107:
      +                               uint8_t readValHigh;;mcc_generated_files/tmr1.c: 108:     uint8_t readValLow;;mcc_g
      +                          enerated_files/tmr1.c: 110:     T1CONbits.T1RD16 = 1;
  2615   00180A  82B2               	bsf	178,1,c	;volatile
  2616                           
  2617                           ;mcc_generated_files/tmr1.c: 112:     readValLow = TMR1L;
  2618   00180C  006F FEC0  F03E    	movff	16304,TMR1_ReadTimer@readValLow	;volatile
  2619                           
  2620                           ;mcc_generated_files/tmr1.c: 113:     readValHigh = TMR1H;
  2621   001812  006F FEC4  F03D    	movff	16305,TMR1_ReadTimer@readValHigh	;volatile
  2622   001818                     
  2623                           ;mcc_generated_files/tmr1.c: 115:     readVal = ((uint16_t)readValHigh << 8) | readValLo
      +                          w;
  2624   001818  503D               	movf	TMR1_ReadTimer@readValHigh^0,w,c
  2625   00181A  6E39               	movwf	??_TMR1_ReadTimer^0,c
  2626   00181C  503E               	movf	TMR1_ReadTimer@readValLow^0,w,c
  2627   00181E  6E3B               	movwf	TMR1_ReadTimer@readVal^0,c
  2628   001820  C039  F03C         	movff	??_TMR1_ReadTimer,TMR1_ReadTimer@readVal+1
  2629   001824                     
  2630                           ;mcc_generated_files/tmr1.c: 117:     return readVal;
  2631   001824  C03B  F037         	movff	TMR1_ReadTimer@readVal,?_TMR1_ReadTimer
  2632   001828  C03C  F038         	movff	TMR1_ReadTimer@readVal+1,?_TMR1_ReadTimer+1
  2633   00182C  0012               	return		;funcret
  2634   00182E                     __end_of_TMR1_ReadTimer:
  2635                           	callstack 0
  2636                           
  2637 ;; *************** function _dispense *****************
  2638 ;; Defined at:
  2639 ;;		line 81 in file "vend.c"
  2640 ;; Parameters:    Size  Location     Type
  2641 ;;		None
  2642 ;; Auto vars:     Size  Location     Type
  2643 ;;		None
  2644 ;; Return value:  Size  Location     Type
  2645 ;;                  1    wreg      void 
  2646 ;; Registers used:
  2647 ;;		wreg, status,2, status,0, cstack
  2648 ;; Tracked objects:
  2649 ;;		On entry : 0/0
  2650 ;;		On exit  : 0/0
  2651 ;;		Unchanged: 0/0
  2652 ;; Data sizes:     COMRAM   BANK0   BANK1   BANK2   BANK3   BANK4   BANK5   BANK6   BANK7
  2653 ;;      Params:         0       0       0       0       0       0       0       0       0
  2654 ;;      Locals:         0       0       0       0       0       0       0       0       0
  2655 ;;      Temps:          0       0       0       0       0       0       0       0       0
  2656 ;;      Totals:         0       0       0       0       0       0       0       0       0
  2657 ;;Total ram usage:        0 bytes
  2658 ;; Hardware stack levels used: 1
  2659 ;; Hardware stack levels required when called: 11
  2660 ;; This function calls:
  2661 ;;		_DATAEE_WriteByte
  2662 ;;		_TMR1_Initialize
  2663 ;;		_TMR1_StartTimer
  2664 ;;		_TMR1_StopTimer
  2665 ;;		_TMR1_WriteTimer
  2666 ;;		_credit_subtract
  2667 ;; This function is called by:
  2668 ;;		_main
  2669 ;; This function uses a non-reentrant model
  2670 ;;
  2671                           
  2672                           	psect	text18
  2673   001182                     __ptext18:
  2674                           	callstack 0
  2675   001182                     _dispense:
  2676                           	callstack 19
  2677   001182  98BA               	bcf	186,4,c	;volatile
  2678   001184                     
  2679                           ;vend.c: 84:     TMR1_Initialize();
  2680   001184  EC1E  F00B         	call	_TMR1_Initialize	;wreg free
  2681   001188                     
  2682                           ;vend.c: 85:     TMR1_StopTimer();
  2683   001188  EC3C  F00D         	call	_TMR1_StopTimer	;wreg free
  2684   00118C                     
  2685                           ;vend.c: 86:     TMR1_WriteTimer(timeout);
  2686   00118C  C028  F037         	movff	_timeout,TMR1_WriteTimer@timerVal	;volatile
  2687   001190  C029  F038         	movff	_timeout+1,TMR1_WriteTimer@timerVal+1	;volatile
  2688   001194  ECAD  F00B         	call	_TMR1_WriteTimer	;wreg free
  2689   001198                     
  2690                           ;vend.c: 87:     TMR1_StartTimer();
  2691   001198  EC3E  F00D         	call	_TMR1_StartTimer	;wreg free
  2692   00119C                     
  2693                           ;vend.c: 88:     DAC1CON1 = 0x0C;
  2694   00119C  0E0C               	movlw	12
  2695   00119E  013E               	movlb	62	; () banked
  2696   0011A0  6F9C               	movwf	156,b	;volatile
  2697                           
  2698                           ;vend.c: 89:     while(!PIR4bits.TMR1IF && CM1CON0bits.C1OUT)
  2699   0011A2  EFD4  F008         	goto	l1030
  2700   0011A6                     l1032:
  2701                           
  2702                           ; BSR set to: 62
  2703   0011A6  80BB               	bsf	187,0,c	;volatile
  2704   0011A8                     l1030:
  2705                           
  2706                           ; BSR set to: 62
  2707                           ;vend.c: 89:     while(!PIR4bits.TMR1IF && CM1CON0bits.C1OUT)
  2708   0011A8  0139               	movlb	57	; () banked
  2709   0011AA  B1A4               	btfsc	164,0,b	;volatile
  2710   0011AC  EFDA  F008         	goto	u1831
  2711   0011B0  EFDC  F008         	goto	u1830
  2712   0011B4                     u1831:
  2713   0011B4  EFE4  F008         	goto	l1037
  2714   0011B8                     u1830:
  2715   0011B8                     
  2716                           ; BSR set to: 57
  2717   0011B8  013E               	movlb	62	; () banked
  2718   0011BA  BDBC               	btfsc	188,6,b	;volatile
  2719   0011BC  EFE2  F008         	goto	u1841
  2720   0011C0  EFE4  F008         	goto	u1840
  2721   0011C4                     u1841:
  2722   0011C4  EFD3  F008         	goto	l1032
  2723   0011C8                     u1840:
  2724   0011C8                     l1037:
  2725   0011C8  90BB               	bcf	187,0,c	;volatile
  2726   0011CA                     
  2727                           ;vend.c: 94:     if(PIR4bits.TMR1IF)
  2728   0011CA  0139               	movlb	57	; () banked
  2729   0011CC  A1A4               	btfss	164,0,b	;volatile
  2730   0011CE  EFEB  F008         	goto	u1851
  2731   0011D2  EFED  F008         	goto	u1850
  2732   0011D6                     u1851:
  2733   0011D6  EFF5  F008         	goto	l4083
  2734   0011DA                     u1850:
  2735   0011DA                     
  2736                           ; BSR set to: 57
  2737   0011DA  0EAA               	movlw	170
  2738   0011DC  6E37               	movwf	DATAEE_WriteByte@bData^0,c
  2739   0011DE  0E02               	movlw	2
  2740   0011E0  EC04  F00A         	call	_DATAEE_WriteByte
  2741   0011E4  00FF               	reset		;# 
  2742                           
  2743                           ;vend.c: 98:     }
  2744   0011E6  EFF9  F008         	goto	l1041
  2745   0011EA                     l4083:
  2746                           
  2747                           ; BSR set to: 57
  2748                           ;vend.c: 100:     {;vend.c: 101:         credit_subtract(vendprice);
  2749   0011EA  5022               	movf	_vendprice^0,w,c	;volatile
  2750   0011EC  EC52  F00B         	call	_credit_subtract
  2751   0011F0  00FF               	reset		;# 
  2752   0011F2                     l1041:
  2753   0011F2  0012               	return		;funcret
  2754   0011F4                     __end_of_dispense:
  2755                           	callstack 0
  2756                           
  2757 ;; *************** function _credit_subtract *****************
  2758 ;; Defined at:
  2759 ;;		line 68 in file "vend.c"
  2760 ;; Parameters:    Size  Location     Type
  2761 ;;  credit          1    wreg     unsigned char 
  2762 ;; Auto vars:     Size  Location     Type
  2763 ;;  credit          1   16[COMRAM] unsigned char 
  2764 ;; Return value:  Size  Location     Type
  2765 ;;                  1    wreg      void 
  2766 ;; Registers used:
  2767 ;;		wreg, status,2, status,0, cstack
  2768 ;; Tracked objects:
  2769 ;;		On entry : 0/0
  2770 ;;		On exit  : 0/0
  2771 ;;		Unchanged: 0/0
  2772 ;; Data sizes:     COMRAM   BANK0   BANK1   BANK2   BANK3   BANK4   BANK5   BANK6   BANK7
  2773 ;;      Params:         0       0       0       0       0       0       0       0       0
  2774 ;;      Locals:         1       0       0       0       0       0       0       0       0
  2775 ;;      Temps:          0       0       0       0       0       0       0       0       0
  2776 ;;      Totals:         1       0       0       0       0       0       0       0       0
  2777 ;;Total ram usage:        1 bytes
  2778 ;; Hardware stack levels used: 1
  2779 ;; Hardware stack levels required when called: 10
  2780 ;; This function calls:
  2781 ;;		_DATAEE_ReadByte
  2782 ;;		_DATAEE_WriteByte
  2783 ;; This function is called by:
  2784 ;;		_dispense
  2785 ;; This function uses a non-reentrant model
  2786 ;;
  2787                           
  2788                           	psect	text19
  2789   0016A4                     __ptext19:
  2790                           	callstack 0
  2791   0016A4                     _credit_subtract:
  2792                           	callstack 19
  2793                           
  2794                           ;incstack = 0
  2795                           ;credit_subtract@credit stored from wreg
  2796   0016A4  6E3A               	movwf	credit_subtract@credit^0,c
  2797   0016A6  0E00               	movlw	0
  2798   0016A8  EC58  F00C         	call	_DATAEE_ReadByte
  2799   0016AC  6E24               	movwf	_cash^0,c	;volatile
  2800   0016AE                     
  2801                           ;vend.c: 71:     cash = (cash - credit) & 0xFF;
  2802   0016AE  503A               	movf	credit_subtract@credit^0,w,c
  2803   0016B0  5C24               	subwf	_cash^0,w,c	;volatile
  2804   0016B2  6E24               	movwf	_cash^0,c	;volatile
  2805   0016B4  C024  F037         	movff	_cash,DATAEE_WriteByte@bData	;volatile
  2806   0016B8  0E00               	movlw	0
  2807   0016BA  EC04  F00A         	call	_DATAEE_WriteByte
  2808   0016BE                     
  2809                           ;vend.c: 73:     if(cash == 0)
  2810   0016BE  5024               	movf	_cash^0,w,c	;volatile
  2811   0016C0  A4D8               	btfss	status,2,c
  2812   0016C2  EF65  F00B         	goto	u1661
  2813   0016C6  EF67  F00B         	goto	u1660
  2814   0016CA                     u1661:
  2815   0016CA  EF68  F00B         	goto	l1025
  2816   0016CE                     u1660:
  2817   0016CE                     
  2818                           ;vend.c: 74:     {;vend.c: 75:         venflags.iscredit = 0;
  2819   0016CE  9001               	bcf	_venflags^0,0,c
  2820   0016D0                     l1025:
  2821   0016D0  0012               	return		;funcret
  2822   0016D2                     __end_of_credit_subtract:
  2823                           	callstack 0
  2824                           
  2825 ;; *************** function _TMR1_WriteTimer *****************
  2826 ;; Defined at:
  2827 ;;		line 120 in file "mcc_generated_files/tmr1.c"
  2828 ;; Parameters:    Size  Location     Type
  2829 ;;  timerVal        2   13[COMRAM] unsigned short 
  2830 ;; Auto vars:     Size  Location     Type
  2831 ;;		None
  2832 ;; Return value:  Size  Location     Type
  2833 ;;                  1    wreg      void 
  2834 ;; Registers used:
  2835 ;;		wreg, status,2
  2836 ;; Tracked objects:
  2837 ;;		On entry : 0/0
  2838 ;;		On exit  : 0/0
  2839 ;;		Unchanged: 0/0
  2840 ;; Data sizes:     COMRAM   BANK0   BANK1   BANK2   BANK3   BANK4   BANK5   BANK6   BANK7
  2841 ;;      Params:         2       0       0       0       0       0       0       0       0
  2842 ;;      Locals:         0       0       0       0       0       0       0       0       0
  2843 ;;      Temps:          0       0       0       0       0       0       0       0       0
  2844 ;;      Totals:         2       0       0       0       0       0       0       0       0
  2845 ;;Total ram usage:        2 bytes
  2846 ;; Hardware stack levels used: 1
  2847 ;; Hardware stack levels required when called: 9
  2848 ;; This function calls:
  2849 ;;		Nothing
  2850 ;; This function is called by:
  2851 ;;		_dispense
  2852 ;;		_TMR1_Reload
  2853 ;; This function uses a non-reentrant model
  2854 ;;
  2855                           
  2856                           	psect	text20
  2857   00175A                     __ptext20:
  2858                           	callstack 0
  2859   00175A                     _TMR1_WriteTimer:
  2860                           	callstack 20
  2861   00175A                     
  2862                           ;mcc_generated_files/tmr1.c: 120: void TMR1_WriteTimer(uint16_t timerVal);mcc_generated_
      +                          files/tmr1.c: 121: {;mcc_generated_files/tmr1.c: 122:     if (T1CONbits.NOT_SYNC == 1)
  2863   00175A  A4B2               	btfss	178,2,c	;volatile
  2864   00175C  EFB2  F00B         	goto	u1641
  2865   001760  EFB4  F00B         	goto	u1640
  2866   001764                     u1641:
  2867   001764  EFBD  F00B         	goto	l3887
  2868   001768                     u1640:
  2869   001768                     
  2870                           ;mcc_generated_files/tmr1.c: 123:     {;mcc_generated_files/tmr1.c: 125:         T1CONbi
      +                          ts.TMR1ON = 0;
  2871   001768  90B2               	bcf	178,0,c	;volatile
  2872   00176A                     
  2873                           ;mcc_generated_files/tmr1.c: 128:         TMR1H = (timerVal >> 8);
  2874   00176A  5038               	movf	(TMR1_WriteTimer@timerVal+1)^0,w,c
  2875   00176C  6EB1               	movwf	177,c	;volatile
  2876   00176E                     
  2877                           ;mcc_generated_files/tmr1.c: 129:         TMR1L = timerVal;
  2878   00176E  0060  F0DF  FFB0   	movff	TMR1_WriteTimer@timerVal,16304	;volatile
  2879   001774                     
  2880                           ;mcc_generated_files/tmr1.c: 132:         T1CONbits.TMR1ON =1;
  2881   001774  80B2               	bsf	178,0,c	;volatile
  2882                           
  2883                           ;mcc_generated_files/tmr1.c: 133:     }
  2884   001776  EFC2  F00B         	goto	l255
  2885   00177A                     l3887:
  2886                           
  2887                           ;mcc_generated_files/tmr1.c: 135:     {;mcc_generated_files/tmr1.c: 137:         TMR1H =
      +                           (timerVal >> 8);
  2888   00177A  5038               	movf	(TMR1_WriteTimer@timerVal+1)^0,w,c
  2889   00177C  6EB1               	movwf	177,c	;volatile
  2890   00177E                     
  2891                           ;mcc_generated_files/tmr1.c: 138:         TMR1L = timerVal;
  2892   00177E  0060  F0DF  FFB0   	movff	TMR1_WriteTimer@timerVal,16304	;volatile
  2893   001784                     l255:
  2894   001784  0012               	return		;funcret
  2895   001786                     __end_of_TMR1_WriteTimer:
  2896                           	callstack 0
  2897                           
  2898 ;; *************** function _TMR1_StopTimer *****************
  2899 ;; Defined at:
  2900 ;;		line 98 in file "mcc_generated_files/tmr1.c"
  2901 ;; Parameters:    Size  Location     Type
  2902 ;;		None
  2903 ;; Auto vars:     Size  Location     Type
  2904 ;;		None
  2905 ;; Return value:  Size  Location     Type
  2906 ;;                  1    wreg      void 
  2907 ;; Registers used:
  2908 ;;		None
  2909 ;; Tracked objects:
  2910 ;;		On entry : 0/0
  2911 ;;		On exit  : 0/0
  2912 ;;		Unchanged: 0/0
  2913 ;; Data sizes:     COMRAM   BANK0   BANK1   BANK2   BANK3   BANK4   BANK5   BANK6   BANK7
  2914 ;;      Params:         0       0       0       0       0       0       0       0       0
  2915 ;;      Locals:         0       0       0       0       0       0       0       0       0
  2916 ;;      Temps:          0       0       0       0       0       0       0       0       0
  2917 ;;      Totals:         0       0       0       0       0       0       0       0       0
  2918 ;;Total ram usage:        0 bytes
  2919 ;; Hardware stack levels used: 1
  2920 ;; Hardware stack levels required when called: 9
  2921 ;; This function calls:
  2922 ;;		Nothing
  2923 ;; This function is called by:
  2924 ;;		_dispense
  2925 ;;		_Set_Timeout
  2926 ;; This function uses a non-reentrant model
  2927 ;;
  2928                           
  2929                           	psect	text21
  2930   001A78                     __ptext21:
  2931                           	callstack 0
  2932   001A78                     _TMR1_StopTimer:
  2933                           	callstack 19
  2934   001A78                     
  2935                           ;mcc_generated_files/tmr1.c: 101:     T1CONbits.TMR1ON = 0;
  2936   001A78  90B2               	bcf	178,0,c	;volatile
  2937   001A7A  0012               	return		;funcret
  2938   001A7C                     __end_of_TMR1_StopTimer:
  2939                           	callstack 0
  2940                           
  2941 ;; *************** function _TMR1_StartTimer *****************
  2942 ;; Defined at:
  2943 ;;		line 92 in file "mcc_generated_files/tmr1.c"
  2944 ;; Parameters:    Size  Location     Type
  2945 ;;		None
  2946 ;; Auto vars:     Size  Location     Type
  2947 ;;		None
  2948 ;; Return value:  Size  Location     Type
  2949 ;;                  1    wreg      void 
  2950 ;; Registers used:
  2951 ;;		None
  2952 ;; Tracked objects:
  2953 ;;		On entry : 0/0
  2954 ;;		On exit  : 0/0
  2955 ;;		Unchanged: 0/0
  2956 ;; Data sizes:     COMRAM   BANK0   BANK1   BANK2   BANK3   BANK4   BANK5   BANK6   BANK7
  2957 ;;      Params:         0       0       0       0       0       0       0       0       0
  2958 ;;      Locals:         0       0       0       0       0       0       0       0       0
  2959 ;;      Temps:          0       0       0       0       0       0       0       0       0
  2960 ;;      Totals:         0       0       0       0       0       0       0       0       0
  2961 ;;Total ram usage:        0 bytes
  2962 ;; Hardware stack levels used: 1
  2963 ;; Hardware stack levels required when called: 9
  2964 ;; This function calls:
  2965 ;;		Nothing
  2966 ;; This function is called by:
  2967 ;;		_dispense
  2968 ;; This function uses a non-reentrant model
  2969 ;;
  2970                           
  2971                           	psect	text22
  2972   001A7C                     __ptext22:
  2973                           	callstack 0
  2974   001A7C                     _TMR1_StartTimer:
  2975                           	callstack 20
  2976   001A7C                     
  2977                           ;mcc_generated_files/tmr1.c: 95:     T1CONbits.TMR1ON = 1;
  2978   001A7C  80B2               	bsf	178,0,c	;volatile
  2979   001A7E  0012               	return		;funcret
  2980   001A80                     __end_of_TMR1_StartTimer:
  2981                           	callstack 0
  2982                           
  2983 ;; *************** function _coin_in *****************
  2984 ;; Defined at:
  2985 ;;		line 33 in file "vend.c"
  2986 ;; Parameters:    Size  Location     Type
  2987 ;;		None
  2988 ;; Auto vars:     Size  Location     Type
  2989 ;;		None
  2990 ;; Return value:  Size  Location     Type
  2991 ;;                  1    wreg      void 
  2992 ;; Registers used:
  2993 ;;		wreg, status,2, status,0, cstack
  2994 ;; Tracked objects:
  2995 ;;		On entry : 0/0
  2996 ;;		On exit  : 0/0
  2997 ;;		Unchanged: 0/0
  2998 ;; Data sizes:     COMRAM   BANK0   BANK1   BANK2   BANK3   BANK4   BANK5   BANK6   BANK7
  2999 ;;      Params:         0       0       0       0       0       0       0       0       0
  3000 ;;      Locals:         0       0       0       0       0       0       0       0       0
  3001 ;;      Temps:          1       0       0       0       0       0       0       0       0
  3002 ;;      Totals:         1       0       0       0       0       0       0       0       0
  3003 ;;Total ram usage:        1 bytes
  3004 ;; Hardware stack levels used: 1
  3005 ;; Hardware stack levels required when called: 11
  3006 ;; This function calls:
  3007 ;;		_TMR5_Initialize
  3008 ;;		_credit_add
  3009 ;;		_credit_check
  3010 ;;		_switch_read
  3011 ;; This function is called by:
  3012 ;;		_main
  3013 ;; This function uses a non-reentrant model
  3014 ;;
  3015                           
  3016                           	psect	text23
  3017   0013B8                     __ptext23:
  3018                           	callstack 0
  3019   0013B8                     _coin_in:
  3020                           	callstack 19
  3021   0013B8                     
  3022                           ;vend.c: 35:     TMR5_Initialize();
  3023   0013B8  ECE8  F00A         	call	_TMR5_Initialize	;wreg free
  3024   0013BC                     
  3025                           ;vend.c: 36:     venflags.t5time = 0;
  3026   0013BC  9602               	bcf	(_venflags+1)^0,3,c
  3027   0013BE                     
  3028                           ;vend.c: 37:     if(switch_read())
  3029   0013BE  EC46  F008         	call	_switch_read	;wreg free
  3030   0013C2  0900               	iorlw	0
  3031   0013C4  B4D8               	btfsc	status,2,c
  3032   0013C6  EFE7  F009         	goto	u1801
  3033   0013CA  EFE9  F009         	goto	u1800
  3034   0013CE                     u1801:
  3035   0013CE  EFF6  F009         	goto	l1007
  3036   0013D2                     u1800:
  3037   0013D2                     l4065:
  3038   0013D2  EC46  F008         	call	_switch_read	;wreg free
  3039   0013D6  0900               	iorlw	0
  3040   0013D8  A4D8               	btfss	status,2,c
  3041   0013DA  EFF1  F009         	goto	u1811
  3042   0013DE  EFF3  F009         	goto	u1810
  3043   0013E2                     u1811:
  3044   0013E2  EFE9  F009         	goto	l4065
  3045   0013E6                     u1810:
  3046   0013E6                     
  3047                           ;vend.c: 40:         credit_add(0x01);
  3048   0013E6  0E01               	movlw	1
  3049   0013E8  EC69  F00B         	call	_credit_add
  3050   0013EC                     l1007:
  3051                           
  3052                           ;vend.c: 42:     if(credit_check() >= vendprice)
  3053   0013EC  ECF6  F00C         	call	_credit_check	;wreg free
  3054   0013F0  6E3B               	movwf	??_coin_in^0,c
  3055   0013F2  5022               	movf	_vendprice^0,w,c	;volatile
  3056   0013F4  5C3B               	subwf	??_coin_in^0,w,c
  3057   0013F6  A0D8               	btfss	status,0,c
  3058   0013F8  EF00  F00A         	goto	u1821
  3059   0013FC  EF02  F00A         	goto	u1820
  3060   001400                     u1821:
  3061   001400  EF03  F00A         	goto	l1014
  3062   001404                     u1820:
  3063   001404  8CBC               	bsf	188,6,c	;volatile
  3064   001406                     l1014:
  3065   001406  0012               	return		;funcret
  3066   001408                     __end_of_coin_in:
  3067                           	callstack 0
  3068                           
  3069 ;; *************** function _switch_read *****************
  3070 ;; Defined at:
  3071 ;;		line 190 in file "vend.c"
  3072 ;; Parameters:    Size  Location     Type
  3073 ;;		None
  3074 ;; Auto vars:     Size  Location     Type
  3075 ;;		None
  3076 ;; Return value:  Size  Location     Type
  3077 ;;                  1    wreg      _Bool 
  3078 ;; Registers used:
  3079 ;;		wreg, status,2
  3080 ;; Tracked objects:
  3081 ;;		On entry : 0/0
  3082 ;;		On exit  : 0/0
  3083 ;;		Unchanged: 0/0
  3084 ;; Data sizes:     COMRAM   BANK0   BANK1   BANK2   BANK3   BANK4   BANK5   BANK6   BANK7
  3085 ;;      Params:         0       0       0       0       0       0       0       0       0
  3086 ;;      Locals:         0       0       0       0       0       0       0       0       0
  3087 ;;      Temps:          1       0       0       0       0       0       0       0       0
  3088 ;;      Totals:         1       0       0       0       0       0       0       0       0
  3089 ;;Total ram usage:        1 bytes
  3090 ;; Hardware stack levels used: 1
  3091 ;; Hardware stack levels required when called: 9
  3092 ;; This function calls:
  3093 ;;		Nothing
  3094 ;; This function is called by:
  3095 ;;		_coin_in
  3096 ;;		_enter_service
  3097 ;; This function uses a non-reentrant model
  3098 ;;
  3099                           
  3100                           	psect	text24
  3101   00108C                     __ptext24:
  3102                           	callstack 0
  3103   00108C                     _switch_read:
  3104                           	callstack 20
  3105   00108C                     
  3106                           ;vend.c: 192:     if(PORTAbits.RA5 == venflags.swclosed)
  3107   00108C  B002               	btfsc	(_venflags+1)^0,0,c
  3108   00108E  EF4B  F008         	goto	u481
  3109   001092  EF4E  F008         	goto	u480
  3110   001096                     u481:
  3111   001096  0E01               	movlw	1
  3112   001098  EF4F  F008         	goto	u482
  3113   00109C                     u480:
  3114   00109C  0E00               	movlw	0
  3115   00109E                     u482:
  3116   00109E  6E37               	movwf	??_switch_read^0,c
  3117   0010A0  BACA               	btfsc	202,5,c	;volatile
  3118   0010A2  EF55  F008         	goto	u491
  3119   0010A6  EF58  F008         	goto	u490
  3120   0010AA                     u491:
  3121   0010AA  0E01               	movlw	1
  3122   0010AC  EF59  F008         	goto	u492
  3123   0010B0                     u490:
  3124   0010B0  0E00               	movlw	0
  3125   0010B2                     u492:
  3126   0010B2  1A37               	xorwf	??_switch_read^0,f,c
  3127   0010B4  A4D8               	btfss	status,2,c
  3128   0010B6  EF5F  F008         	goto	u501
  3129   0010BA  EF61  F008         	goto	u500
  3130   0010BE                     u501:
  3131   0010BE  EF79  F008         	goto	l2669
  3132   0010C2                     u500:
  3133   0010C2                     
  3134                           ;vend.c: 193:     {;vend.c: 194:         if(venflags.swclosed)
  3135   0010C2  A002               	btfss	(_venflags+1)^0,0,c
  3136   0010C4  EF66  F008         	goto	u511
  3137   0010C8  EF68  F008         	goto	u510
  3138   0010CC                     u511:
  3139   0010CC  EF72  F008         	goto	l2667
  3140   0010D0                     u510:
  3141   0010D0                     
  3142                           ;vend.c: 195:         {;vend.c: 196:             _delay((unsigned long)((2500)*(12000000
      +                          /4000000.0)));
  3143   0010D0  0E0A               	movlw	10
  3144   0010D2  6E37               	movwf	??_switch_read^0,c
  3145   0010D4  0EBC               	movlw	188
  3146   0010D6                     u2117:
  3147   0010D6  2EE8               	decfsz	wreg,f,c
  3148   0010D8  D7FE               	bra	u2117
  3149   0010DA  2E37               	decfsz	??_switch_read^0,f,c
  3150   0010DC  D7FC               	bra	u2117
  3151   0010DE  D000               	nop2	
  3152                           
  3153                           ;vend.c: 197:         }
  3154   0010E0  EF79  F008         	goto	l2669
  3155   0010E4                     l2667:
  3156                           
  3157                           ;vend.c: 199:         {;vend.c: 200:             _delay((unsigned long)((15)*(12000000/4
      +                          000.0)));
  3158   0010E4  0E3B               	movlw	59
  3159   0010E6  6E37               	movwf	??_switch_read^0,c
  3160   0010E8  0E70               	movlw	112
  3161   0010EA                     u2127:
  3162   0010EA  2EE8               	decfsz	wreg,f,c
  3163   0010EC  D7FE               	bra	u2127
  3164   0010EE  2E37               	decfsz	??_switch_read^0,f,c
  3165   0010F0  D7FC               	bra	u2127
  3166   0010F2                     l2669:
  3167                           
  3168                           ;vend.c: 203:     if(PORTAbits.RA5)
  3169   0010F2  AACA               	btfss	202,5,c	;volatile
  3170   0010F4  EF7E  F008         	goto	u521
  3171   0010F8  EF80  F008         	goto	u520
  3172   0010FC                     u521:
  3173   0010FC  EF84  F008         	goto	l1089
  3174   001100                     u520:
  3175   001100                     
  3176                           ;vend.c: 204:     {;vend.c: 205:         venflags.swclosed = 0;
  3177   001100  9002               	bcf	(_venflags+1)^0,0,c
  3178   001102                     
  3179                           ;vend.c: 206:         return 0;
  3180   001102  0E00               	movlw	0
  3181   001104  EF86  F008         	goto	l1090
  3182   001108                     l1089:
  3183                           
  3184                           ;vend.c: 209:     {;vend.c: 210:         venflags.swclosed = 1;
  3185   001108  8002               	bsf	(_venflags+1)^0,0,c
  3186   00110A                     
  3187                           ;vend.c: 211:         return 1;
  3188   00110A  0E01               	movlw	1
  3189   00110C                     l1090:
  3190   00110C  0012               	return		;funcret
  3191   00110E                     __end_of_switch_read:
  3192                           	callstack 0
  3193                           
  3194 ;; *************** function _credit_check *****************
  3195 ;; Defined at:
  3196 ;;		line 50 in file "vend.c"
  3197 ;; Parameters:    Size  Location     Type
  3198 ;;		None
  3199 ;; Auto vars:     Size  Location     Type
  3200 ;;		None
  3201 ;; Return value:  Size  Location     Type
  3202 ;;                  1    wreg      unsigned char 
  3203 ;; Registers used:
  3204 ;;		wreg, status,2, cstack
  3205 ;; Tracked objects:
  3206 ;;		On entry : 0/0
  3207 ;;		On exit  : 0/0
  3208 ;;		Unchanged: 0/0
  3209 ;; Data sizes:     COMRAM   BANK0   BANK1   BANK2   BANK3   BANK4   BANK5   BANK6   BANK7
  3210 ;;      Params:         0       0       0       0       0       0       0       0       0
  3211 ;;      Locals:         0       0       0       0       0       0       0       0       0
  3212 ;;      Temps:          0       0       0       0       0       0       0       0       0
  3213 ;;      Totals:         0       0       0       0       0       0       0       0       0
  3214 ;;Total ram usage:        0 bytes
  3215 ;; Hardware stack levels used: 1
  3216 ;; Hardware stack levels required when called: 10
  3217 ;; This function calls:
  3218 ;;		_DATAEE_ReadByte
  3219 ;; This function is called by:
  3220 ;;		_main
  3221 ;;		_coin_in
  3222 ;; This function uses a non-reentrant model
  3223 ;;
  3224                           
  3225                           	psect	text25
  3226   0019EC                     __ptext25:
  3227                           	callstack 0
  3228   0019EC                     _credit_check:
  3229                           	callstack 20
  3230   0019EC  0E00               	movlw	0
  3231   0019EE  EC58  F00C         	call	_DATAEE_ReadByte
  3232   0019F2  6E24               	movwf	_cash^0,c	;volatile
  3233   0019F4                     
  3234                           ;vend.c: 53:     return(cash);
  3235   0019F4  5024               	movf	_cash^0,w,c	;volatile
  3236   0019F6  0012               	return		;funcret
  3237   0019F8                     __end_of_credit_check:
  3238                           	callstack 0
  3239                           
  3240 ;; *************** function _credit_add *****************
  3241 ;; Defined at:
  3242 ;;		line 56 in file "vend.c"
  3243 ;; Parameters:    Size  Location     Type
  3244 ;;  credit          1    wreg     unsigned char 
  3245 ;; Auto vars:     Size  Location     Type
  3246 ;;  credit          1   16[COMRAM] unsigned char 
  3247 ;; Return value:  Size  Location     Type
  3248 ;;                  1    wreg      void 
  3249 ;; Registers used:
  3250 ;;		wreg, status,2, status,0, cstack
  3251 ;; Tracked objects:
  3252 ;;		On entry : 0/0
  3253 ;;		On exit  : 0/0
  3254 ;;		Unchanged: 0/0
  3255 ;; Data sizes:     COMRAM   BANK0   BANK1   BANK2   BANK3   BANK4   BANK5   BANK6   BANK7
  3256 ;;      Params:         0       0       0       0       0       0       0       0       0
  3257 ;;      Locals:         1       0       0       0       0       0       0       0       0
  3258 ;;      Temps:          0       0       0       0       0       0       0       0       0
  3259 ;;      Totals:         1       0       0       0       0       0       0       0       0
  3260 ;;Total ram usage:        1 bytes
  3261 ;; Hardware stack levels used: 1
  3262 ;; Hardware stack levels required when called: 10
  3263 ;; This function calls:
  3264 ;;		_DATAEE_ReadByte
  3265 ;;		_DATAEE_WriteByte
  3266 ;; This function is called by:
  3267 ;;		_coin_in
  3268 ;; This function uses a non-reentrant model
  3269 ;;
  3270                           
  3271                           	psect	text26
  3272   0016D2                     __ptext26:
  3273                           	callstack 0
  3274   0016D2                     _credit_add:
  3275                           	callstack 19
  3276                           
  3277                           ;incstack = 0
  3278                           ;credit_add@credit stored from wreg
  3279   0016D2  6E3A               	movwf	credit_add@credit^0,c
  3280   0016D4  0E00               	movlw	0
  3281   0016D6  EC58  F00C         	call	_DATAEE_ReadByte
  3282   0016DA  6E24               	movwf	_cash^0,c	;volatile
  3283   0016DC                     
  3284                           ;vend.c: 59:     cash = cash + credit;
  3285   0016DC  5024               	movf	_cash^0,w,c	;volatile
  3286   0016DE  243A               	addwf	credit_add@credit^0,w,c
  3287   0016E0  6E24               	movwf	_cash^0,c	;volatile
  3288   0016E2  C024  F037         	movff	_cash,DATAEE_WriteByte@bData	;volatile
  3289   0016E6  0E00               	movlw	0
  3290   0016E8  EC04  F00A         	call	_DATAEE_WriteByte
  3291   0016EC                     
  3292                           ;vend.c: 61:     if(cash != 0)
  3293   0016EC  5024               	movf	_cash^0,w,c	;volatile
  3294   0016EE  B4D8               	btfsc	status,2,c
  3295   0016F0  EF7C  F00B         	goto	u1651
  3296   0016F4  EF7E  F00B         	goto	u1650
  3297   0016F8                     u1651:
  3298   0016F8  EF7F  F00B         	goto	l1021
  3299   0016FC                     u1650:
  3300   0016FC                     
  3301                           ;vend.c: 62:     {;vend.c: 63:         venflags.iscredit = 1;
  3302   0016FC  8001               	bsf	_venflags^0,0,c
  3303   0016FE                     l1021:
  3304   0016FE  0012               	return		;funcret
  3305   001700                     __end_of_credit_add:
  3306                           	callstack 0
  3307                           
  3308 ;; *************** function _DATAEE_WriteByte *****************
  3309 ;; Defined at:
  3310 ;;		line 165 in file "mcc_generated_files/memory.c"
  3311 ;; Parameters:    Size  Location     Type
  3312 ;;  bAdd            1    wreg     unsigned char 
  3313 ;;  bData           1   13[COMRAM] unsigned char 
  3314 ;; Auto vars:     Size  Location     Type
  3315 ;;  bAdd            1   14[COMRAM] unsigned char 
  3316 ;;  GIEBitValue     1   15[COMRAM] unsigned char 
  3317 ;; Return value:  Size  Location     Type
  3318 ;;                  1    wreg      void 
  3319 ;; Registers used:
  3320 ;;		wreg, status,2
  3321 ;; Tracked objects:
  3322 ;;		On entry : 0/0
  3323 ;;		On exit  : 0/0
  3324 ;;		Unchanged: 0/0
  3325 ;; Data sizes:     COMRAM   BANK0   BANK1   BANK2   BANK3   BANK4   BANK5   BANK6   BANK7
  3326 ;;      Params:         1       0       0       0       0       0       0       0       0
  3327 ;;      Locals:         2       0       0       0       0       0       0       0       0
  3328 ;;      Temps:          0       0       0       0       0       0       0       0       0
  3329 ;;      Totals:         3       0       0       0       0       0       0       0       0
  3330 ;;Total ram usage:        3 bytes
  3331 ;; Hardware stack levels used: 1
  3332 ;; Hardware stack levels required when called: 9
  3333 ;; This function calls:
  3334 ;;		Nothing
  3335 ;; This function is called by:
  3336 ;;		_main
  3337 ;;		_credit_add
  3338 ;;		_credit_subtract
  3339 ;;		_dispense
  3340 ;;		_enter_service
  3341 ;;		_Set_Timeout
  3342 ;;		_save_notes
  3343 ;; This function uses a non-reentrant model
  3344 ;;
  3345                           
  3346                           	psect	text27
  3347   001408                     __ptext27:
  3348                           	callstack 0
  3349   001408                     _DATAEE_WriteByte:
  3350                           	callstack 19
  3351                           
  3352                           ;incstack = 0
  3353                           ;DATAEE_WriteByte@bAdd stored from wreg
  3354   001408  6E38               	movwf	DATAEE_WriteByte@bAdd^0,c
  3355   00140A                     
  3356                           ;mcc_generated_files/memory.c: 165: void DATAEE_WriteByte(uint8_t bAdd, uint8_t bData);m
      +                          cc_generated_files/memory.c: 166: {;mcc_generated_files/memory.c: 167:     uint8_t GIEBi
      +                          tValue = INTCON0bits.GIE;
  3357   00140A  0E00               	movlw	0
  3358   00140C  BED2               	btfsc	210,7,c	;volatile
  3359   00140E  0E01               	movlw	1
  3360   001410  6E39               	movwf	DATAEE_WriteByte@GIEBitValue^0,c
  3361   001412                     
  3362                           ;mcc_generated_files/memory.c: 169:     NVMADRL = (uint8_t)(bAdd & 0xFF);
  3363   001412  0060  F0E3  F9E0   	movff	DATAEE_WriteByte@bAdd,14816	;volatile
  3364   001418                     
  3365                           ;mcc_generated_files/memory.c: 170:     NVMDAT = bData;
  3366   001418  0060  F0DF  F9E3   	movff	DATAEE_WriteByte@bData,14819	;volatile
  3367   00141E                     
  3368                           ;mcc_generated_files/memory.c: 171:     NVMCON1bits.NVMREG = 0;
  3369   00141E  0E3F               	movlw	-193
  3370   001420  0139               	movlb	57	; () banked
  3371   001422  17E5               	andwf	229,f,b	;volsfr
  3372   001424                     
  3373                           ; BSR set to: 57
  3374                           ;mcc_generated_files/memory.c: 172:     NVMCON1bits.WREN = 1;
  3375   001424  85E5               	bsf	229,2,b	;volsfr
  3376   001426                     
  3377                           ; BSR set to: 57
  3378                           ;mcc_generated_files/memory.c: 173:     INTCON0bits.GIE = 0;
  3379   001426  9ED2               	bcf	210,7,c	;volatile
  3380   001428                     
  3381                           ; BSR set to: 57
  3382                           ;mcc_generated_files/memory.c: 174:     NVMCON2 = 0x55;
  3383   001428  0E55               	movlw	85
  3384   00142A  6FE6               	movwf	230,b	;volsfr
  3385   00142C                     
  3386                           ; BSR set to: 57
  3387                           ;mcc_generated_files/memory.c: 175:     NVMCON2 = 0xAA;
  3388   00142C  0EAA               	movlw	170
  3389   00142E  6FE6               	movwf	230,b	;volsfr
  3390   001430                     
  3391                           ; BSR set to: 57
  3392                           ;mcc_generated_files/memory.c: 176:     NVMCON1bits.WR = 1;
  3393   001430  83E5               	bsf	229,1,b	;volsfr
  3394   001432                     l148:
  3395                           
  3396                           ; BSR set to: 57
  3397                           ;mcc_generated_files/memory.c: 178:     while (NVMCON1bits.WR)
  3398   001432  B3E5               	btfsc	229,1,b	;volsfr
  3399   001434  EF1E  F00A         	goto	u1481
  3400   001438  EF20  F00A         	goto	u1480
  3401   00143C                     u1481:
  3402   00143C  EF19  F00A         	goto	l148
  3403   001440                     u1480:
  3404   001440                     
  3405                           ; BSR set to: 57
  3406                           ;mcc_generated_files/memory.c: 182:     NVMCON1bits.WREN = 0;
  3407   001440  95E5               	bcf	229,2,b	;volsfr
  3408                           
  3409                           ;mcc_generated_files/memory.c: 183:     INTCON0bits.GIE = GIEBitValue;
  3410   001442  B039               	btfsc	DATAEE_WriteByte@GIEBitValue^0,0,c
  3411   001444  D002               	bra	u1495
  3412   001446  9ED2               	bcf	210,7,c	;volatile
  3413   001448  D001               	bra	u1496
  3414   00144A                     u1495:
  3415   00144A  8ED2               	bsf	210,7,c	;volatile
  3416   00144C                     u1496:
  3417   00144C  0012               	return		;funcret
  3418   00144E                     __end_of_DATAEE_WriteByte:
  3419                           	callstack 0
  3420                           
  3421 ;; *************** function _DATAEE_ReadByte *****************
  3422 ;; Defined at:
  3423 ;;		line 186 in file "mcc_generated_files/memory.c"
  3424 ;; Parameters:    Size  Location     Type
  3425 ;;  bAdd            1    wreg     unsigned char 
  3426 ;; Auto vars:     Size  Location     Type
  3427 ;;  bAdd            1   13[COMRAM] unsigned char 
  3428 ;; Return value:  Size  Location     Type
  3429 ;;                  1    wreg      unsigned char 
  3430 ;; Registers used:
  3431 ;;		wreg, status,2
  3432 ;; Tracked objects:
  3433 ;;		On entry : 0/0
  3434 ;;		On exit  : 0/0
  3435 ;;		Unchanged: 0/0
  3436 ;; Data sizes:     COMRAM   BANK0   BANK1   BANK2   BANK3   BANK4   BANK5   BANK6   BANK7
  3437 ;;      Params:         0       0       0       0       0       0       0       0       0
  3438 ;;      Locals:         1       0       0       0       0       0       0       0       0
  3439 ;;      Temps:          0       0       0       0       0       0       0       0       0
  3440 ;;      Totals:         1       0       0       0       0       0       0       0       0
  3441 ;;Total ram usage:        1 bytes
  3442 ;; Hardware stack levels used: 1
  3443 ;; Hardware stack levels required when called: 9
  3444 ;; This function calls:
  3445 ;;		Nothing
  3446 ;; This function is called by:
  3447 ;;		_vend_init
  3448 ;;		_credit_check
  3449 ;;		_credit_add
  3450 ;;		_credit_subtract
  3451 ;;		_mdb_init
  3452 ;; This function uses a non-reentrant model
  3453 ;;
  3454                           
  3455                           	psect	text28
  3456   0018B0                     __ptext28:
  3457                           	callstack 0
  3458   0018B0                     _DATAEE_ReadByte:
  3459                           	callstack 20
  3460                           
  3461                           ;incstack = 0
  3462                           ;DATAEE_ReadByte@bAdd stored from wreg
  3463   0018B0  6E37               	movwf	DATAEE_ReadByte@bAdd^0,c
  3464   0018B2                     
  3465                           ;mcc_generated_files/memory.c: 186: uint8_t DATAEE_ReadByte(uint8_t bAdd);mcc_generated_
      +                          files/memory.c: 187: {;mcc_generated_files/memory.c: 188:     NVMADRL = (uint8_t)(bAdd &
      +                           0xFF);
  3466   0018B2  0060  F0DF  F9E0   	movff	DATAEE_ReadByte@bAdd,14816	;volatile
  3467   0018B8                     
  3468                           ;mcc_generated_files/memory.c: 189:     NVMCON1bits.NVMREG = 0;
  3469   0018B8  0E3F               	movlw	-193
  3470   0018BA  0139               	movlb	57	; () banked
  3471   0018BC  17E5               	andwf	229,f,b	;volsfr
  3472   0018BE                     
  3473                           ; BSR set to: 57
  3474                           ;mcc_generated_files/memory.c: 190:     NVMCON1bits.RD = 1;
  3475   0018BE  81E5               	bsf	229,0,b	;volsfr
  3476   0018C0                     
  3477                           ; BSR set to: 57
  3478                           ;mcc_generated_files/memory.c: 191:     __nop();
  3479   0018C0  F000               	nop	
  3480   0018C2                     
  3481                           ;mcc_generated_files/memory.c: 192:     __nop();
  3482   0018C2  F000               	nop	
  3483   0018C4                     
  3484                           ;mcc_generated_files/memory.c: 194:     return (NVMDAT);
  3485   0018C4  0139               	movlb	57	; () banked
  3486   0018C6  51E3               	movf	227,w,b	;volatile
  3487   0018C8                     
  3488                           ; BSR set to: 57
  3489   0018C8  0012               	return		;funcret
  3490   0018CA                     __end_of_DATAEE_ReadByte:
  3491                           	callstack 0
  3492                           
  3493 ;; *************** function _SYSTEM_Initialize *****************
  3494 ;; Defined at:
  3495 ;;		line 50 in file "mcc_generated_files/mcc.c"
  3496 ;; Parameters:    Size  Location     Type
  3497 ;;		None
  3498 ;; Auto vars:     Size  Location     Type
  3499 ;;		None
  3500 ;; Return value:  Size  Location     Type
  3501 ;;                  1    wreg      void 
  3502 ;; Registers used:
  3503 ;;		wreg, status,2, status,0, cstack
  3504 ;; Tracked objects:
  3505 ;;		On entry : 0/0
  3506 ;;		On exit  : 0/0
  3507 ;;		Unchanged: 0/0
  3508 ;; Data sizes:     COMRAM   BANK0   BANK1   BANK2   BANK3   BANK4   BANK5   BANK6   BANK7
  3509 ;;      Params:         0       0       0       0       0       0       0       0       0
  3510 ;;      Locals:         0       0       0       0       0       0       0       0       0
  3511 ;;      Temps:          0       0       0       0       0       0       0       0       0
  3512 ;;      Totals:         0       0       0       0       0       0       0       0       0
  3513 ;;Total ram usage:        0 bytes
  3514 ;; Hardware stack levels used: 1
  3515 ;; Hardware stack levels required when called: 11
  3516 ;; This function calls:
  3517 ;;		_CMP1_Initialize
  3518 ;;		_DAC1_Initialize
  3519 ;;		_INTERRUPT_Initialize
  3520 ;;		_OSCILLATOR_Initialize
  3521 ;;		_PIN_MANAGER_Initialize
  3522 ;;		_PMD_Initialize
  3523 ;;		_TMR0_Initialize
  3524 ;;		_TMR1_Initialize
  3525 ;;		_TMR2_Initialize
  3526 ;;		_TMR3_Initialize
  3527 ;;		_TMR5_Initialize
  3528 ;;		_UART1_Initialize
  3529 ;;		_UART2_Initialize
  3530 ;; This function is called by:
  3531 ;;		_main
  3532 ;; This function uses a non-reentrant model
  3533 ;;
  3534                           
  3535                           	psect	text29
  3536   00159A                     __ptext29:
  3537                           	callstack 0
  3538   00159A                     _SYSTEM_Initialize:
  3539                           	callstack 19
  3540   00159A                     
  3541                           ;mcc_generated_files/mcc.c: 52:     INTERRUPT_Initialize();
  3542   00159A  EC40  F00D         	call	_INTERRUPT_Initialize	;wreg free
  3543   00159E                     
  3544                           ;mcc_generated_files/mcc.c: 53:     PMD_Initialize();
  3545   00159E  EC17  F00C         	call	_PMD_Initialize	;wreg free
  3546   0015A2                     
  3547                           ;mcc_generated_files/mcc.c: 54:     PIN_MANAGER_Initialize();
  3548   0015A2  EC87  F008         	call	_PIN_MANAGER_Initialize	;wreg free
  3549   0015A6                     
  3550                           ;mcc_generated_files/mcc.c: 55:     OSCILLATOR_Initialize();
  3551   0015A6  EC7F  F00C         	call	_OSCILLATOR_Initialize	;wreg free
  3552   0015AA                     
  3553                           ;mcc_generated_files/mcc.c: 56:     CMP1_Initialize();
  3554   0015AA  ECA1  F00C         	call	_CMP1_Initialize	;wreg free
  3555   0015AE                     
  3556                           ;mcc_generated_files/mcc.c: 57:     TMR3_Initialize();
  3557   0015AE  EC03  F00B         	call	_TMR3_Initialize	;wreg free
  3558   0015B2                     
  3559                           ;mcc_generated_files/mcc.c: 58:     DAC1_Initialize();
  3560   0015B2  ECFC  F00C         	call	_DAC1_Initialize	;wreg free
  3561   0015B6                     
  3562                           ;mcc_generated_files/mcc.c: 59:     TMR5_Initialize();
  3563   0015B6  ECE8  F00A         	call	_TMR5_Initialize	;wreg free
  3564   0015BA                     
  3565                           ;mcc_generated_files/mcc.c: 60:     TMR2_Initialize();
  3566   0015BA  ECC3  F00B         	call	_TMR2_Initialize	;wreg free
  3567   0015BE                     
  3568                           ;mcc_generated_files/mcc.c: 61:     TMR1_Initialize();
  3569   0015BE  EC1E  F00B         	call	_TMR1_Initialize	;wreg free
  3570   0015C2                     
  3571                           ;mcc_generated_files/mcc.c: 62:     TMR0_Initialize();
  3572   0015C2  EC8B  F00C         	call	_TMR0_Initialize	;wreg free
  3573   0015C6                     
  3574                           ;mcc_generated_files/mcc.c: 63:     UART2_Initialize();
  3575   0015C6  EC2E  F009         	call	_UART2_Initialize	;wreg free
  3576   0015CA                     
  3577                           ;mcc_generated_files/mcc.c: 64:     UART1_Initialize();
  3578   0015CA  ECFA  F008         	call	_UART1_Initialize	;wreg free
  3579   0015CE  0012               	return		;funcret
  3580   0015D0                     __end_of_SYSTEM_Initialize:
  3581                           	callstack 0
  3582                           
  3583 ;; *************** function _UART2_Initialize *****************
  3584 ;; Defined at:
  3585 ;;		line 66 in file "mcc_generated_files/uart2.c"
  3586 ;; Parameters:    Size  Location     Type
  3587 ;;		None
  3588 ;; Auto vars:     Size  Location     Type
  3589 ;;		None
  3590 ;; Return value:  Size  Location     Type
  3591 ;;                  1    wreg      void 
  3592 ;; Registers used:
  3593 ;;		wreg, status,2, status,0, cstack
  3594 ;; Tracked objects:
  3595 ;;		On entry : 0/0
  3596 ;;		On exit  : 0/0
  3597 ;;		Unchanged: 0/0
  3598 ;; Data sizes:     COMRAM   BANK0   BANK1   BANK2   BANK3   BANK4   BANK5   BANK6   BANK7
  3599 ;;      Params:         0       0       0       0       0       0       0       0       0
  3600 ;;      Locals:         0       0       0       0       0       0       0       0       0
  3601 ;;      Temps:          0       0       0       0       0       0       0       0       0
  3602 ;;      Totals:         0       0       0       0       0       0       0       0       0
  3603 ;;Total ram usage:        0 bytes
  3604 ;; Hardware stack levels used: 1
  3605 ;; Hardware stack levels required when called: 10
  3606 ;; This function calls:
  3607 ;;		_UART2_SetErrorHandler
  3608 ;;		_UART2_SetFramingErrorHandler
  3609 ;;		_UART2_SetOverrunErrorHandler
  3610 ;; This function is called by:
  3611 ;;		_SYSTEM_Initialize
  3612 ;; This function uses a non-reentrant model
  3613 ;;
  3614                           
  3615                           	psect	text30
  3616   00125C                     __ptext30:
  3617                           	callstack 0
  3618   00125C                     _UART2_Initialize:
  3619                           	callstack 19
  3620   00125C                     
  3621                           ;mcc_generated_files/uart2.c: 73:     U2P1L = 0x00;
  3622   00125C  0E00               	movlw	0
  3623   00125E  013D               	movlb	61	; () banked
  3624   001260  6FD4               	movwf	212,b	;volatile
  3625                           
  3626                           ;mcc_generated_files/uart2.c: 76:     U2P2L = 0x00;
  3627   001262  0E00               	movlw	0
  3628   001264  6FD6               	movwf	214,b	;volatile
  3629                           
  3630                           ;mcc_generated_files/uart2.c: 79:     U2P3L = 0x00;
  3631   001266  0E00               	movlw	0
  3632   001268  6FD8               	movwf	216,b	;volatile
  3633                           
  3634                           ;mcc_generated_files/uart2.c: 82:     U2CON0 = 0xB0;
  3635   00126A  0EB0               	movlw	176
  3636   00126C  6FDA               	movwf	218,b	;volatile
  3637                           
  3638                           ;mcc_generated_files/uart2.c: 85:     U2CON1 = 0x80;
  3639   00126E  0E80               	movlw	128
  3640   001270  6FDB               	movwf	219,b	;volatile
  3641                           
  3642                           ;mcc_generated_files/uart2.c: 88:     U2CON2 = 0x00;
  3643   001272  0E00               	movlw	0
  3644   001274  6FDC               	movwf	220,b	;volatile
  3645                           
  3646                           ;mcc_generated_files/uart2.c: 91:     U2BRGL = 0x38;
  3647   001276  0E38               	movlw	56
  3648   001278  6FDD               	movwf	221,b	;volatile
  3649                           
  3650                           ;mcc_generated_files/uart2.c: 94:     U2BRGH = 0x01;
  3651   00127A  0E01               	movlw	1
  3652   00127C  6FDE               	movwf	222,b	;volatile
  3653                           
  3654                           ;mcc_generated_files/uart2.c: 97:     U2FIFO = 0x00;
  3655   00127E  0E00               	movlw	0
  3656   001280  6FDF               	movwf	223,b	;volatile
  3657                           
  3658                           ;mcc_generated_files/uart2.c: 100:     U2UIR = 0x00;
  3659   001282  0E00               	movlw	0
  3660   001284  6FE0               	movwf	224,b	;volatile
  3661                           
  3662                           ;mcc_generated_files/uart2.c: 103:     U2ERRIR = 0x00;
  3663   001286  0E00               	movlw	0
  3664   001288  6FE1               	movwf	225,b	;volatile
  3665                           
  3666                           ;mcc_generated_files/uart2.c: 106:     U2ERRIE = 0x00;
  3667   00128A  0E00               	movlw	0
  3668   00128C  6FE2               	movwf	226,b	;volatile
  3669   00128E                     
  3670                           ; BSR set to: 61
  3671                           ;mcc_generated_files/uart2.c: 109:     UART2_SetFramingErrorHandler(UART2_DefaultFraming
      +                          ErrorHandler);
  3672   00128E  0E00               	movlw	0
  3673   001290  6E37               	movwf	UART2_SetFramingErrorHandler@interruptHandler^0,c
  3674   001292  0E00               	movlw	0
  3675   001294  6E38               	movwf	(UART2_SetFramingErrorHandler@interruptHandler+1)^0,c
  3676   001296  EC0C  F00D         	call	_UART2_SetFramingErrorHandler	;wreg free
  3677   00129A                     
  3678                           ;mcc_generated_files/uart2.c: 110:     UART2_SetOverrunErrorHandler(UART2_DefaultOverrun
      +                          ErrorHandler);
  3679   00129A  0E00               	movlw	0
  3680   00129C  6E37               	movwf	UART2_SetOverrunErrorHandler@interruptHandler^0,c
  3681   00129E  0E00               	movlw	0
  3682   0012A0  6E38               	movwf	(UART2_SetOverrunErrorHandler@interruptHandler+1)^0,c
  3683   0012A2  EC07  F00D         	call	_UART2_SetOverrunErrorHandler	;wreg free
  3684   0012A6                     
  3685                           ;mcc_generated_files/uart2.c: 111:     UART2_SetErrorHandler(UART2_DefaultErrorHandler);
  3686   0012A6  0E00               	movlw	0
  3687   0012A8  6E37               	movwf	UART2_SetErrorHandler@interruptHandler^0,c
  3688   0012AA  0E00               	movlw	0
  3689   0012AC  6E38               	movwf	(UART2_SetErrorHandler@interruptHandler+1)^0,c
  3690   0012AE  EC11  F00D         	call	_UART2_SetErrorHandler	;wreg free
  3691   0012B2                     
  3692                           ;mcc_generated_files/uart2.c: 113:     uart2RxLastError.status = 0;
  3693   0012B2  0E00               	movlw	0
  3694   0012B4  6E26               	movwf	_uart2RxLastError^0,c	;volatile
  3695   0012B6  0012               	return		;funcret
  3696   0012B8                     __end_of_UART2_Initialize:
  3697                           	callstack 0
  3698                           
  3699 ;; *************** function _UART2_SetOverrunErrorHandler *****************
  3700 ;; Defined at:
  3701 ;;		line 185 in file "mcc_generated_files/uart2.c"
  3702 ;; Parameters:    Size  Location     Type
  3703 ;;  interruptHan    2   13[COMRAM] PTR FTN()void 
  3704 ;;		 -> UART2_DefaultOverrunErrorHandler(1), 
  3705 ;; Auto vars:     Size  Location     Type
  3706 ;;		None
  3707 ;; Return value:  Size  Location     Type
  3708 ;;                  1    wreg      void 
  3709 ;; Registers used:
  3710 ;;		wreg, status,2, status,0
  3711 ;; Tracked objects:
  3712 ;;		On entry : 0/0
  3713 ;;		On exit  : 0/0
  3714 ;;		Unchanged: 0/0
  3715 ;; Data sizes:     COMRAM   BANK0   BANK1   BANK2   BANK3   BANK4   BANK5   BANK6   BANK7
  3716 ;;      Params:         2       0       0       0       0       0       0       0       0
  3717 ;;      Locals:         0       0       0       0       0       0       0       0       0
  3718 ;;      Temps:          0       0       0       0       0       0       0       0       0
  3719 ;;      Totals:         2       0       0       0       0       0       0       0       0
  3720 ;;Total ram usage:        2 bytes
  3721 ;; Hardware stack levels used: 1
  3722 ;; Hardware stack levels required when called: 9
  3723 ;; This function calls:
  3724 ;;		Nothing
  3725 ;; This function is called by:
  3726 ;;		_UART2_Initialize
  3727 ;; This function uses a non-reentrant model
  3728 ;;
  3729                           
  3730                           	psect	text31
  3731   001A0E                     __ptext31:
  3732                           	callstack 0
  3733   001A0E                     _UART2_SetOverrunErrorHandler:
  3734                           	callstack 19
  3735   001A0E                     
  3736                           ;mcc_generated_files/uart2.c: 186:     UART2_OverrunErrorHandler = interruptHandler;
  3737   001A0E  C037  F009         	movff	UART2_SetOverrunErrorHandler@interruptHandler,_UART2_OverrunErrorHandler
  3738   001A12  C038  F00A         	movff	UART2_SetOverrunErrorHandler@interruptHandler+1,_UART2_OverrunErrorHandler+1
  3739   001A16  0012               	return		;funcret
  3740   001A18                     __end_of_UART2_SetOverrunErrorHandler:
  3741                           	callstack 0
  3742                           
  3743 ;; *************** function _UART2_SetFramingErrorHandler *****************
  3744 ;; Defined at:
  3745 ;;		line 181 in file "mcc_generated_files/uart2.c"
  3746 ;; Parameters:    Size  Location     Type
  3747 ;;  interruptHan    2   13[COMRAM] PTR FTN()void 
  3748 ;;		 -> UART2_DefaultFramingErrorHandler(1), 
  3749 ;; Auto vars:     Size  Location     Type
  3750 ;;		None
  3751 ;; Return value:  Size  Location     Type
  3752 ;;                  1    wreg      void 
  3753 ;; Registers used:
  3754 ;;		wreg, status,2, status,0
  3755 ;; Tracked objects:
  3756 ;;		On entry : 0/0
  3757 ;;		On exit  : 0/0
  3758 ;;		Unchanged: 0/0
  3759 ;; Data sizes:     COMRAM   BANK0   BANK1   BANK2   BANK3   BANK4   BANK5   BANK6   BANK7
  3760 ;;      Params:         2       0       0       0       0       0       0       0       0
  3761 ;;      Locals:         0       0       0       0       0       0       0       0       0
  3762 ;;      Temps:          0       0       0       0       0       0       0       0       0
  3763 ;;      Totals:         2       0       0       0       0       0       0       0       0
  3764 ;;Total ram usage:        2 bytes
  3765 ;; Hardware stack levels used: 1
  3766 ;; Hardware stack levels required when called: 9
  3767 ;; This function calls:
  3768 ;;		Nothing
  3769 ;; This function is called by:
  3770 ;;		_UART2_Initialize
  3771 ;; This function uses a non-reentrant model
  3772 ;;
  3773                           
  3774                           	psect	text32
  3775   001A18                     __ptext32:
  3776                           	callstack 0
  3777   001A18                     _UART2_SetFramingErrorHandler:
  3778                           	callstack 19
  3779   001A18                     
  3780                           ;mcc_generated_files/uart2.c: 182:     UART2_FramingErrorHandler = interruptHandler;
  3781   001A18  C037  F00B         	movff	UART2_SetFramingErrorHandler@interruptHandler,_UART2_FramingErrorHandler
  3782   001A1C  C038  F00C         	movff	UART2_SetFramingErrorHandler@interruptHandler+1,_UART2_FramingErrorHandler+1
  3783   001A20  0012               	return		;funcret
  3784   001A22                     __end_of_UART2_SetFramingErrorHandler:
  3785                           	callstack 0
  3786                           
  3787 ;; *************** function _UART2_SetErrorHandler *****************
  3788 ;; Defined at:
  3789 ;;		line 189 in file "mcc_generated_files/uart2.c"
  3790 ;; Parameters:    Size  Location     Type
  3791 ;;  interruptHan    2   13[COMRAM] PTR FTN()void 
  3792 ;;		 -> UART2_DefaultErrorHandler(1), 
  3793 ;; Auto vars:     Size  Location     Type
  3794 ;;		None
  3795 ;; Return value:  Size  Location     Type
  3796 ;;                  1    wreg      void 
  3797 ;; Registers used:
  3798 ;;		wreg, status,2, status,0
  3799 ;; Tracked objects:
  3800 ;;		On entry : 0/0
  3801 ;;		On exit  : 0/0
  3802 ;;		Unchanged: 0/0
  3803 ;; Data sizes:     COMRAM   BANK0   BANK1   BANK2   BANK3   BANK4   BANK5   BANK6   BANK7
  3804 ;;      Params:         2       0       0       0       0       0       0       0       0
  3805 ;;      Locals:         0       0       0       0       0       0       0       0       0
  3806 ;;      Temps:          0       0       0       0       0       0       0       0       0
  3807 ;;      Totals:         2       0       0       0       0       0       0       0       0
  3808 ;;Total ram usage:        2 bytes
  3809 ;; Hardware stack levels used: 1
  3810 ;; Hardware stack levels required when called: 9
  3811 ;; This function calls:
  3812 ;;		Nothing
  3813 ;; This function is called by:
  3814 ;;		_UART2_Initialize
  3815 ;; This function uses a non-reentrant model
  3816 ;;
  3817                           
  3818                           	psect	text33
  3819   001A22                     __ptext33:
  3820                           	callstack 0
  3821   001A22                     _UART2_SetErrorHandler:
  3822                           	callstack 19
  3823   001A22                     
  3824                           ;mcc_generated_files/uart2.c: 190:     UART2_ErrorHandler = interruptHandler;
  3825   001A22  C037  F007         	movff	UART2_SetErrorHandler@interruptHandler,_UART2_ErrorHandler
  3826   001A26  C038  F008         	movff	UART2_SetErrorHandler@interruptHandler+1,_UART2_ErrorHandler+1
  3827   001A2A  0012               	return		;funcret
  3828   001A2C                     __end_of_UART2_SetErrorHandler:
  3829                           	callstack 0
  3830                           
  3831 ;; *************** function _UART1_Initialize *****************
  3832 ;; Defined at:
  3833 ;;		line 66 in file "mcc_generated_files/uart1.c"
  3834 ;; Parameters:    Size  Location     Type
  3835 ;;		None
  3836 ;; Auto vars:     Size  Location     Type
  3837 ;;		None
  3838 ;; Return value:  Size  Location     Type
  3839 ;;                  1    wreg      void 
  3840 ;; Registers used:
  3841 ;;		wreg, status,2, status,0, cstack
  3842 ;; Tracked objects:
  3843 ;;		On entry : 0/0
  3844 ;;		On exit  : 0/0
  3845 ;;		Unchanged: 0/0
  3846 ;; Data sizes:     COMRAM   BANK0   BANK1   BANK2   BANK3   BANK4   BANK5   BANK6   BANK7
  3847 ;;      Params:         0       0       0       0       0       0       0       0       0
  3848 ;;      Locals:         0       0       0       0       0       0       0       0       0
  3849 ;;      Temps:          0       0       0       0       0       0       0       0       0
  3850 ;;      Totals:         0       0       0       0       0       0       0       0       0
  3851 ;;Total ram usage:        0 bytes
  3852 ;; Hardware stack levels used: 1
  3853 ;; Hardware stack levels required when called: 10
  3854 ;; This function calls:
  3855 ;;		_UART1_SetErrorHandler
  3856 ;;		_UART1_SetFramingErrorHandler
  3857 ;;		_UART1_SetOverrunErrorHandler
  3858 ;; This function is called by:
  3859 ;;		_SYSTEM_Initialize
  3860 ;; This function uses a non-reentrant model
  3861 ;;
  3862                           
  3863                           	psect	text34
  3864   0011F4                     __ptext34:
  3865                           	callstack 0
  3866   0011F4                     _UART1_Initialize:
  3867                           	callstack 19
  3868   0011F4                     
  3869                           ;mcc_generated_files/uart1.c: 73:     U1P1L = 0x00;
  3870   0011F4  0E00               	movlw	0
  3871   0011F6  013D               	movlb	61	; () banked
  3872   0011F8  6FEC               	movwf	236,b	;volatile
  3873                           
  3874                           ;mcc_generated_files/uart1.c: 76:     U1P1H = 0x00;
  3875   0011FA  0E00               	movlw	0
  3876   0011FC  6FED               	movwf	237,b	;volatile
  3877                           
  3878                           ;mcc_generated_files/uart1.c: 79:     U1P2L = 0x00;
  3879   0011FE  0E00               	movlw	0
  3880   001200  6FEE               	movwf	238,b	;volatile
  3881                           
  3882                           ;mcc_generated_files/uart1.c: 82:     U1P2H = 0x00;
  3883   001202  0E00               	movlw	0
  3884   001204  6FEF               	movwf	239,b	;volatile
  3885                           
  3886                           ;mcc_generated_files/uart1.c: 85:     U1P3L = 0x00;
  3887   001206  0E00               	movlw	0
  3888   001208  6FF0               	movwf	240,b	;volatile
  3889                           
  3890                           ;mcc_generated_files/uart1.c: 88:     U1P3H = 0x00;
  3891   00120A  0E00               	movlw	0
  3892   00120C  6FF1               	movwf	241,b	;volatile
  3893                           
  3894                           ;mcc_generated_files/uart1.c: 91:     U1CON0 = 0xB4;
  3895   00120E  0EB4               	movlw	180
  3896   001210  6FF2               	movwf	242,b	;volatile
  3897                           
  3898                           ;mcc_generated_files/uart1.c: 94:     U1CON1 = 0x88;
  3899   001212  0E88               	movlw	136
  3900   001214  6FF3               	movwf	243,b	;volatile
  3901                           
  3902                           ;mcc_generated_files/uart1.c: 97:     U1CON2 = 0x80;
  3903   001216  0E80               	movlw	128
  3904   001218  6FF4               	movwf	244,b	;volatile
  3905                           
  3906                           ;mcc_generated_files/uart1.c: 100:     U1BRGL = 0x38;
  3907   00121A  0E38               	movlw	56
  3908   00121C  6FF5               	movwf	245,b	;volatile
  3909                           
  3910                           ;mcc_generated_files/uart1.c: 103:     U1BRGH = 0x01;
  3911   00121E  0E01               	movlw	1
  3912   001220  6FF6               	movwf	246,b	;volatile
  3913                           
  3914                           ;mcc_generated_files/uart1.c: 106:     U1FIFO = 0x00;
  3915   001222  0E00               	movlw	0
  3916   001224  6FF7               	movwf	247,b	;volatile
  3917                           
  3918                           ;mcc_generated_files/uart1.c: 109:     U1UIR = 0x00;
  3919   001226  0E00               	movlw	0
  3920   001228  6FF8               	movwf	248,b	;volatile
  3921                           
  3922                           ;mcc_generated_files/uart1.c: 112:     U1ERRIR = 0x00;
  3923   00122A  0E00               	movlw	0
  3924   00122C  6FF9               	movwf	249,b	;volatile
  3925                           
  3926                           ;mcc_generated_files/uart1.c: 115:     U1ERRIE = 0x00;
  3927   00122E  0E00               	movlw	0
  3928   001230  6FFA               	movwf	250,b	;volatile
  3929   001232                     
  3930                           ; BSR set to: 61
  3931                           ;mcc_generated_files/uart1.c: 118:     UART1_SetFramingErrorHandler(UART1_DefaultFraming
      +                          ErrorHandler);
  3932   001232  0E00               	movlw	0
  3933   001234  6E37               	movwf	UART1_SetFramingErrorHandler@interruptHandler^0,c
  3934   001236  0E00               	movlw	0
  3935   001238  6E38               	movwf	(UART1_SetFramingErrorHandler@interruptHandler+1)^0,c
  3936   00123A  EC1B  F00D         	call	_UART1_SetFramingErrorHandler	;wreg free
  3937   00123E                     
  3938                           ;mcc_generated_files/uart1.c: 119:     UART1_SetOverrunErrorHandler(UART1_DefaultOverrun
      +                          ErrorHandler);
  3939   00123E  0E00               	movlw	0
  3940   001240  6E37               	movwf	UART1_SetOverrunErrorHandler@interruptHandler^0,c
  3941   001242  0E00               	movlw	0
  3942   001244  6E38               	movwf	(UART1_SetOverrunErrorHandler@interruptHandler+1)^0,c
  3943   001246  EC16  F00D         	call	_UART1_SetOverrunErrorHandler	;wreg free
  3944   00124A                     
  3945                           ;mcc_generated_files/uart1.c: 120:     UART1_SetErrorHandler(UART1_DefaultErrorHandler);
  3946   00124A  0E00               	movlw	0
  3947   00124C  6E37               	movwf	UART1_SetErrorHandler@interruptHandler^0,c
  3948   00124E  0E00               	movlw	0
  3949   001250  6E38               	movwf	(UART1_SetErrorHandler@interruptHandler+1)^0,c
  3950   001252  EC20  F00D         	call	_UART1_SetErrorHandler	;wreg free
  3951   001256                     
  3952                           ;mcc_generated_files/uart1.c: 122:     uart1RxLastError.status = 0;
  3953   001256  0E00               	movlw	0
  3954   001258  6E27               	movwf	_uart1RxLastError^0,c	;volatile
  3955   00125A  0012               	return		;funcret
  3956   00125C                     __end_of_UART1_Initialize:
  3957                           	callstack 0
  3958                           
  3959 ;; *************** function _UART1_SetOverrunErrorHandler *****************
  3960 ;; Defined at:
  3961 ;;		line 199 in file "mcc_generated_files/uart1.c"
  3962 ;; Parameters:    Size  Location     Type
  3963 ;;  interruptHan    2   13[COMRAM] PTR FTN()void 
  3964 ;;		 -> UART1_DefaultOverrunErrorHandler(1), 
  3965 ;; Auto vars:     Size  Location     Type
  3966 ;;		None
  3967 ;; Return value:  Size  Location     Type
  3968 ;;                  1    wreg      void 
  3969 ;; Registers used:
  3970 ;;		wreg, status,2, status,0
  3971 ;; Tracked objects:
  3972 ;;		On entry : 0/0
  3973 ;;		On exit  : 0/0
  3974 ;;		Unchanged: 0/0
  3975 ;; Data sizes:     COMRAM   BANK0   BANK1   BANK2   BANK3   BANK4   BANK5   BANK6   BANK7
  3976 ;;      Params:         2       0       0       0       0       0       0       0       0
  3977 ;;      Locals:         0       0       0       0       0       0       0       0       0
  3978 ;;      Temps:          0       0       0       0       0       0       0       0       0
  3979 ;;      Totals:         2       0       0       0       0       0       0       0       0
  3980 ;;Total ram usage:        2 bytes
  3981 ;; Hardware stack levels used: 1
  3982 ;; Hardware stack levels required when called: 9
  3983 ;; This function calls:
  3984 ;;		Nothing
  3985 ;; This function is called by:
  3986 ;;		_UART1_Initialize
  3987 ;; This function uses a non-reentrant model
  3988 ;;
  3989                           
  3990                           	psect	text35
  3991   001A2C                     __ptext35:
  3992                           	callstack 0
  3993   001A2C                     _UART1_SetOverrunErrorHandler:
  3994                           	callstack 19
  3995   001A2C                     
  3996                           ;mcc_generated_files/uart1.c: 200:     UART1_OverrunErrorHandler = interruptHandler;
  3997   001A2C  C037  F00F         	movff	UART1_SetOverrunErrorHandler@interruptHandler,_UART1_OverrunErrorHandler
  3998   001A30  C038  F010         	movff	UART1_SetOverrunErrorHandler@interruptHandler+1,_UART1_OverrunErrorHandler+1
  3999   001A34  0012               	return		;funcret
  4000   001A36                     __end_of_UART1_SetOverrunErrorHandler:
  4001                           	callstack 0
  4002                           
  4003 ;; *************** function _UART1_SetFramingErrorHandler *****************
  4004 ;; Defined at:
  4005 ;;		line 195 in file "mcc_generated_files/uart1.c"
  4006 ;; Parameters:    Size  Location     Type
  4007 ;;  interruptHan    2   13[COMRAM] PTR FTN()void 
  4008 ;;		 -> UART1_DefaultFramingErrorHandler(1), 
  4009 ;; Auto vars:     Size  Location     Type
  4010 ;;		None
  4011 ;; Return value:  Size  Location     Type
  4012 ;;                  1    wreg      void 
  4013 ;; Registers used:
  4014 ;;		wreg, status,2, status,0
  4015 ;; Tracked objects:
  4016 ;;		On entry : 0/0
  4017 ;;		On exit  : 0/0
  4018 ;;		Unchanged: 0/0
  4019 ;; Data sizes:     COMRAM   BANK0   BANK1   BANK2   BANK3   BANK4   BANK5   BANK6   BANK7
  4020 ;;      Params:         2       0       0       0       0       0       0       0       0
  4021 ;;      Locals:         0       0       0       0       0       0       0       0       0
  4022 ;;      Temps:          0       0       0       0       0       0       0       0       0
  4023 ;;      Totals:         2       0       0       0       0       0       0       0       0
  4024 ;;Total ram usage:        2 bytes
  4025 ;; Hardware stack levels used: 1
  4026 ;; Hardware stack levels required when called: 9
  4027 ;; This function calls:
  4028 ;;		Nothing
  4029 ;; This function is called by:
  4030 ;;		_UART1_Initialize
  4031 ;; This function uses a non-reentrant model
  4032 ;;
  4033                           
  4034                           	psect	text36
  4035   001A36                     __ptext36:
  4036                           	callstack 0
  4037   001A36                     _UART1_SetFramingErrorHandler:
  4038                           	callstack 19
  4039   001A36                     
  4040                           ;mcc_generated_files/uart1.c: 196:     UART1_FramingErrorHandler = interruptHandler;
  4041   001A36  C037  F011         	movff	UART1_SetFramingErrorHandler@interruptHandler,_UART1_FramingErrorHandler
  4042   001A3A  C038  F012         	movff	UART1_SetFramingErrorHandler@interruptHandler+1,_UART1_FramingErrorHandler+1
  4043   001A3E  0012               	return		;funcret
  4044   001A40                     __end_of_UART1_SetFramingErrorHandler:
  4045                           	callstack 0
  4046                           
  4047 ;; *************** function _UART1_SetErrorHandler *****************
  4048 ;; Defined at:
  4049 ;;		line 203 in file "mcc_generated_files/uart1.c"
  4050 ;; Parameters:    Size  Location     Type
  4051 ;;  interruptHan    2   13[COMRAM] PTR FTN()void 
  4052 ;;		 -> UART1_DefaultErrorHandler(1), 
  4053 ;; Auto vars:     Size  Location     Type
  4054 ;;		None
  4055 ;; Return value:  Size  Location     Type
  4056 ;;                  1    wreg      void 
  4057 ;; Registers used:
  4058 ;;		wreg, status,2, status,0
  4059 ;; Tracked objects:
  4060 ;;		On entry : 0/0
  4061 ;;		On exit  : 0/0
  4062 ;;		Unchanged: 0/0
  4063 ;; Data sizes:     COMRAM   BANK0   BANK1   BANK2   BANK3   BANK4   BANK5   BANK6   BANK7
  4064 ;;      Params:         2       0       0       0       0       0       0       0       0
  4065 ;;      Locals:         0       0       0       0       0       0       0       0       0
  4066 ;;      Temps:          0       0       0       0       0       0       0       0       0
  4067 ;;      Totals:         2       0       0       0       0       0       0       0       0
  4068 ;;Total ram usage:        2 bytes
  4069 ;; Hardware stack levels used: 1
  4070 ;; Hardware stack levels required when called: 9
  4071 ;; This function calls:
  4072 ;;		Nothing
  4073 ;; This function is called by:
  4074 ;;		_UART1_Initialize
  4075 ;; This function uses a non-reentrant model
  4076 ;;
  4077                           
  4078                           	psect	text37
  4079   001A40                     __ptext37:
  4080                           	callstack 0
  4081   001A40                     _UART1_SetErrorHandler:
  4082                           	callstack 19
  4083   001A40                     
  4084                           ;mcc_generated_files/uart1.c: 204:     UART1_ErrorHandler = interruptHandler;
  4085   001A40  C037  F00D         	movff	UART1_SetErrorHandler@interruptHandler,_UART1_ErrorHandler
  4086   001A44  C038  F00E         	movff	UART1_SetErrorHandler@interruptHandler+1,_UART1_ErrorHandler+1
  4087   001A48  0012               	return		;funcret
  4088   001A4A                     __end_of_UART1_SetErrorHandler:
  4089                           	callstack 0
  4090                           
  4091 ;; *************** function _TMR5_Initialize *****************
  4092 ;; Defined at:
  4093 ;;		line 63 in file "mcc_generated_files/tmr5.c"
  4094 ;; Parameters:    Size  Location     Type
  4095 ;;		None
  4096 ;; Auto vars:     Size  Location     Type
  4097 ;;		None
  4098 ;; Return value:  Size  Location     Type
  4099 ;;                  1    wreg      void 
  4100 ;; Registers used:
  4101 ;;		wreg, status,2, status,0
  4102 ;; Tracked objects:
  4103 ;;		On entry : 0/0
  4104 ;;		On exit  : 0/0
  4105 ;;		Unchanged: 0/0
  4106 ;; Data sizes:     COMRAM   BANK0   BANK1   BANK2   BANK3   BANK4   BANK5   BANK6   BANK7
  4107 ;;      Params:         0       0       0       0       0       0       0       0       0
  4108 ;;      Locals:         0       0       0       0       0       0       0       0       0
  4109 ;;      Temps:          2       0       0       0       0       0       0       0       0
  4110 ;;      Totals:         2       0       0       0       0       0       0       0       0
  4111 ;;Total ram usage:        2 bytes
  4112 ;; Hardware stack levels used: 1
  4113 ;; Hardware stack levels required when called: 9
  4114 ;; This function calls:
  4115 ;;		Nothing
  4116 ;; This function is called by:
  4117 ;;		_SYSTEM_Initialize
  4118 ;;		_coin_in
  4119 ;; This function uses a non-reentrant model
  4120 ;;
  4121                           
  4122                           	psect	text38
  4123   0015D0                     __ptext38:
  4124                           	callstack 0
  4125   0015D0                     _TMR5_Initialize:
  4126                           	callstack 20
  4127   0015D0                     
  4128                           ;mcc_generated_files/tmr5.c: 68:     T5GCON = 0x00;
  4129   0015D0  0E00               	movlw	0
  4130   0015D2  6E9B               	movwf	155,c	;volatile
  4131                           
  4132                           ;mcc_generated_files/tmr5.c: 71:     T5GATE = 0x00;
  4133   0015D4  0E00               	movlw	0
  4134   0015D6  6E9C               	movwf	156,c	;volatile
  4135                           
  4136                           ;mcc_generated_files/tmr5.c: 74:     T5CLK = 0x06;
  4137   0015D8  0E06               	movlw	6
  4138   0015DA  6E9D               	movwf	157,c	;volatile
  4139                           
  4140                           ;mcc_generated_files/tmr5.c: 77:     TMR5H = 0xF0;
  4141   0015DC  0EF0               	movlw	240
  4142   0015DE  6E99               	movwf	153,c	;volatile
  4143                           
  4144                           ;mcc_generated_files/tmr5.c: 80:     TMR5L = 0xBE;
  4145   0015E0  0EBE               	movlw	190
  4146   0015E2  6E98               	movwf	152,c	;volatile
  4147   0015E4                     
  4148                           ;mcc_generated_files/tmr5.c: 83:     PIR8bits.TMR5IF = 0;
  4149   0015E4  0139               	movlb	57	; () banked
  4150   0015E6  9DA8               	bcf	168,6,b	;volatile
  4151   0015E8                     
  4152                           ; BSR set to: 57
  4153                           ;mcc_generated_files/tmr5.c: 86:     timer5ReloadVal=(uint16_t)((TMR5H << 8) | TMR5L);
  4154   0015E8  5098               	movf	152,w,c	;volatile
  4155   0015EA  006F FE64  F037    	movff	16281,??_TMR5_Initialize	;volatile
  4156   0015F0  6A38               	clrf	(??_TMR5_Initialize+1)^0,c
  4157   0015F2  C037  F038         	movff	??_TMR5_Initialize,??_TMR5_Initialize+1
  4158   0015F6  6A37               	clrf	??_TMR5_Initialize^0,c
  4159   0015F8  1037               	iorwf	??_TMR5_Initialize^0,w,c
  4160   0015FA  6E13               	movwf	_timer5ReloadVal^0,c	;volatile
  4161   0015FC  5038               	movf	(??_TMR5_Initialize+1)^0,w,c
  4162   0015FE  6E14               	movwf	(_timer5ReloadVal+1)^0,c	;volatile
  4163   001600                     
  4164                           ; BSR set to: 57
  4165                           ;mcc_generated_files/tmr5.c: 89:     T5CON = 0x31;
  4166   001600  0E31               	movlw	49
  4167   001602  6E9A               	movwf	154,c	;volatile
  4168   001604                     
  4169                           ; BSR set to: 57
  4170   001604  0012               	return		;funcret
  4171   001606                     __end_of_TMR5_Initialize:
  4172                           	callstack 0
  4173                           
  4174 ;; *************** function _TMR3_Initialize *****************
  4175 ;; Defined at:
  4176 ;;		line 63 in file "mcc_generated_files/tmr3.c"
  4177 ;; Parameters:    Size  Location     Type
  4178 ;;		None
  4179 ;; Auto vars:     Size  Location     Type
  4180 ;;		None
  4181 ;; Return value:  Size  Location     Type
  4182 ;;                  1    wreg      void 
  4183 ;; Registers used:
  4184 ;;		wreg, status,2, status,0
  4185 ;; Tracked objects:
  4186 ;;		On entry : 0/0
  4187 ;;		On exit  : 0/0
  4188 ;;		Unchanged: 0/0
  4189 ;; Data sizes:     COMRAM   BANK0   BANK1   BANK2   BANK3   BANK4   BANK5   BANK6   BANK7
  4190 ;;      Params:         0       0       0       0       0       0       0       0       0
  4191 ;;      Locals:         0       0       0       0       0       0       0       0       0
  4192 ;;      Temps:          2       0       0       0       0       0       0       0       0
  4193 ;;      Totals:         2       0       0       0       0       0       0       0       0
  4194 ;;Total ram usage:        2 bytes
  4195 ;; Hardware stack levels used: 1
  4196 ;; Hardware stack levels required when called: 9
  4197 ;; This function calls:
  4198 ;;		Nothing
  4199 ;; This function is called by:
  4200 ;;		_SYSTEM_Initialize
  4201 ;;		_button_flash
  4202 ;; This function uses a non-reentrant model
  4203 ;;
  4204                           
  4205                           	psect	text39
  4206   001606                     __ptext39:
  4207                           	callstack 0
  4208   001606                     _TMR3_Initialize:
  4209                           	callstack 19
  4210   001606                     
  4211                           ;mcc_generated_files/tmr3.c: 68:     T3GCON = 0x00;
  4212   001606  0E00               	movlw	0
  4213   001608  6EA7               	movwf	167,c	;volatile
  4214                           
  4215                           ;mcc_generated_files/tmr3.c: 71:     T3GATE = 0x00;
  4216   00160A  0E00               	movlw	0
  4217   00160C  6EA8               	movwf	168,c	;volatile
  4218                           
  4219                           ;mcc_generated_files/tmr3.c: 74:     T3CLK = 0x04;
  4220   00160E  0E04               	movlw	4
  4221   001610  6EA9               	movwf	169,c	;volatile
  4222                           
  4223                           ;mcc_generated_files/tmr3.c: 77:     TMR3H = 0xC3;
  4224   001612  0EC3               	movlw	195
  4225   001614  6EA5               	movwf	165,c	;volatile
  4226                           
  4227                           ;mcc_generated_files/tmr3.c: 80:     TMR3L = 0x74;
  4228   001616  0E74               	movlw	116
  4229   001618  6EA4               	movwf	164,c	;volatile
  4230   00161A                     
  4231                           ;mcc_generated_files/tmr3.c: 83:     PIR6bits.TMR3IF = 0;
  4232   00161A  0139               	movlb	57	; () banked
  4233   00161C  9DA6               	bcf	166,6,b	;volatile
  4234   00161E                     
  4235                           ; BSR set to: 57
  4236                           ;mcc_generated_files/tmr3.c: 86:     timer3ReloadVal=(uint16_t)((TMR3H << 8) | TMR3L);
  4237   00161E  50A4               	movf	164,w,c	;volatile
  4238   001620  006F FE94  F037    	movff	16293,??_TMR3_Initialize	;volatile
  4239   001626  6A38               	clrf	(??_TMR3_Initialize+1)^0,c
  4240   001628  C037  F038         	movff	??_TMR3_Initialize,??_TMR3_Initialize+1
  4241   00162C  6A37               	clrf	??_TMR3_Initialize^0,c
  4242   00162E  1037               	iorwf	??_TMR3_Initialize^0,w,c
  4243   001630  6E15               	movwf	_timer3ReloadVal^0,c	;volatile
  4244   001632  5038               	movf	(??_TMR3_Initialize+1)^0,w,c
  4245   001634  6E16               	movwf	(_timer3ReloadVal+1)^0,c	;volatile
  4246   001636                     
  4247                           ; BSR set to: 57
  4248                           ;mcc_generated_files/tmr3.c: 89:     T3CON = 0x01;
  4249   001636  0E01               	movlw	1
  4250   001638  6EA6               	movwf	166,c	;volatile
  4251   00163A                     
  4252                           ; BSR set to: 57
  4253   00163A  0012               	return		;funcret
  4254   00163C                     __end_of_TMR3_Initialize:
  4255                           	callstack 0
  4256                           
  4257 ;; *************** function _TMR2_Initialize *****************
  4258 ;; Defined at:
  4259 ;;		line 64 in file "mcc_generated_files/tmr2.c"
  4260 ;; Parameters:    Size  Location     Type
  4261 ;;		None
  4262 ;; Auto vars:     Size  Location     Type
  4263 ;;		None
  4264 ;; Return value:  Size  Location     Type
  4265 ;;                  1    wreg      void 
  4266 ;; Registers used:
  4267 ;;		wreg, status,2, status,0, cstack
  4268 ;; Tracked objects:
  4269 ;;		On entry : 0/0
  4270 ;;		On exit  : 0/0
  4271 ;;		Unchanged: 0/0
  4272 ;; Data sizes:     COMRAM   BANK0   BANK1   BANK2   BANK3   BANK4   BANK5   BANK6   BANK7
  4273 ;;      Params:         0       0       0       0       0       0       0       0       0
  4274 ;;      Locals:         0       0       0       0       0       0       0       0       0
  4275 ;;      Temps:          0       0       0       0       0       0       0       0       0
  4276 ;;      Totals:         0       0       0       0       0       0       0       0       0
  4277 ;;Total ram usage:        0 bytes
  4278 ;; Hardware stack levels used: 1
  4279 ;; Hardware stack levels required when called: 10
  4280 ;; This function calls:
  4281 ;;		_TMR2_SetInterruptHandler
  4282 ;; This function is called by:
  4283 ;;		_SYSTEM_Initialize
  4284 ;; This function uses a non-reentrant model
  4285 ;;
  4286                           
  4287                           	psect	text40
  4288   001786                     __ptext40:
  4289                           	callstack 0
  4290   001786                     _TMR2_Initialize:
  4291                           	callstack 19
  4292   001786                     
  4293                           ;mcc_generated_files/tmr2.c: 69:     T2CLKCON = 0x04;
  4294   001786  0E04               	movlw	4
  4295   001788  6EAE               	movwf	174,c	;volatile
  4296                           
  4297                           ;mcc_generated_files/tmr2.c: 72:     T2HLT = 0x20;
  4298   00178A  0E20               	movlw	32
  4299   00178C  6EAD               	movwf	173,c	;volatile
  4300                           
  4301                           ;mcc_generated_files/tmr2.c: 75:     T2RST = 0x00;
  4302   00178E  0E00               	movlw	0
  4303   001790  6EAF               	movwf	175,c	;volatile
  4304                           
  4305                           ;mcc_generated_files/tmr2.c: 78:     T2PR = 0x90;
  4306   001792  0E90               	movlw	144
  4307   001794  6EAB               	movwf	171,c	;volatile
  4308                           
  4309                           ;mcc_generated_files/tmr2.c: 81:     T2TMR = 0x00;
  4310   001796  0E00               	movlw	0
  4311   001798  6EAA               	movwf	170,c	;volatile
  4312   00179A                     
  4313                           ;mcc_generated_files/tmr2.c: 84:     PIR4bits.TMR2IF = 0;
  4314   00179A  0139               	movlb	57	; () banked
  4315   00179C  95A4               	bcf	164,2,b	;volatile
  4316   00179E                     
  4317                           ; BSR set to: 57
  4318                           ;mcc_generated_files/tmr2.c: 87:     PIE4bits.TMR2IE = 1;
  4319   00179E  8594               	bsf	148,2,b	;volatile
  4320   0017A0                     
  4321                           ; BSR set to: 57
  4322                           ;mcc_generated_files/tmr2.c: 90:     TMR2_SetInterruptHandler(TMR2_DefaultInterruptHandl
      +                          er);
  4323   0017A0  0E84               	movlw	low _TMR2_DefaultInterruptHandler
  4324   0017A2  6E37               	movwf	TMR2_SetInterruptHandler@InterruptHandler^0,c
  4325   0017A4  0E1A               	movlw	high _TMR2_DefaultInterruptHandler
  4326   0017A6  6E38               	movwf	(TMR2_SetInterruptHandler@InterruptHandler+1)^0,c
  4327   0017A8  EC25  F00D         	call	_TMR2_SetInterruptHandler	;wreg free
  4328   0017AC                     
  4329                           ;mcc_generated_files/tmr2.c: 93:     T2CON = 0xD0;
  4330   0017AC  0ED0               	movlw	208
  4331   0017AE  6EAC               	movwf	172,c	;volatile
  4332   0017B0  0012               	return		;funcret
  4333   0017B2                     __end_of_TMR2_Initialize:
  4334                           	callstack 0
  4335                           
  4336 ;; *************** function _TMR2_SetInterruptHandler *****************
  4337 ;; Defined at:
  4338 ;;		line 178 in file "mcc_generated_files/tmr2.c"
  4339 ;; Parameters:    Size  Location     Type
  4340 ;;  InterruptHan    2   13[COMRAM] PTR FTN()void 
  4341 ;;		 -> InterruptTMR2(1), TMR2_DefaultInterruptHandler(1), 
  4342 ;; Auto vars:     Size  Location     Type
  4343 ;;		None
  4344 ;; Return value:  Size  Location     Type
  4345 ;;                  1    wreg      void 
  4346 ;; Registers used:
  4347 ;;		wreg, status,2, status,0
  4348 ;; Tracked objects:
  4349 ;;		On entry : 0/0
  4350 ;;		On exit  : 0/0
  4351 ;;		Unchanged: 0/0
  4352 ;; Data sizes:     COMRAM   BANK0   BANK1   BANK2   BANK3   BANK4   BANK5   BANK6   BANK7
  4353 ;;      Params:         2       0       0       0       0       0       0       0       0
  4354 ;;      Locals:         0       0       0       0       0       0       0       0       0
  4355 ;;      Temps:          0       0       0       0       0       0       0       0       0
  4356 ;;      Totals:         2       0       0       0       0       0       0       0       0
  4357 ;;Total ram usage:        2 bytes
  4358 ;; Hardware stack levels used: 1
  4359 ;; Hardware stack levels required when called: 9
  4360 ;; This function calls:
  4361 ;;		Nothing
  4362 ;; This function is called by:
  4363 ;;		_TMR2_Initialize
  4364 ;;		_main
  4365 ;; This function uses a non-reentrant model
  4366 ;;
  4367                           
  4368                           	psect	text41
  4369   001A4A                     __ptext41:
  4370                           	callstack 0
  4371   001A4A                     _TMR2_SetInterruptHandler:
  4372                           	callstack 21
  4373   001A4A                     
  4374                           ;mcc_generated_files/tmr2.c: 179:     TMR2_InterruptHandler = InterruptHandler;
  4375   001A4A  C037  F005         	movff	TMR2_SetInterruptHandler@InterruptHandler,_TMR2_InterruptHandler
  4376   001A4E  C038  F006         	movff	TMR2_SetInterruptHandler@InterruptHandler+1,_TMR2_InterruptHandler+1
  4377   001A52  0012               	return		;funcret
  4378   001A54                     __end_of_TMR2_SetInterruptHandler:
  4379                           	callstack 0
  4380                           
  4381 ;; *************** function _TMR1_Initialize *****************
  4382 ;; Defined at:
  4383 ;;		line 63 in file "mcc_generated_files/tmr1.c"
  4384 ;; Parameters:    Size  Location     Type
  4385 ;;		None
  4386 ;; Auto vars:     Size  Location     Type
  4387 ;;		None
  4388 ;; Return value:  Size  Location     Type
  4389 ;;                  1    wreg      void 
  4390 ;; Registers used:
  4391 ;;		wreg, status,2, status,0
  4392 ;; Tracked objects:
  4393 ;;		On entry : 0/0
  4394 ;;		On exit  : 0/0
  4395 ;;		Unchanged: 0/0
  4396 ;; Data sizes:     COMRAM   BANK0   BANK1   BANK2   BANK3   BANK4   BANK5   BANK6   BANK7
  4397 ;;      Params:         0       0       0       0       0       0       0       0       0
  4398 ;;      Locals:         0       0       0       0       0       0       0       0       0
  4399 ;;      Temps:          2       0       0       0       0       0       0       0       0
  4400 ;;      Totals:         2       0       0       0       0       0       0       0       0
  4401 ;;Total ram usage:        2 bytes
  4402 ;; Hardware stack levels used: 1
  4403 ;; Hardware stack levels required when called: 9
  4404 ;; This function calls:
  4405 ;;		Nothing
  4406 ;; This function is called by:
  4407 ;;		_SYSTEM_Initialize
  4408 ;;		_dispense
  4409 ;;		_Set_Timeout
  4410 ;; This function uses a non-reentrant model
  4411 ;;
  4412                           
  4413                           	psect	text42
  4414   00163C                     __ptext42:
  4415                           	callstack 0
  4416   00163C                     _TMR1_Initialize:
  4417                           	callstack 19
  4418   00163C                     
  4419                           ;mcc_generated_files/tmr1.c: 68:     T1GCON = 0x00;
  4420   00163C  0E00               	movlw	0
  4421   00163E  6EB3               	movwf	179,c	;volatile
  4422                           
  4423                           ;mcc_generated_files/tmr1.c: 71:     T1GATE = 0x00;
  4424   001640  0E00               	movlw	0
  4425   001642  6EB4               	movwf	180,c	;volatile
  4426                           
  4427                           ;mcc_generated_files/tmr1.c: 74:     T1CLK = 0x04;
  4428   001644  0E04               	movlw	4
  4429   001646  6EB5               	movwf	181,c	;volatile
  4430                           
  4431                           ;mcc_generated_files/tmr1.c: 77:     TMR1H = 0x00;
  4432   001648  0E00               	movlw	0
  4433   00164A  6EB1               	movwf	177,c	;volatile
  4434                           
  4435                           ;mcc_generated_files/tmr1.c: 80:     TMR1L = 0x00;
  4436   00164C  0E00               	movlw	0
  4437   00164E  6EB0               	movwf	176,c	;volatile
  4438   001650                     
  4439                           ;mcc_generated_files/tmr1.c: 83:     PIR4bits.TMR1IF = 0;
  4440   001650  0139               	movlb	57	; () banked
  4441   001652  91A4               	bcf	164,0,b	;volatile
  4442   001654                     
  4443                           ; BSR set to: 57
  4444                           ;mcc_generated_files/tmr1.c: 86:     timer1ReloadVal=(uint16_t)((TMR1H << 8) | TMR1L);
  4445   001654  50B0               	movf	176,w,c	;volatile
  4446   001656  006F FEC4  F037    	movff	16305,??_TMR1_Initialize	;volatile
  4447   00165C  6A38               	clrf	(??_TMR1_Initialize+1)^0,c
  4448   00165E  C037  F038         	movff	??_TMR1_Initialize,??_TMR1_Initialize+1
  4449   001662  6A37               	clrf	??_TMR1_Initialize^0,c
  4450   001664  1037               	iorwf	??_TMR1_Initialize^0,w,c
  4451   001666  6E17               	movwf	_timer1ReloadVal^0,c	;volatile
  4452   001668  5038               	movf	(??_TMR1_Initialize+1)^0,w,c
  4453   00166A  6E18               	movwf	(_timer1ReloadVal+1)^0,c	;volatile
  4454   00166C                     
  4455                           ; BSR set to: 57
  4456                           ;mcc_generated_files/tmr1.c: 89:     T1CON = 0x33;
  4457   00166C  0E33               	movlw	51
  4458   00166E  6EB2               	movwf	178,c	;volatile
  4459   001670                     
  4460                           ; BSR set to: 57
  4461   001670  0012               	return		;funcret
  4462   001672                     __end_of_TMR1_Initialize:
  4463                           	callstack 0
  4464                           
  4465 ;; *************** function _TMR0_Initialize *****************
  4466 ;; Defined at:
  4467 ;;		line 60 in file "mcc_generated_files/tmr0.c"
  4468 ;; Parameters:    Size  Location     Type
  4469 ;;		None
  4470 ;; Auto vars:     Size  Location     Type
  4471 ;;		None
  4472 ;; Return value:  Size  Location     Type
  4473 ;;                  1    wreg      void 
  4474 ;; Registers used:
  4475 ;;		wreg, status,2
  4476 ;; Tracked objects:
  4477 ;;		On entry : 0/0
  4478 ;;		On exit  : 0/0
  4479 ;;		Unchanged: 0/0
  4480 ;; Data sizes:     COMRAM   BANK0   BANK1   BANK2   BANK3   BANK4   BANK5   BANK6   BANK7
  4481 ;;      Params:         0       0       0       0       0       0       0       0       0
  4482 ;;      Locals:         0       0       0       0       0       0       0       0       0
  4483 ;;      Temps:          0       0       0       0       0       0       0       0       0
  4484 ;;      Totals:         0       0       0       0       0       0       0       0       0
  4485 ;;Total ram usage:        0 bytes
  4486 ;; Hardware stack levels used: 1
  4487 ;; Hardware stack levels required when called: 9
  4488 ;; This function calls:
  4489 ;;		Nothing
  4490 ;; This function is called by:
  4491 ;;		_SYSTEM_Initialize
  4492 ;;		_mdb_comm
  4493 ;; This function uses a non-reentrant model
  4494 ;;
  4495                           
  4496                           	psect	text43
  4497   001916                     __ptext43:
  4498                           	callstack 0
  4499   001916                     _TMR0_Initialize:
  4500                           	callstack 18
  4501   001916                     
  4502                           ;mcc_generated_files/tmr0.c: 65:     T0CON1 = 0x82;
  4503   001916  0E82               	movlw	130
  4504   001918  6EB9               	movwf	185,c	;volatile
  4505                           
  4506                           ;mcc_generated_files/tmr0.c: 68:     TMR0H = 0x9A;
  4507   00191A  0E9A               	movlw	154
  4508   00191C  6EB7               	movwf	183,c	;volatile
  4509                           
  4510                           ;mcc_generated_files/tmr0.c: 71:     TMR0L = 0x00;
  4511   00191E  0E00               	movlw	0
  4512   001920  6EB6               	movwf	182,c	;volatile
  4513   001922                     
  4514                           ;mcc_generated_files/tmr0.c: 74:     PIR3bits.TMR0IF = 0;
  4515   001922  0139               	movlb	57	; () banked
  4516   001924  9FA3               	bcf	163,7,b	;volatile
  4517                           
  4518                           ;mcc_generated_files/tmr0.c: 77:     T0CON0 = 0x80;
  4519   001926  0E80               	movlw	128
  4520   001928  6EB8               	movwf	184,c	;volatile
  4521   00192A                     
  4522                           ; BSR set to: 57
  4523   00192A  0012               	return		;funcret
  4524   00192C                     __end_of_TMR0_Initialize:
  4525                           	callstack 0
  4526                           
  4527 ;; *************** function _PMD_Initialize *****************
  4528 ;; Defined at:
  4529 ;;		line 81 in file "mcc_generated_files/mcc.c"
  4530 ;; Parameters:    Size  Location     Type
  4531 ;;		None
  4532 ;; Auto vars:     Size  Location     Type
  4533 ;;		None
  4534 ;; Return value:  Size  Location     Type
  4535 ;;                  1    wreg      void 
  4536 ;; Registers used:
  4537 ;;		wreg, status,2
  4538 ;; Tracked objects:
  4539 ;;		On entry : 0/0
  4540 ;;		On exit  : 0/0
  4541 ;;		Unchanged: 0/0
  4542 ;; Data sizes:     COMRAM   BANK0   BANK1   BANK2   BANK3   BANK4   BANK5   BANK6   BANK7
  4543 ;;      Params:         0       0       0       0       0       0       0       0       0
  4544 ;;      Locals:         0       0       0       0       0       0       0       0       0
  4545 ;;      Temps:          0       0       0       0       0       0       0       0       0
  4546 ;;      Totals:         0       0       0       0       0       0       0       0       0
  4547 ;;Total ram usage:        0 bytes
  4548 ;; Hardware stack levels used: 1
  4549 ;; Hardware stack levels required when called: 9
  4550 ;; This function calls:
  4551 ;;		Nothing
  4552 ;; This function is called by:
  4553 ;;		_SYSTEM_Initialize
  4554 ;; This function uses a non-reentrant model
  4555 ;;
  4556                           
  4557                           	psect	text44
  4558   00182E                     __ptext44:
  4559                           	callstack 0
  4560   00182E                     _PMD_Initialize:
  4561                           	callstack 20
  4562   00182E                     
  4563                           ;mcc_generated_files/mcc.c: 84:     PMD0 = 0x00;
  4564   00182E  0E00               	movlw	0
  4565   001830  0139               	movlb	57	; () banked
  4566   001832  6FC0               	movwf	192,b	;volatile
  4567                           
  4568                           ;mcc_generated_files/mcc.c: 86:     PMD1 = 0x00;
  4569   001834  0E00               	movlw	0
  4570   001836  6FC1               	movwf	193,b	;volatile
  4571                           
  4572                           ;mcc_generated_files/mcc.c: 88:     PMD2 = 0x00;
  4573   001838  0E00               	movlw	0
  4574   00183A  6FC2               	movwf	194,b	;volatile
  4575                           
  4576                           ;mcc_generated_files/mcc.c: 90:     PMD3 = 0x00;
  4577   00183C  0E00               	movlw	0
  4578   00183E  6FC3               	movwf	195,b	;volatile
  4579                           
  4580                           ;mcc_generated_files/mcc.c: 92:     PMD4 = 0x00;
  4581   001840  0E00               	movlw	0
  4582   001842  6FC4               	movwf	196,b	;volatile
  4583                           
  4584                           ;mcc_generated_files/mcc.c: 94:     PMD5 = 0x00;
  4585   001844  0E00               	movlw	0
  4586   001846  6FC5               	movwf	197,b	;volatile
  4587                           
  4588                           ;mcc_generated_files/mcc.c: 96:     PMD6 = 0x00;
  4589   001848  0E00               	movlw	0
  4590   00184A  6FC6               	movwf	198,b	;volatile
  4591                           
  4592                           ;mcc_generated_files/mcc.c: 98:     PMD7 = 0x00;
  4593   00184C  0E00               	movlw	0
  4594   00184E  6FC7               	movwf	199,b	;volatile
  4595   001850                     
  4596                           ; BSR set to: 57
  4597   001850  0012               	return		;funcret
  4598   001852                     __end_of_PMD_Initialize:
  4599                           	callstack 0
  4600                           
  4601 ;; *************** function _PIN_MANAGER_Initialize *****************
  4602 ;; Defined at:
  4603 ;;		line 55 in file "mcc_generated_files/pin_manager.c"
  4604 ;; Parameters:    Size  Location     Type
  4605 ;;		None
  4606 ;; Auto vars:     Size  Location     Type
  4607 ;;		None
  4608 ;; Return value:  Size  Location     Type
  4609 ;;                  1    wreg      void 
  4610 ;; Registers used:
  4611 ;;		wreg, status,2
  4612 ;; Tracked objects:
  4613 ;;		On entry : 0/0
  4614 ;;		On exit  : 0/0
  4615 ;;		Unchanged: 0/0
  4616 ;; Data sizes:     COMRAM   BANK0   BANK1   BANK2   BANK3   BANK4   BANK5   BANK6   BANK7
  4617 ;;      Params:         0       0       0       0       0       0       0       0       0
  4618 ;;      Locals:         0       0       0       0       0       0       0       0       0
  4619 ;;      Temps:          0       0       0       0       0       0       0       0       0
  4620 ;;      Totals:         0       0       0       0       0       0       0       0       0
  4621 ;;Total ram usage:        0 bytes
  4622 ;; Hardware stack levels used: 1
  4623 ;; Hardware stack levels required when called: 9
  4624 ;; This function calls:
  4625 ;;		Nothing
  4626 ;; This function is called by:
  4627 ;;		_SYSTEM_Initialize
  4628 ;; This function uses a non-reentrant model
  4629 ;;
  4630                           
  4631                           	psect	text45
  4632   00110E                     __ptext45:
  4633                           	callstack 0
  4634   00110E                     _PIN_MANAGER_Initialize:
  4635                           	callstack 20
  4636   00110E                     
  4637                           ;mcc_generated_files/pin_manager.c: 60:     LATA = 0x00;
  4638   00110E  0E00               	movlw	0
  4639   001110  6EBA               	movwf	186,c	;volatile
  4640                           
  4641                           ;mcc_generated_files/pin_manager.c: 61:     LATB = 0x00;
  4642   001112  0E00               	movlw	0
  4643   001114  6EBB               	movwf	187,c	;volatile
  4644                           
  4645                           ;mcc_generated_files/pin_manager.c: 62:     LATC = 0x00;
  4646   001116  0E00               	movlw	0
  4647   001118  6EBC               	movwf	188,c	;volatile
  4648                           
  4649                           ;mcc_generated_files/pin_manager.c: 67:     TRISA = 0xE9;
  4650   00111A  0EE9               	movlw	233
  4651   00111C  6EC2               	movwf	194,c	;volatile
  4652                           
  4653                           ;mcc_generated_files/pin_manager.c: 68:     TRISB = 0xC4;
  4654   00111E  0EC4               	movlw	196
  4655   001120  6EC3               	movwf	195,c	;volatile
  4656                           
  4657                           ;mcc_generated_files/pin_manager.c: 69:     TRISC = 0x1D;
  4658   001122  0E1D               	movlw	29
  4659   001124  6EC4               	movwf	196,c	;volatile
  4660                           
  4661                           ;mcc_generated_files/pin_manager.c: 74:     ANSELC = 0xFA;
  4662   001126  0EFA               	movlw	250
  4663   001128  013A               	movlb	58	; () banked
  4664   00112A  6F60               	movwf	96,b	;volatile
  4665                           
  4666                           ;mcc_generated_files/pin_manager.c: 75:     ANSELB = 0xC3;
  4667   00112C  0EC3               	movlw	195
  4668   00112E  6F50               	movwf	80,b	;volatile
  4669                           
  4670                           ;mcc_generated_files/pin_manager.c: 76:     ANSELA = 0x17;
  4671   001130  0E17               	movlw	23
  4672   001132  6F40               	movwf	64,b	;volatile
  4673                           
  4674                           ;mcc_generated_files/pin_manager.c: 81:     WPUE = 0x00;
  4675   001134  0E00               	movlw	0
  4676   001136  6F81               	movwf	129,b	;volatile
  4677                           
  4678                           ;mcc_generated_files/pin_manager.c: 82:     WPUB = 0x00;
  4679   001138  0E00               	movlw	0
  4680   00113A  6F51               	movwf	81,b	;volatile
  4681                           
  4682                           ;mcc_generated_files/pin_manager.c: 83:     WPUA = 0xE8;
  4683   00113C  0EE8               	movlw	232
  4684   00113E  6F41               	movwf	65,b	;volatile
  4685                           
  4686                           ;mcc_generated_files/pin_manager.c: 84:     WPUC = 0x04;
  4687   001140  0E04               	movlw	4
  4688   001142  6F61               	movwf	97,b	;volatile
  4689                           
  4690                           ;mcc_generated_files/pin_manager.c: 89:     RB1I2C = 0x00;
  4691   001144  0E00               	movlw	0
  4692   001146  6F5A               	movwf	90,b	;volatile
  4693                           
  4694                           ;mcc_generated_files/pin_manager.c: 90:     RB2I2C = 0x00;
  4695   001148  0E00               	movlw	0
  4696   00114A  6F5B               	movwf	91,b	;volatile
  4697                           
  4698                           ;mcc_generated_files/pin_manager.c: 91:     RC3I2C = 0x00;
  4699   00114C  0E00               	movlw	0
  4700   00114E  6F6A               	movwf	106,b	;volatile
  4701                           
  4702                           ;mcc_generated_files/pin_manager.c: 92:     RC4I2C = 0x00;
  4703   001150  0E00               	movlw	0
  4704   001152  6F6B               	movwf	107,b	;volatile
  4705                           
  4706                           ;mcc_generated_files/pin_manager.c: 97:     ODCONA = 0x00;
  4707   001154  0E00               	movlw	0
  4708   001156  6F42               	movwf	66,b	;volatile
  4709                           
  4710                           ;mcc_generated_files/pin_manager.c: 98:     ODCONB = 0x02;
  4711   001158  0E02               	movlw	2
  4712   00115A  6F52               	movwf	82,b	;volatile
  4713                           
  4714                           ;mcc_generated_files/pin_manager.c: 99:     ODCONC = 0x00;
  4715   00115C  0E00               	movlw	0
  4716   00115E  6F62               	movwf	98,b	;volatile
  4717   001160                     
  4718                           ; BSR set to: 58
  4719                           ;mcc_generated_files/pin_manager.c: 104:     SLRCONA = 0xFF;
  4720   001160  6943               	setf	67,b	;volatile
  4721   001162                     
  4722                           ; BSR set to: 58
  4723                           ;mcc_generated_files/pin_manager.c: 105:     SLRCONB = 0xFF;
  4724   001162  6953               	setf	83,b	;volatile
  4725   001164                     
  4726                           ; BSR set to: 58
  4727                           ;mcc_generated_files/pin_manager.c: 106:     SLRCONC = 0xFF;
  4728   001164  6963               	setf	99,b	;volatile
  4729   001166                     
  4730                           ; BSR set to: 58
  4731                           ;mcc_generated_files/pin_manager.c: 111:     INLVLA = 0xFF;
  4732   001166  6944               	setf	68,b	;volatile
  4733   001168                     
  4734                           ; BSR set to: 58
  4735                           ;mcc_generated_files/pin_manager.c: 112:     INLVLB = 0xFF;
  4736   001168  6954               	setf	84,b	;volatile
  4737   00116A                     
  4738                           ; BSR set to: 58
  4739                           ;mcc_generated_files/pin_manager.c: 113:     INLVLC = 0xFF;
  4740   00116A  6964               	setf	100,b	;volatile
  4741                           
  4742                           ;mcc_generated_files/pin_manager.c: 114:     INLVLE = 0x08;
  4743   00116C  0E08               	movlw	8
  4744   00116E  6F84               	movwf	132,b	;volatile
  4745                           
  4746                           ;mcc_generated_files/pin_manager.c: 123:     U2RXPPS = 0x10;
  4747   001170  0E10               	movlw	16
  4748   001172  6FE8               	movwf	232,b	;volatile
  4749                           
  4750                           ;mcc_generated_files/pin_manager.c: 124:     RB1PPS = 0x13;
  4751   001174  0E13               	movlw	19
  4752   001176  6F09               	movwf	9,b	;volatile
  4753                           
  4754                           ;mcc_generated_files/pin_manager.c: 125:     RC1PPS = 0x16;
  4755   001178  0E16               	movlw	22
  4756   00117A  6F11               	movwf	17,b	;volatile
  4757                           
  4758                           ;mcc_generated_files/pin_manager.c: 126:     U1RXPPS = 0x0A;
  4759   00117C  0E0A               	movlw	10
  4760   00117E  6FE5               	movwf	229,b	;volatile
  4761   001180                     
  4762                           ; BSR set to: 58
  4763   001180  0012               	return		;funcret
  4764   001182                     __end_of_PIN_MANAGER_Initialize:
  4765                           	callstack 0
  4766                           
  4767 ;; *************** function _OSCILLATOR_Initialize *****************
  4768 ;; Defined at:
  4769 ;;		line 67 in file "mcc_generated_files/mcc.c"
  4770 ;; Parameters:    Size  Location     Type
  4771 ;;		None
  4772 ;; Auto vars:     Size  Location     Type
  4773 ;;		None
  4774 ;; Return value:  Size  Location     Type
  4775 ;;                  1    wreg      void 
  4776 ;; Registers used:
  4777 ;;		wreg, status,2
  4778 ;; Tracked objects:
  4779 ;;		On entry : 0/0
  4780 ;;		On exit  : 0/0
  4781 ;;		Unchanged: 0/0
  4782 ;; Data sizes:     COMRAM   BANK0   BANK1   BANK2   BANK3   BANK4   BANK5   BANK6   BANK7
  4783 ;;      Params:         0       0       0       0       0       0       0       0       0
  4784 ;;      Locals:         0       0       0       0       0       0       0       0       0
  4785 ;;      Temps:          0       0       0       0       0       0       0       0       0
  4786 ;;      Totals:         0       0       0       0       0       0       0       0       0
  4787 ;;Total ram usage:        0 bytes
  4788 ;; Hardware stack levels used: 1
  4789 ;; Hardware stack levels required when called: 9
  4790 ;; This function calls:
  4791 ;;		Nothing
  4792 ;; This function is called by:
  4793 ;;		_SYSTEM_Initialize
  4794 ;; This function uses a non-reentrant model
  4795 ;;
  4796                           
  4797                           	psect	text46
  4798   0018FE                     __ptext46:
  4799                           	callstack 0
  4800   0018FE                     _OSCILLATOR_Initialize:
  4801                           	callstack 20
  4802   0018FE                     
  4803                           ;mcc_generated_files/mcc.c: 70:     OSCCON1 = 0x60;
  4804   0018FE  0E60               	movlw	96
  4805   001900  0139               	movlb	57	; () banked
  4806   001902  6FD9               	movwf	217,b	;volatile
  4807                           
  4808                           ;mcc_generated_files/mcc.c: 72:     OSCCON3 = 0x00;
  4809   001904  0E00               	movlw	0
  4810   001906  6FDB               	movwf	219,b	;volatile
  4811                           
  4812                           ;mcc_generated_files/mcc.c: 74:     OSCEN = 0x00;
  4813   001908  0E00               	movlw	0
  4814   00190A  6FDD               	movwf	221,b	;volatile
  4815                           
  4816                           ;mcc_generated_files/mcc.c: 76:     OSCFRQ = 0x04;
  4817   00190C  0E04               	movlw	4
  4818   00190E  6FDF               	movwf	223,b	;volatile
  4819                           
  4820                           ;mcc_generated_files/mcc.c: 78:     OSCTUNE = 0x00;
  4821   001910  0E00               	movlw	0
  4822   001912  6FDE               	movwf	222,b	;volatile
  4823   001914                     
  4824                           ; BSR set to: 57
  4825   001914  0012               	return		;funcret
  4826   001916                     __end_of_OSCILLATOR_Initialize:
  4827                           	callstack 0
  4828                           
  4829 ;; *************** function _INTERRUPT_Initialize *****************
  4830 ;; Defined at:
  4831 ;;		line 52 in file "mcc_generated_files/interrupt_manager.c"
  4832 ;; Parameters:    Size  Location     Type
  4833 ;;		None
  4834 ;; Auto vars:     Size  Location     Type
  4835 ;;		None
  4836 ;; Return value:  Size  Location     Type
  4837 ;;                  1    wreg      void 
  4838 ;; Registers used:
  4839 ;;		None
  4840 ;; Tracked objects:
  4841 ;;		On entry : 0/0
  4842 ;;		On exit  : 0/0
  4843 ;;		Unchanged: 0/0
  4844 ;; Data sizes:     COMRAM   BANK0   BANK1   BANK2   BANK3   BANK4   BANK5   BANK6   BANK7
  4845 ;;      Params:         0       0       0       0       0       0       0       0       0
  4846 ;;      Locals:         0       0       0       0       0       0       0       0       0
  4847 ;;      Temps:          0       0       0       0       0       0       0       0       0
  4848 ;;      Totals:         0       0       0       0       0       0       0       0       0
  4849 ;;Total ram usage:        0 bytes
  4850 ;; Hardware stack levels used: 1
  4851 ;; Hardware stack levels required when called: 9
  4852 ;; This function calls:
  4853 ;;		Nothing
  4854 ;; This function is called by:
  4855 ;;		_SYSTEM_Initialize
  4856 ;; This function uses a non-reentrant model
  4857 ;;
  4858                           
  4859                           	psect	text47
  4860   001A80                     __ptext47:
  4861                           	callstack 0
  4862   001A80                     _INTERRUPT_Initialize:
  4863                           	callstack 20
  4864   001A80                     
  4865                           ;mcc_generated_files/interrupt_manager.c: 55:     INTCON0bits.IPEN = 0;
  4866   001A80  9AD2               	bcf	210,5,c	;volatile
  4867   001A82  0012               	return		;funcret
  4868   001A84                     __end_of_INTERRUPT_Initialize:
  4869                           	callstack 0
  4870                           
  4871 ;; *************** function _DAC1_Initialize *****************
  4872 ;; Defined at:
  4873 ;;		line 58 in file "mcc_generated_files/dac1.c"
  4874 ;; Parameters:    Size  Location     Type
  4875 ;;		None
  4876 ;; Auto vars:     Size  Location     Type
  4877 ;;		None
  4878 ;; Return value:  Size  Location     Type
  4879 ;;                  1    wreg      void 
  4880 ;; Registers used:
  4881 ;;		wreg, status,2
  4882 ;; Tracked objects:
  4883 ;;		On entry : 0/0
  4884 ;;		On exit  : 0/0
  4885 ;;		Unchanged: 0/0
  4886 ;; Data sizes:     COMRAM   BANK0   BANK1   BANK2   BANK3   BANK4   BANK5   BANK6   BANK7
  4887 ;;      Params:         0       0       0       0       0       0       0       0       0
  4888 ;;      Locals:         0       0       0       0       0       0       0       0       0
  4889 ;;      Temps:          0       0       0       0       0       0       0       0       0
  4890 ;;      Totals:         0       0       0       0       0       0       0       0       0
  4891 ;;Total ram usage:        0 bytes
  4892 ;; Hardware stack levels used: 1
  4893 ;; Hardware stack levels required when called: 9
  4894 ;; This function calls:
  4895 ;;		Nothing
  4896 ;; This function is called by:
  4897 ;;		_SYSTEM_Initialize
  4898 ;; This function uses a non-reentrant model
  4899 ;;
  4900                           
  4901                           	psect	text48
  4902   0019F8                     __ptext48:
  4903                           	callstack 0
  4904   0019F8                     _DAC1_Initialize:
  4905                           	callstack 20
  4906   0019F8                     
  4907                           ;mcc_generated_files/dac1.c: 61:     DAC1CON0 = 0x80;
  4908   0019F8  0E80               	movlw	128
  4909   0019FA  013E               	movlb	62	; () banked
  4910   0019FC  6F9E               	movwf	158,b	;volatile
  4911                           
  4912                           ;mcc_generated_files/dac1.c: 63:     DAC1CON1 = 0x1A;
  4913   0019FE  0E1A               	movlw	26
  4914   001A00  6F9C               	movwf	156,b	;volatile
  4915   001A02                     
  4916                           ; BSR set to: 62
  4917   001A02  0012               	return		;funcret
  4918   001A04                     __end_of_DAC1_Initialize:
  4919                           	callstack 0
  4920                           
  4921 ;; *************** function _CMP1_Initialize *****************
  4922 ;; Defined at:
  4923 ;;		line 58 in file "mcc_generated_files/cmp1.c"
  4924 ;; Parameters:    Size  Location     Type
  4925 ;;		None
  4926 ;; Auto vars:     Size  Location     Type
  4927 ;;		None
  4928 ;; Return value:  Size  Location     Type
  4929 ;;                  1    wreg      void 
  4930 ;; Registers used:
  4931 ;;		wreg, status,2
  4932 ;; Tracked objects:
  4933 ;;		On entry : 0/0
  4934 ;;		On exit  : 0/0
  4935 ;;		Unchanged: 0/0
  4936 ;; Data sizes:     COMRAM   BANK0   BANK1   BANK2   BANK3   BANK4   BANK5   BANK6   BANK7
  4937 ;;      Params:         0       0       0       0       0       0       0       0       0
  4938 ;;      Locals:         0       0       0       0       0       0       0       0       0
  4939 ;;      Temps:          0       0       0       0       0       0       0       0       0
  4940 ;;      Totals:         0       0       0       0       0       0       0       0       0
  4941 ;;Total ram usage:        0 bytes
  4942 ;; Hardware stack levels used: 1
  4943 ;; Hardware stack levels required when called: 9
  4944 ;; This function calls:
  4945 ;;		Nothing
  4946 ;; This function is called by:
  4947 ;;		_SYSTEM_Initialize
  4948 ;; This function uses a non-reentrant model
  4949 ;;
  4950                           
  4951                           	psect	text49
  4952   001942                     __ptext49:
  4953                           	callstack 0
  4954   001942                     _CMP1_Initialize:
  4955                           	callstack 20
  4956   001942                     
  4957                           ;mcc_generated_files/cmp1.c: 62:     CM1CON0 = 0x80;
  4958   001942  0E80               	movlw	128
  4959   001944  013E               	movlb	62	; () banked
  4960   001946  6FBC               	movwf	188,b	;volatile
  4961                           
  4962                           ;mcc_generated_files/cmp1.c: 65:     CM1CON1 = 0x00;
  4963   001948  0E00               	movlw	0
  4964   00194A  6FBD               	movwf	189,b	;volatile
  4965                           
  4966                           ;mcc_generated_files/cmp1.c: 68:     CM1NCH = 0x00;
  4967   00194C  0E00               	movlw	0
  4968   00194E  6FBE               	movwf	190,b	;volatile
  4969                           
  4970                           ;mcc_generated_files/cmp1.c: 71:     CM1PCH = 0x05;
  4971   001950  0E05               	movlw	5
  4972   001952  6FBF               	movwf	191,b	;volatile
  4973   001954                     
  4974                           ; BSR set to: 62
  4975   001954  0012               	return		;funcret
  4976   001956                     __end_of_CMP1_Initialize:
  4977                           	callstack 0
  4978                           
  4979 ;; *************** function _INTERRUPT_InterruptManager *****************
  4980 ;; Defined at:
  4981 ;;		line 58 in file "mcc_generated_files/interrupt_manager.c"
  4982 ;; Parameters:    Size  Location     Type
  4983 ;;		None
  4984 ;; Auto vars:     Size  Location     Type
  4985 ;;		None
  4986 ;; Return value:  Size  Location     Type
  4987 ;;                  1    wreg      void 
  4988 ;; Registers used:
  4989 ;;		wreg, fsr2l, fsr2h, status,2, status,0, pcl, pclath, pclatu, tosl, cstack
  4990 ;; Tracked objects:
  4991 ;;		On entry : 0/0
  4992 ;;		On exit  : 0/0
  4993 ;;		Unchanged: 0/0
  4994 ;; Data sizes:     COMRAM   BANK0   BANK1   BANK2   BANK3   BANK4   BANK5   BANK6   BANK7
  4995 ;;      Params:         0       0       0       0       0       0       0       0       0
  4996 ;;      Locals:         0       0       0       0       0       0       0       0       0
  4997 ;;      Temps:          2       0       0       0       0       0       0       0       0
  4998 ;;      Totals:         2       0       0       0       0       0       0       0       0
  4999 ;;Total ram usage:        2 bytes
  5000 ;; Hardware stack levels used: 1
  5001 ;; Hardware stack levels required when called: 8
  5002 ;; This function calls:
  5003 ;;		_TMR2_ISR
  5004 ;; This function is called by:
  5005 ;;		Interrupt level 2
  5006 ;; This function uses a non-reentrant model
  5007 ;;
  5008                           
  5009                           	psect	text50
  5010   00155E                     __ptext50:
  5011                           	callstack 0
  5012   00155E                     _INTERRUPT_InterruptManager:
  5013                           	callstack 17
  5014                           
  5015                           ; BSR set to: 62
  5016                           ;incstack = 0
  5017   00155E  006F FFE8  F035    	movff	pclath,??_INTERRUPT_InterruptManager
  5018   001564  006F FFEC  F036    	movff	pclatu,??_INTERRUPT_InterruptManager+1
  5019   00156A                     
  5020                           ;mcc_generated_files/interrupt_manager.c: 61:     if(PIE4bits.TMR2IE == 1 && PIR4bits.TM
      +                          R2IF == 1)
  5021   00156A  0139               	movlb	57	; () banked
  5022   00156C  A594               	btfss	148,2,b	;volatile
  5023   00156E  EFBB  F00A         	goto	i2u186_41
  5024   001572  EFBD  F00A         	goto	i2u186_40
  5025   001576                     i2u186_41:
  5026   001576  EFC6  F00A         	goto	i2l714
  5027   00157A                     i2u186_40:
  5028   00157A                     
  5029                           ; BSR set to: 57
  5030   00157A  A5A4               	btfss	164,2,b	;volatile
  5031   00157C  EFC2  F00A         	goto	i2u187_41
  5032   001580  EFC4  F00A         	goto	i2u187_40
  5033   001584                     i2u187_41:
  5034   001584  EFC6  F00A         	goto	i2l714
  5035   001588                     i2u187_40:
  5036   001588                     
  5037                           ; BSR set to: 57
  5038                           ;mcc_generated_files/interrupt_manager.c: 62:     {;mcc_generated_files/interrupt_manage
      +                          r.c: 63:         TMR2_ISR();
  5039   001588  EC39  F00B         	call	_TMR2_ISR	;wreg free
  5040   00158C                     i2l714:
  5041   00158C  0060  F0DB  FFFB   	movff	??_INTERRUPT_InterruptManager+1,pclatu
  5042   001592  0060  F0D7  FFFA   	movff	??_INTERRUPT_InterruptManager,pclath
  5043   001598  0011               	retfie		f
  5044   00159A                     __end_of_INTERRUPT_InterruptManager:
  5045                           	callstack 0
  5046                           
  5047 ;; *************** function _TMR2_ISR *****************
  5048 ;; Defined at:
  5049 ;;		line 165 in file "mcc_generated_files/tmr2.c"
  5050 ;; Parameters:    Size  Location     Type
  5051 ;;		None
  5052 ;; Auto vars:     Size  Location     Type
  5053 ;;		None
  5054 ;; Return value:  Size  Location     Type
  5055 ;;                  1    wreg      void 
  5056 ;; Registers used:
  5057 ;;		wreg, fsr2l, fsr2h, status,2, status,0, pcl, pclath, pclatu, tosl, cstack
  5058 ;; Tracked objects:
  5059 ;;		On entry : 0/0
  5060 ;;		On exit  : 0/0
  5061 ;;		Unchanged: 0/0
  5062 ;; Data sizes:     COMRAM   BANK0   BANK1   BANK2   BANK3   BANK4   BANK5   BANK6   BANK7
  5063 ;;      Params:         0       0       0       0       0       0       0       0       0
  5064 ;;      Locals:         0       0       0       0       0       0       0       0       0
  5065 ;;      Temps:          0       0       0       0       0       0       0       0       0
  5066 ;;      Totals:         0       0       0       0       0       0       0       0       0
  5067 ;;Total ram usage:        0 bytes
  5068 ;; Hardware stack levels used: 1
  5069 ;; Hardware stack levels required when called: 7
  5070 ;; This function calls:
  5071 ;;		Absolute function
  5072 ;;		_InterruptTMR2
  5073 ;;		_TMR2_DefaultInterruptHandler
  5074 ;; This function is called by:
  5075 ;;		_INTERRUPT_InterruptManager
  5076 ;; This function uses a non-reentrant model
  5077 ;;
  5078                           
  5079                           	psect	text51
  5080   001672                     __ptext51:
  5081                           	callstack 0
  5082   001672                     _TMR2_ISR:
  5083                           	callstack 17
  5084   001672                     
  5085                           ;mcc_generated_files/tmr2.c: 169:     PIR4bits.TMR2IF = 0;
  5086   001672  0139               	movlb	57	; () banked
  5087   001674  95A4               	bcf	164,2,b	;volatile
  5088   001676                     
  5089                           ; BSR set to: 57
  5090                           ;mcc_generated_files/tmr2.c: 171:     if(TMR2_InterruptHandler)
  5091   001676  5005               	movf	_TMR2_InterruptHandler^0,w,c
  5092   001678  1006               	iorwf	(_TMR2_InterruptHandler+1)^0,w,c
  5093   00167A  B4D8               	btfsc	status,2,c
  5094   00167C  EF42  F00B         	goto	i2u171_41
  5095   001680  EF44  F00B         	goto	i2u171_40
  5096   001684                     i2u171_41:
  5097   001684  EF51  F00B         	goto	i2l690
  5098   001688                     i2u171_40:
  5099   001688                     
  5100                           ; BSR set to: 57
  5101                           ;mcc_generated_files/tmr2.c: 172:     {;mcc_generated_files/tmr2.c: 173:         TMR2_In
      +                          terruptHandler();
  5102   001688  D802               	call	i2u172_48
  5103   00168A  EF51  F00B         	goto	i2u172_49
  5104   00168E                     i2u172_48:
  5105   00168E  0005               	push	
  5106   001690  6EFA               	movwf	pclath,c
  5107   001692  5005               	movf	_TMR2_InterruptHandler^0,w,c
  5108   001694  6EFD               	movwf	tosl,c
  5109   001696  5006               	movf	(_TMR2_InterruptHandler+1)^0,w,c
  5110   001698  6EFE               	movwf	tosh,c
  5111   00169A  50F8               	movf	tblptru,w,c
  5112   00169C  6EFF               	movwf	tosu,c
  5113   00169E  50FA               	movf	pclath,w,c
  5114   0016A0  0012               	return		;indir
  5115   0016A2                     i2u172_49:
  5116   0016A2                     i2l690:
  5117   0016A2  0012               	return		;funcret
  5118   0016A4                     __end_of_TMR2_ISR:
  5119                           	callstack 0
  5120                           
  5121 ;; *************** function _InterruptTMR2 *****************
  5122 ;; Defined at:
  5123 ;;		line 163 in file "mdb.c"
  5124 ;; Parameters:    Size  Location     Type
  5125 ;;		None
  5126 ;; Auto vars:     Size  Location     Type
  5127 ;;		None
  5128 ;; Return value:  Size  Location     Type
  5129 ;;                  1    wreg      void 
  5130 ;; Registers used:
  5131 ;;		wreg, fsr2l, fsr2h, status,2, status,0, cstack
  5132 ;; Tracked objects:
  5133 ;;		On entry : 0/0
  5134 ;;		On exit  : 0/0
  5135 ;;		Unchanged: 0/0
  5136 ;; Data sizes:     COMRAM   BANK0   BANK1   BANK2   BANK3   BANK4   BANK5   BANK6   BANK7
  5137 ;;      Params:         0       0       0       0       0       0       0       0       0
  5138 ;;      Locals:         0       0       0       0       0       0       0       0       0
  5139 ;;      Temps:          0       0       0       0       0       0       0       0       0
  5140 ;;      Totals:         0       0       0       0       0       0       0       0       0
  5141 ;;Total ram usage:        0 bytes
  5142 ;; Hardware stack levels used: 1
  5143 ;; Hardware stack levels required when called: 6
  5144 ;; This function calls:
  5145 ;;		_poll_mdb
  5146 ;;		i2_TMR2_Initialize
  5147 ;; This function is called by:
  5148 ;;		_main
  5149 ;;		_TMR2_ISR
  5150 ;; This function uses a non-reentrant model
  5151 ;;
  5152                           
  5153                           	psect	text52
  5154   0019D0                     __ptext52:
  5155                           	callstack 0
  5156   0019D0                     _InterruptTMR2:
  5157                           	callstack 17
  5158   0019D0                     
  5159                           ;mdb.c: 165:     PIE4bits.TMR2IE = 0;
  5160   0019D0  0139               	movlb	57	; () banked
  5161   0019D2  9594               	bcf	148,2,b	;volatile
  5162   0019D4                     
  5163                           ; BSR set to: 57
  5164                           ;mdb.c: 166:     poll_mdb();
  5165   0019D4  ECBE  F007         	call	_poll_mdb	;wreg free
  5166   0019D8                     
  5167                           ;mdb.c: 167:     TMR2_Initialize();
  5168   0019D8  ECD9  F00B         	call	i2_TMR2_Initialize	;wreg free
  5169   0019DC  0012               	return		;funcret
  5170   0019DE                     __end_of_InterruptTMR2:
  5171                           	callstack 0
  5172                           
  5173 ;; *************** function _TMR2_DefaultInterruptHandler *****************
  5174 ;; Defined at:
  5175 ;;		line 182 in file "mcc_generated_files/tmr2.c"
  5176 ;; Parameters:    Size  Location     Type
  5177 ;;		None
  5178 ;; Auto vars:     Size  Location     Type
  5179 ;;		None
  5180 ;; Return value:  Size  Location     Type
  5181 ;;                  1    wreg      void 
  5182 ;; Registers used:
  5183 ;;		None
  5184 ;; Tracked objects:
  5185 ;;		On entry : 0/0
  5186 ;;		On exit  : 0/0
  5187 ;;		Unchanged: 0/0
  5188 ;; Data sizes:     COMRAM   BANK0   BANK1   BANK2   BANK3   BANK4   BANK5   BANK6   BANK7
  5189 ;;      Params:         0       0       0       0       0       0       0       0       0
  5190 ;;      Locals:         0       0       0       0       0       0       0       0       0
  5191 ;;      Temps:          0       0       0       0       0       0       0       0       0
  5192 ;;      Totals:         0       0       0       0       0       0       0       0       0
  5193 ;;Total ram usage:        0 bytes
  5194 ;; Hardware stack levels used: 1
  5195 ;; This function calls:
  5196 ;;		Nothing
  5197 ;; This function is called by:
  5198 ;;		_TMR2_Initialize
  5199 ;;		i2_TMR2_Initialize
  5200 ;;		_TMR2_ISR
  5201 ;; This function uses a non-reentrant model
  5202 ;;
  5203                           
  5204                           	psect	text53
  5205   001A84                     __ptext53:
  5206                           	callstack 0
  5207   001A84                     _TMR2_DefaultInterruptHandler:
  5208                           	callstack 23
  5209   001A84  0012               	return		;funcret
  5210   001A86                     __end_of_TMR2_DefaultInterruptHandler:
  5211                           	callstack 0
  5212                           
  5213 ;; *************** function i2_TMR2_Initialize *****************
  5214 ;; Defined at:
  5215 ;;		line 64 in file "mcc_generated_files/tmr2.c"
  5216 ;; Parameters:    Size  Location     Type
  5217 ;;		None
  5218 ;; Auto vars:     Size  Location     Type
  5219 ;;		None
  5220 ;; Return value:  Size  Location     Type
  5221 ;;                  1    wreg      void 
  5222 ;; Registers used:
  5223 ;;		wreg, status,2, status,0, cstack
  5224 ;; Tracked objects:
  5225 ;;		On entry : 0/0
  5226 ;;		On exit  : 0/0
  5227 ;;		Unchanged: 0/0
  5228 ;; Data sizes:     COMRAM   BANK0   BANK1   BANK2   BANK3   BANK4   BANK5   BANK6   BANK7
  5229 ;;      Params:         0       0       0       0       0       0       0       0       0
  5230 ;;      Locals:         0       0       0       0       0       0       0       0       0
  5231 ;;      Temps:          0       0       0       0       0       0       0       0       0
  5232 ;;      Totals:         0       0       0       0       0       0       0       0       0
  5233 ;;Total ram usage:        0 bytes
  5234 ;; Hardware stack levels used: 1
  5235 ;; Hardware stack levels required when called: 1
  5236 ;; This function calls:
  5237 ;;		i2_TMR2_SetInterruptHandler
  5238 ;; This function is called by:
  5239 ;;		_InterruptTMR2
  5240 ;; This function uses a non-reentrant model
  5241 ;;
  5242                           
  5243                           	psect	text54
  5244   0017B2                     __ptext54:
  5245                           	callstack 0
  5246   0017B2                     i2_TMR2_Initialize:
  5247                           	callstack 21
  5248   0017B2                     
  5249                           ;mcc_generated_files/tmr2.c: 69:     T2CLKCON = 0x04;
  5250   0017B2  0E04               	movlw	4
  5251   0017B4  6EAE               	movwf	174,c	;volatile
  5252                           
  5253                           ;mcc_generated_files/tmr2.c: 72:     T2HLT = 0x20;
  5254   0017B6  0E20               	movlw	32
  5255   0017B8  6EAD               	movwf	173,c	;volatile
  5256                           
  5257                           ;mcc_generated_files/tmr2.c: 75:     T2RST = 0x00;
  5258   0017BA  0E00               	movlw	0
  5259   0017BC  6EAF               	movwf	175,c	;volatile
  5260                           
  5261                           ;mcc_generated_files/tmr2.c: 78:     T2PR = 0x90;
  5262   0017BE  0E90               	movlw	144
  5263   0017C0  6EAB               	movwf	171,c	;volatile
  5264                           
  5265                           ;mcc_generated_files/tmr2.c: 81:     T2TMR = 0x00;
  5266   0017C2  0E00               	movlw	0
  5267   0017C4  6EAA               	movwf	170,c	;volatile
  5268   0017C6                     
  5269                           ;mcc_generated_files/tmr2.c: 84:     PIR4bits.TMR2IF = 0;
  5270   0017C6  0139               	movlb	57	; () banked
  5271   0017C8  95A4               	bcf	164,2,b	;volatile
  5272   0017CA                     
  5273                           ; BSR set to: 57
  5274                           ;mcc_generated_files/tmr2.c: 87:     PIE4bits.TMR2IE = 1;
  5275   0017CA  8594               	bsf	148,2,b	;volatile
  5276   0017CC                     
  5277                           ; BSR set to: 57
  5278                           ;mcc_generated_files/tmr2.c: 90:     TMR2_SetInterruptHandler(TMR2_DefaultInterruptHandl
      +                          er);
  5279   0017CC  0E84               	movlw	low _TMR2_DefaultInterruptHandler
  5280   0017CE  6E2A               	movwf	i2TMR2_SetInterruptHandler@InterruptHandler^0,c
  5281   0017D0  0E1A               	movlw	high _TMR2_DefaultInterruptHandler
  5282   0017D2  6E2B               	movwf	(i2TMR2_SetInterruptHandler@InterruptHandler+1)^0,c
  5283   0017D4  EC2A  F00D         	call	i2_TMR2_SetInterruptHandler	;wreg free
  5284   0017D8                     
  5285                           ;mcc_generated_files/tmr2.c: 93:     T2CON = 0xD0;
  5286   0017D8  0ED0               	movlw	208
  5287   0017DA  6EAC               	movwf	172,c	;volatile
  5288   0017DC  0012               	return		;funcret
  5289   0017DE                     __end_ofi2_TMR2_Initialize:
  5290                           	callstack 0
  5291                           
  5292 ;; *************** function i2_TMR2_SetInterruptHandler *****************
  5293 ;; Defined at:
  5294 ;;		line 178 in file "mcc_generated_files/tmr2.c"
  5295 ;; Parameters:    Size  Location     Type
  5296 ;;  InterruptHan    2    0[COMRAM] PTR FTN()void 
  5297 ;;		 -> InterruptTMR2(1), TMR2_DefaultInterruptHandler(1), 
  5298 ;; Auto vars:     Size  Location     Type
  5299 ;;		None
  5300 ;; Return value:  Size  Location     Type
  5301 ;;                  1    wreg      void 
  5302 ;; Registers used:
  5303 ;;		wreg, status,2, status,0
  5304 ;; Tracked objects:
  5305 ;;		On entry : 0/0
  5306 ;;		On exit  : 0/0
  5307 ;;		Unchanged: 0/0
  5308 ;; Data sizes:     COMRAM   BANK0   BANK1   BANK2   BANK3   BANK4   BANK5   BANK6   BANK7
  5309 ;;      Params:         2       0       0       0       0       0       0       0       0
  5310 ;;      Locals:         0       0       0       0       0       0       0       0       0
  5311 ;;      Temps:          0       0       0       0       0       0       0       0       0
  5312 ;;      Totals:         2       0       0       0       0       0       0       0       0
  5313 ;;Total ram usage:        2 bytes
  5314 ;; Hardware stack levels used: 1
  5315 ;; This function calls:
  5316 ;;		Nothing
  5317 ;; This function is called by:
  5318 ;;		i2_TMR2_Initialize
  5319 ;; This function uses a non-reentrant model
  5320 ;;
  5321                           
  5322                           	psect	text55
  5323   001A54                     __ptext55:
  5324                           	callstack 0
  5325   001A54                     i2_TMR2_SetInterruptHandler:
  5326                           	callstack 21
  5327   001A54                     
  5328                           ;mcc_generated_files/tmr2.c: 179:     TMR2_InterruptHandler = InterruptHandler;
  5329   001A54  C02A  F005         	movff	i2TMR2_SetInterruptHandler@InterruptHandler,_TMR2_InterruptHandler
  5330   001A58  C02B  F006         	movff	i2TMR2_SetInterruptHandler@InterruptHandler+1,_TMR2_InterruptHandler+1
  5331   001A5C  0012               	return		;funcret
  5332   001A5E                     __end_ofi2_TMR2_SetInterruptHandler:
  5333                           	callstack 0
  5334                           
  5335 ;; *************** function _poll_mdb *****************
  5336 ;; Defined at:
  5337 ;;		line 170 in file "mdb.c"
  5338 ;; Parameters:    Size  Location     Type
  5339 ;;		None
  5340 ;; Auto vars:     Size  Location     Type
  5341 ;;		None
  5342 ;; Return value:  Size  Location     Type
  5343 ;;                  1    wreg      void 
  5344 ;; Registers used:
  5345 ;;		wreg, fsr2l, fsr2h, status,2, status,0, cstack
  5346 ;; Tracked objects:
  5347 ;;		On entry : 0/0
  5348 ;;		On exit  : 0/0
  5349 ;;		Unchanged: 0/0
  5350 ;; Data sizes:     COMRAM   BANK0   BANK1   BANK2   BANK3   BANK4   BANK5   BANK6   BANK7
  5351 ;;      Params:         0       0       0       0       0       0       0       0       0
  5352 ;;      Locals:         0       0       0       0       0       0       0       0       0
  5353 ;;      Temps:          2       0       0       0       0       0       0       0       0
  5354 ;;      Totals:         2       0       0       0       0       0       0       0       0
  5355 ;;Total ram usage:        2 bytes
  5356 ;; Hardware stack levels used: 1
  5357 ;; Hardware stack levels required when called: 5
  5358 ;; This function calls:
  5359 ;;		_mdb_poll
  5360 ;;		i2_credit_add
  5361 ;;		i2_mdb_init
  5362 ;; This function is called by:
  5363 ;;		_InterruptTMR2
  5364 ;; This function uses a non-reentrant model
  5365 ;;
  5366                           
  5367                           	psect	text56
  5368   000F7C                     __ptext56:
  5369                           	callstack 0
  5370   000F7C                     _poll_mdb:
  5371                           	callstack 17
  5372   000F7C                     
  5373                           ;mdb.c: 172:     {;mdb.c: 173:         credit = mdb_poll();
  5374   000F7C  ECF0  F004         	call	_mdb_poll	;wreg free
  5375   000F80  6E25               	movwf	_credit^0,c	;volatile
  5376   000F82                     
  5377                           ;mdb.c: 174:         if(credit != 0x00)
  5378   000F82  5025               	movf	_credit^0,w,c	;volatile
  5379   000F84  B4D8               	btfsc	status,2,c
  5380   000F86  EFC7  F007         	goto	i2u161_41
  5381   000F8A  EFC9  F007         	goto	i2u161_40
  5382   000F8E                     i2u161_41:
  5383   000F8E  EF02  F008         	goto	i2l1281
  5384   000F92                     i2u161_40:
  5385   000F92                     
  5386                           ;mdb.c: 175:         {;mdb.c: 176:             if(mdbflags.noteerr == 1)
  5387   000F92  A21D               	btfss	_mdbflags^0,1,c
  5388   000F94  EFCE  F007         	goto	i2u162_41
  5389   000F98  EFD0  F007         	goto	i2u162_40
  5390   000F9C                     i2u162_41:
  5391   000F9C  EFFE  F007         	goto	i2l3829
  5392   000FA0                     i2u162_40:
  5393   000FA0  EFE1  F007         	goto	i2l3827
  5394   000FA4                     i2l3811:
  5395   000FA4  EC6C  F00A         	call	i2_mdb_init	;wreg free
  5396   000FA8                     i2l3813:
  5397                           
  5398                           ;mdb.c: 183:                     credit = 0;
  5399   000FA8  0E00               	movlw	0
  5400   000FAA  6E25               	movwf	_credit^0,c	;volatile
  5401                           
  5402                           ;mdb.c: 184:                     break;
  5403   000FAC  EF02  F008         	goto	i2l1281
  5404   000FB0                     i2l1275:
  5405                           
  5406                           ;mdb.c: 187:                     if(mdbflags.vending)
  5407   000FB0  A81D               	btfss	_mdbflags^0,4,c
  5408   000FB2  EFDD  F007         	goto	i2u163_41
  5409   000FB6  EFDF  F007         	goto	i2u163_40
  5410   000FBA                     i2u163_41:
  5411   000FBA  EFD2  F007         	goto	i2l3811
  5412   000FBE                     i2u163_40:
  5413   000FBE  EFD4  F007         	goto	i2l3813
  5414   000FC2                     i2l3827:
  5415   000FC2  5025               	movf	_credit^0,w,c	;volatile
  5416   000FC4  6E33               	movwf	??_poll_mdb^0,c
  5417   000FC6  6A34               	clrf	(??_poll_mdb+1)^0,c
  5418                           
  5419                           ; Switch on 2 bytes has been partitioned into a top level switch of size 1, and 1 sub-sw
      +                          itches
  5420                           ; Switch size 1, requested type "simple"
  5421                           ; Number of cases is 1, Range of values is 0 to 0
  5422                           ; switch strategies available:
  5423                           ; Name         Instructions Cycles
  5424                           ; simple_byte            4     3 (average)
  5425                           ;	Chosen strategy is simple_byte
  5426   000FC8  5034               	movf	(??_poll_mdb+1)^0,w,c
  5427   000FCA  0A00               	xorlw	0	; case 0
  5428   000FCC  B4D8               	btfsc	status,2,c
  5429   000FCE  EFEB  F007         	goto	i2l4257
  5430   000FD2  EF02  F008         	goto	i2l1281
  5431   000FD6                     i2l4257:
  5432                           
  5433                           ; Switch size 1, requested type "simple"
  5434                           ; Number of cases is 4, Range of values is 6 to 16
  5435                           ; switch strategies available:
  5436                           ; Name         Instructions Cycles
  5437                           ; simple_byte           13     7 (average)
  5438                           ;	Chosen strategy is simple_byte
  5439   000FD6  5033               	movf	??_poll_mdb^0,w,c
  5440   000FD8  0A06               	xorlw	6	; case 6
  5441   000FDA  B4D8               	btfsc	status,2,c
  5442   000FDC  EFD2  F007         	goto	i2l3811
  5443   000FE0  0A0F               	xorlw	15	; case 9
  5444   000FE2  B4D8               	btfsc	status,2,c
  5445   000FE4  EFD8  F007         	goto	i2l1275
  5446   000FE8  0A05               	xorlw	5	; case 12
  5447   000FEA  B4D8               	btfsc	status,2,c
  5448   000FEC  EFD4  F007         	goto	i2l3813
  5449   000FF0  0A1C               	xorlw	28	; case 16
  5450   000FF2  B4D8               	btfsc	status,2,c
  5451   000FF4  EFD4  F007         	goto	i2l3813
  5452   000FF8  EF02  F008         	goto	i2l1281
  5453   000FFC                     i2l3829:
  5454                           
  5455                           ;mdb.c: 206:                 {;mdb.c: 207:                     credit_add(credit);
  5456   000FFC  5025               	movf	_credit^0,w,c	;volatile
  5457   000FFE  EC80  F00B         	call	i2_credit_add
  5458   001002                     
  5459                           ;mdb.c: 208:                     venflags.iscredit = 1;
  5460   001002  8001               	bsf	_venflags^0,0,c
  5461   001004                     i2l1281:
  5462   001004  0012               	return		;funcret
  5463   001006                     __end_of_poll_mdb:
  5464                           	callstack 0
  5465                           
  5466 ;; *************** function i2_mdb_init *****************
  5467 ;; Defined at:
  5468 ;;		line 23 in file "mdb.c"
  5469 ;; Parameters:    Size  Location     Type
  5470 ;;		None
  5471 ;; Auto vars:     Size  Location     Type
  5472 ;;  i               1    0        unsigned char 
  5473 ;; Return value:  Size  Location     Type
  5474 ;;                  1    wreg      void 
  5475 ;; Registers used:
  5476 ;;		wreg, fsr2l, fsr2h, status,2, status,0, cstack
  5477 ;; Tracked objects:
  5478 ;;		On entry : 0/0
  5479 ;;		On exit  : 0/0
  5480 ;;		Unchanged: 0/0
  5481 ;; Data sizes:     COMRAM   BANK0   BANK1   BANK2   BANK3   BANK4   BANK5   BANK6   BANK7
  5482 ;;      Params:         0       0       0       0       0       0       0       0       0
  5483 ;;      Locals:         0       0       0       0       0       0       0       0       0
  5484 ;;      Temps:          2       0       0       0       0       0       0       0       0
  5485 ;;      Totals:         2       0       0       0       0       0       0       0       0
  5486 ;;Total ram usage:        2 bytes
  5487 ;; Hardware stack levels used: 1
  5488 ;; Hardware stack levels required when called: 4
  5489 ;; This function calls:
  5490 ;;		i2_DATAEE_ReadByte
  5491 ;;		i2_mdb_comm
  5492 ;;		i2_mdb_noten
  5493 ;;		i2_mdb_reset
  5494 ;;		i2_mdb_security
  5495 ;; This function is called by:
  5496 ;;		_poll_mdb
  5497 ;; This function uses a non-reentrant model
  5498 ;;
  5499                           
  5500                           	psect	text57
  5501   0014D8                     __ptext57:
  5502                           	callstack 0
  5503   0014D8                     i2_mdb_init:
  5504                           	callstack 17
  5505   0014D8                     
  5506                           ;mdb.c: 25:     _delay((unsigned long)((250)*(12000000/4000.0)));
  5507   0014D8  0E04               	movlw	4
  5508   0014DA  6E32               	movwf	(??i2_mdb_init+1)^0,c
  5509   0014DC  0ECF               	movlw	207
  5510   0014DE  6E31               	movwf	??i2_mdb_init^0,c
  5511   0014E0  0E02               	movlw	2
  5512   0014E2                     i2u213_47:
  5513   0014E2  2EE8               	decfsz	wreg,f,c
  5514   0014E4  D7FE               	bra	i2u213_47
  5515   0014E6  2E31               	decfsz	??i2_mdb_init^0,f,c
  5516   0014E8  D7FC               	bra	i2u213_47
  5517   0014EA  2E32               	decfsz	(??i2_mdb_init+1)^0,f,c
  5518   0014EC  D7FA               	bra	i2u213_47
  5519   0014EE  0E18               	movlw	24
  5520   0014F0  EC65  F00C         	call	i2_DATAEE_ReadByte
  5521   0014F4  6E1B               	movwf	_noteen_byte^0,c	;volatile
  5522   0014F6                     
  5523                           ;mdb.c: 27:     ((uint8_t*) &noteen)[0] = noteen_byte;
  5524   0014F6  C01B  F01C         	movff	_noteen_byte,_noteen	;volatile
  5525   0014FA                     
  5526                           ;mdb.c: 29:     mdbflags.noteerr = 0;
  5527   0014FA  921D               	bcf	_mdbflags^0,1,c
  5528   0014FC                     
  5529                           ;mdb.c: 30:     mdbflags.isdata = 0;
  5530   0014FC  901D               	bcf	_mdbflags^0,0,c
  5531   0014FE                     
  5532                           ;mdb.c: 31:     mdb_reset();
  5533   0014FE  EC88  F009         	call	i2_mdb_reset	;wreg free
  5534   001502                     
  5535                           ;mdb.c: 32:     mdb_noten();
  5536   001502  ECEF  F00B         	call	i2_mdb_noten	;wreg free
  5537   001506                     
  5538                           ;mdb.c: 33:     mdb_security();
  5539   001506  ECC6  F00C         	call	i2_mdb_security	;wreg free
  5540   00150A  0E00               	movlw	0
  5541   00150C  6E2C               	movwf	i2mdb_comm@mcount^0,c
  5542   00150E  0E33               	movlw	51
  5543   001510  EC66  F006         	call	i2_mdb_comm
  5544   001514                     
  5545                           ;mdb.c: 36:     PIE4bits.TMR2IE = 1;
  5546   001514  0139               	movlb	57	; () banked
  5547   001516  8594               	bsf	148,2,b	;volatile
  5548   001518                     
  5549                           ; BSR set to: 57
  5550                           ;mdb.c: 37:     T2CONbits.ON = 1;
  5551   001518  8EAC               	bsf	172,7,c	;volatile
  5552   00151A                     
  5553                           ; BSR set to: 57
  5554   00151A  0012               	return		;funcret
  5555   00151C                     __end_ofi2_mdb_init:
  5556                           	callstack 0
  5557                           
  5558 ;; *************** function i2_mdb_security *****************
  5559 ;; Defined at:
  5560 ;;		line 157 in file "mdb.c"
  5561 ;; Parameters:    Size  Location     Type
  5562 ;;		None
  5563 ;; Auto vars:     Size  Location     Type
  5564 ;;		None
  5565 ;; Return value:  Size  Location     Type
  5566 ;;                  1    wreg      void 
  5567 ;; Registers used:
  5568 ;;		wreg, fsr2l, fsr2h, status,2, status,0, cstack
  5569 ;; Tracked objects:
  5570 ;;		On entry : 0/0
  5571 ;;		On exit  : 0/0
  5572 ;;		Unchanged: 0/0
  5573 ;; Data sizes:     COMRAM   BANK0   BANK1   BANK2   BANK3   BANK4   BANK5   BANK6   BANK7
  5574 ;;      Params:         0       0       0       0       0       0       0       0       0
  5575 ;;      Locals:         0       0       0       0       0       0       0       0       0
  5576 ;;      Temps:          0       0       0       0       0       0       0       0       0
  5577 ;;      Totals:         0       0       0       0       0       0       0       0       0
  5578 ;;Total ram usage:        0 bytes
  5579 ;; Hardware stack levels used: 1
  5580 ;; Hardware stack levels required when called: 3
  5581 ;; This function calls:
  5582 ;;		i2_init_mdbdata
  5583 ;;		i2_mdb_comm
  5584 ;; This function is called by:
  5585 ;;		i2_mdb_init
  5586 ;; This function uses a non-reentrant model
  5587 ;;
  5588                           
  5589                           	psect	text58
  5590   00198C                     __ptext58:
  5591                           	callstack 0
  5592   00198C                     i2_mdb_security:
  5593                           	callstack 17
  5594   00198C                     
  5595                           ;mdb.c: 159:     init_mdbdata(0x00);
  5596   00198C  0E00               	movlw	0
  5597   00198E  EC38  F00D         	call	i2_init_mdbdata
  5598   001992  0E01               	movlw	1
  5599   001994  6E2C               	movwf	i2mdb_comm@mcount^0,c
  5600   001996  0E32               	movlw	50
  5601   001998  EC66  F006         	call	i2_mdb_comm
  5602   00199C  0012               	return		;funcret
  5603   00199E                     __end_ofi2_mdb_security:
  5604                           	callstack 0
  5605                           
  5606 ;; *************** function i2_mdb_reset *****************
  5607 ;; Defined at:
  5608 ;;		line 40 in file "mdb.c"
  5609 ;; Parameters:    Size  Location     Type
  5610 ;;		None
  5611 ;; Auto vars:     Size  Location     Type
  5612 ;;  i               1    6[COMRAM] unsigned char 
  5613 ;;  i               1    0        unsigned char 
  5614 ;; Return value:  Size  Location     Type
  5615 ;;                  1    wreg      unsigned char 
  5616 ;; Registers used:
  5617 ;;		wreg, fsr2l, fsr2h, status,2, status,0, cstack
  5618 ;; Tracked objects:
  5619 ;;		On entry : 0/0
  5620 ;;		On exit  : 0/0
  5621 ;;		Unchanged: 0/0
  5622 ;; Data sizes:     COMRAM   BANK0   BANK1   BANK2   BANK3   BANK4   BANK5   BANK6   BANK7
  5623 ;;      Params:         0       0       0       0       0       0       0       0       0
  5624 ;;      Locals:         1       0       0       0       0       0       0       0       0
  5625 ;;      Temps:          1       0       0       0       0       0       0       0       0
  5626 ;;      Totals:         2       0       0       0       0       0       0       0       0
  5627 ;;Total ram usage:        2 bytes
  5628 ;; Hardware stack levels used: 1
  5629 ;; Hardware stack levels required when called: 3
  5630 ;; This function calls:
  5631 ;;		i2_mdb_comm
  5632 ;; This function is called by:
  5633 ;;		i2_mdb_init
  5634 ;; This function uses a non-reentrant model
  5635 ;;
  5636                           
  5637                           	psect	text59
  5638   001310                     __ptext59:
  5639                           	callstack 0
  5640   001310                     i2_mdb_reset:
  5641                           	callstack 17
  5642   001310                     
  5643                           ;mdb.c: 45:     mdbflags.timeout = 1;
  5644   001310  861D               	bsf	_mdbflags^0,3,c
  5645                           
  5646                           ;mdb.c: 46:     while(mdbflags.timeout)
  5647   001312  EF90  F009         	goto	i2l3519
  5648   001316                     i2l3517:
  5649   001316  0E00               	movlw	0
  5650   001318  6E2C               	movwf	i2mdb_comm@mcount^0,c
  5651   00131A  0E30               	movlw	48
  5652   00131C  EC66  F006         	call	i2_mdb_comm
  5653   001320                     i2l3519:
  5654                           
  5655                           ;mdb.c: 46:     while(mdbflags.timeout)
  5656   001320  B61D               	btfsc	_mdbflags^0,3,c
  5657   001322  EF95  F009         	goto	i2u141_41
  5658   001326  EF97  F009         	goto	i2u141_40
  5659   00132A                     i2u141_41:
  5660   00132A  EF8B  F009         	goto	i2l3517
  5661   00132E                     i2u141_40:
  5662   00132E  F000               	nop		;# 
  5663   001330  0E00               	movlw	0
  5664   001332  6E2C               	movwf	i2mdb_comm@mcount^0,c
  5665   001334  0E33               	movlw	51
  5666   001336  EC66  F006         	call	i2_mdb_comm
  5667   00133A  6E30               	movwf	i2mdb_reset@i_2612^0,c
  5668   00133C  0630               	decf	i2mdb_reset@i_2612^0,f,c
  5669   00133E  0E60               	movlw	low _mdbdata
  5670   001340  2430               	addwf	i2mdb_reset@i_2612^0,w,c
  5671   001342  6ED9               	movwf	fsr2l,c
  5672   001344  6ADA               	clrf	fsr2h,c
  5673   001346  0E00               	movlw	high _mdbdata
  5674   001348  22DA               	addwfc	fsr2h,f,c
  5675   00134A  0E06               	movlw	6
  5676   00134C  18DE               	xorwf	postinc2,w,c
  5677   00134E  A4D8               	btfss	status,2,c
  5678   001350  EFAC  F009         	goto	i2u142_41
  5679   001354  EFAE  F009         	goto	i2u142_40
  5680   001358                     i2u142_41:
  5681   001358  EFB3  F009         	goto	i2l1252
  5682   00135C                     i2u142_40:
  5683   00135C  0E00               	movlw	0
  5684   00135E  6E2C               	movwf	i2mdb_comm@mcount^0,c
  5685   001360  0E33               	movlw	51
  5686   001362  EC66  F006         	call	i2_mdb_comm
  5687   001366                     i2l1252:
  5688   001366  0012               	return		;funcret
  5689   001368                     __end_ofi2_mdb_reset:
  5690                           	callstack 0
  5691                           
  5692 ;; *************** function i2_mdb_noten *****************
  5693 ;; Defined at:
  5694 ;;		line 141 in file "mdb.c"
  5695 ;; Parameters:    Size  Location     Type
  5696 ;;		None
  5697 ;; Auto vars:     Size  Location     Type
  5698 ;;		None
  5699 ;; Return value:  Size  Location     Type
  5700 ;;                  1    wreg      void 
  5701 ;; Registers used:
  5702 ;;		wreg, fsr2l, fsr2h, status,2, status,0, cstack
  5703 ;; Tracked objects:
  5704 ;;		On entry : 0/0
  5705 ;;		On exit  : 0/0
  5706 ;;		Unchanged: 0/0
  5707 ;; Data sizes:     COMRAM   BANK0   BANK1   BANK2   BANK3   BANK4   BANK5   BANK6   BANK7
  5708 ;;      Params:         0       0       0       0       0       0       0       0       0
  5709 ;;      Locals:         0       0       0       0       0       0       0       0       0
  5710 ;;      Temps:          0       0       0       0       0       0       0       0       0
  5711 ;;      Totals:         0       0       0       0       0       0       0       0       0
  5712 ;;Total ram usage:        0 bytes
  5713 ;; Hardware stack levels used: 1
  5714 ;; Hardware stack levels required when called: 3
  5715 ;; This function calls:
  5716 ;;		i2_init_mdbdata
  5717 ;;		i2_mdb_comm
  5718 ;; This function is called by:
  5719 ;;		i2_mdb_init
  5720 ;; This function uses a non-reentrant model
  5721 ;;
  5722                           
  5723                           	psect	text60
  5724   0017DE                     __ptext60:
  5725                           	callstack 0
  5726   0017DE                     i2_mdb_noten:
  5727                           	callstack 17
  5728   0017DE                     
  5729                           ;mdb.c: 144:     init_mdbdata(0x00);
  5730   0017DE  0E00               	movlw	0
  5731   0017E0  EC38  F00D         	call	i2_init_mdbdata
  5732   0017E4                     
  5733                           ;mdb.c: 146:     mcount = 3;
  5734   0017E4  0E03               	movlw	3
  5735   0017E6  6E20               	movwf	_mcount^0,c
  5736   0017E8                     
  5737                           ;mdb.c: 148:     mdbdata[0] = 0x00;
  5738   0017E8  0E00               	movlw	0
  5739   0017EA  0100               	movlb	0	; () banked
  5740   0017EC  6F60               	movwf	_mdbdata& (0+255),b
  5741   0017EE                     
  5742                           ; BSR set to: 0
  5743                           ;mdb.c: 149:     mdbdata[1] = 0x00;
  5744   0017EE  0E00               	movlw	0
  5745   0017F0  6F61               	movwf	(_mdbdata+1)& (0+255),b
  5746   0017F2                     
  5747                           ; BSR set to: 0
  5748                           ;mdb.c: 151:     mdbdata[2] = noteen_byte;
  5749   0017F2  C01B  F062         	movff	_noteen_byte,_mdbdata+2	;volatile
  5750   0017F6                     
  5751                           ; BSR set to: 0
  5752                           ;mdb.c: 153:     mdbdata[3] = 0x00;
  5753   0017F6  0E00               	movlw	0
  5754   0017F8  6F63               	movwf	(_mdbdata+3)& (0+255),b
  5755   0017FA                     
  5756                           ; BSR set to: 0
  5757   0017FA  C020  F02C         	movff	_mcount,i2mdb_comm@mcount
  5758   0017FE  0E34               	movlw	52
  5759   001800  EC66  F006         	call	i2_mdb_comm
  5760   001804  6E20               	movwf	_mcount^0,c
  5761   001806                     
  5762                           ;mdb.c: 155:     mdbflags.vending = 0;
  5763   001806  981D               	bcf	_mdbflags^0,4,c
  5764   001808  0012               	return		;funcret
  5765   00180A                     __end_ofi2_mdb_noten:
  5766                           	callstack 0
  5767                           
  5768 ;; *************** function i2_credit_add *****************
  5769 ;; Defined at:
  5770 ;;		line 56 in file "vend.c"
  5771 ;; Parameters:    Size  Location     Type
  5772 ;;  credit          1    wreg     unsigned char 
  5773 ;; Auto vars:     Size  Location     Type
  5774 ;;  credit          1    3[COMRAM] unsigned char 
  5775 ;; Return value:  Size  Location     Type
  5776 ;;                  1    wreg      void 
  5777 ;; Registers used:
  5778 ;;		wreg, status,2, status,0, cstack
  5779 ;; Tracked objects:
  5780 ;;		On entry : 0/0
  5781 ;;		On exit  : 0/0
  5782 ;;		Unchanged: 0/0
  5783 ;; Data sizes:     COMRAM   BANK0   BANK1   BANK2   BANK3   BANK4   BANK5   BANK6   BANK7
  5784 ;;      Params:         0       0       0       0       0       0       0       0       0
  5785 ;;      Locals:         1       0       0       0       0       0       0       0       0
  5786 ;;      Temps:          0       0       0       0       0       0       0       0       0
  5787 ;;      Totals:         1       0       0       0       0       0       0       0       0
  5788 ;;Total ram usage:        1 bytes
  5789 ;; Hardware stack levels used: 1
  5790 ;; Hardware stack levels required when called: 1
  5791 ;; This function calls:
  5792 ;;		i2_DATAEE_ReadByte
  5793 ;;		i2_DATAEE_WriteByte
  5794 ;; This function is called by:
  5795 ;;		_poll_mdb
  5796 ;; This function uses a non-reentrant model
  5797 ;;
  5798                           
  5799                           	psect	text61
  5800   001700                     __ptext61:
  5801                           	callstack 0
  5802   001700                     i2_credit_add:
  5803                           	callstack 20
  5804                           
  5805                           ;incstack = 0
  5806                           ;i2credit_add@credit stored from wreg
  5807   001700  6E2D               	movwf	i2credit_add@credit^0,c
  5808   001702  0E00               	movlw	0
  5809   001704  EC65  F00C         	call	i2_DATAEE_ReadByte
  5810   001708  6E24               	movwf	_cash^0,c	;volatile
  5811   00170A                     
  5812                           ;vend.c: 59:     cash = cash + credit;
  5813   00170A  5024               	movf	_cash^0,w,c	;volatile
  5814   00170C  242D               	addwf	i2credit_add@credit^0,w,c
  5815   00170E  6E24               	movwf	_cash^0,c	;volatile
  5816   001710  C024  F02A         	movff	_cash,i2DATAEE_WriteByte@bData	;volatile
  5817   001714  0E00               	movlw	0
  5818   001716  EC27  F00A         	call	i2_DATAEE_WriteByte
  5819   00171A                     
  5820                           ;vend.c: 61:     if(cash != 0)
  5821   00171A  5024               	movf	_cash^0,w,c	;volatile
  5822   00171C  B4D8               	btfsc	status,2,c
  5823   00171E  EF93  F00B         	goto	i2u147_41
  5824   001722  EF95  F00B         	goto	i2u147_40
  5825   001726                     i2u147_41:
  5826   001726  EF96  F00B         	goto	i2l1021
  5827   00172A                     i2u147_40:
  5828   00172A                     
  5829                           ;vend.c: 62:     {;vend.c: 63:         venflags.iscredit = 1;
  5830   00172A  8001               	bsf	_venflags^0,0,c
  5831   00172C                     i2l1021:
  5832   00172C  0012               	return		;funcret
  5833   00172E                     __end_ofi2_credit_add:
  5834                           	callstack 0
  5835                           
  5836 ;; *************** function i2_DATAEE_WriteByte *****************
  5837 ;; Defined at:
  5838 ;;		line 165 in file "mcc_generated_files/memory.c"
  5839 ;; Parameters:    Size  Location     Type
  5840 ;;  bAdd            1    wreg     unsigned char 
  5841 ;;  bData           1    0[COMRAM] unsigned char 
  5842 ;; Auto vars:     Size  Location     Type
  5843 ;;  bAdd            1    1[COMRAM] unsigned char 
  5844 ;;  GIEBitValue     1    2[COMRAM] unsigned char 
  5845 ;; Return value:  Size  Location     Type
  5846 ;;                  1    wreg      void 
  5847 ;; Registers used:
  5848 ;;		wreg, status,2
  5849 ;; Tracked objects:
  5850 ;;		On entry : 0/0
  5851 ;;		On exit  : 0/0
  5852 ;;		Unchanged: 0/0
  5853 ;; Data sizes:     COMRAM   BANK0   BANK1   BANK2   BANK3   BANK4   BANK5   BANK6   BANK7
  5854 ;;      Params:         1       0       0       0       0       0       0       0       0
  5855 ;;      Locals:         2       0       0       0       0       0       0       0       0
  5856 ;;      Temps:          0       0       0       0       0       0       0       0       0
  5857 ;;      Totals:         3       0       0       0       0       0       0       0       0
  5858 ;;Total ram usage:        3 bytes
  5859 ;; Hardware stack levels used: 1
  5860 ;; This function calls:
  5861 ;;		Nothing
  5862 ;; This function is called by:
  5863 ;;		i2_credit_add
  5864 ;; This function uses a non-reentrant model
  5865 ;;
  5866                           
  5867                           	psect	text62
  5868   00144E                     __ptext62:
  5869                           	callstack 0
  5870   00144E                     i2_DATAEE_WriteByte:
  5871                           	callstack 20
  5872                           
  5873                           ;incstack = 0
  5874                           ;i2DATAEE_WriteByte@bAdd stored from wreg
  5875   00144E  6E2B               	movwf	i2DATAEE_WriteByte@bAdd^0,c
  5876   001450                     
  5877                           ;mcc_generated_files/memory.c: 165: void DATAEE_WriteByte(uint8_t bAdd, uint8_t bData);m
      +                          cc_generated_files/memory.c: 166: {;mcc_generated_files/memory.c: 167:     uint8_t GIEBi
      +                          tValue = INTCON0bits.GIE;
  5878   001450  0E00               	movlw	0
  5879   001452  BED2               	btfsc	210,7,c	;volatile
  5880   001454  0E01               	movlw	1
  5881   001456  6E2C               	movwf	i2DATAEE_WriteByte@GIEBitValue^0,c
  5882   001458                     
  5883                           ;mcc_generated_files/memory.c: 169:     NVMADRL = (uint8_t)(bAdd & 0xFF);
  5884   001458  0060  F0AF  F9E0   	movff	i2DATAEE_WriteByte@bAdd,14816	;volatile
  5885   00145E                     
  5886                           ;mcc_generated_files/memory.c: 170:     NVMDAT = bData;
  5887   00145E  0060  F0AB  F9E3   	movff	i2DATAEE_WriteByte@bData,14819	;volatile
  5888   001464                     
  5889                           ;mcc_generated_files/memory.c: 171:     NVMCON1bits.NVMREG = 0;
  5890   001464  0E3F               	movlw	-193
  5891   001466  0139               	movlb	57	; () banked
  5892   001468  17E5               	andwf	229,f,b	;volsfr
  5893   00146A                     
  5894                           ; BSR set to: 57
  5895                           ;mcc_generated_files/memory.c: 172:     NVMCON1bits.WREN = 1;
  5896   00146A  85E5               	bsf	229,2,b	;volsfr
  5897   00146C                     
  5898                           ; BSR set to: 57
  5899                           ;mcc_generated_files/memory.c: 173:     INTCON0bits.GIE = 0;
  5900   00146C  9ED2               	bcf	210,7,c	;volatile
  5901   00146E                     
  5902                           ; BSR set to: 57
  5903                           ;mcc_generated_files/memory.c: 174:     NVMCON2 = 0x55;
  5904   00146E  0E55               	movlw	85
  5905   001470  6FE6               	movwf	230,b	;volsfr
  5906   001472                     
  5907                           ; BSR set to: 57
  5908                           ;mcc_generated_files/memory.c: 175:     NVMCON2 = 0xAA;
  5909   001472  0EAA               	movlw	170
  5910   001474  6FE6               	movwf	230,b	;volsfr
  5911   001476                     
  5912                           ; BSR set to: 57
  5913                           ;mcc_generated_files/memory.c: 176:     NVMCON1bits.WR = 1;
  5914   001476  83E5               	bsf	229,1,b	;volsfr
  5915   001478                     i2l148:
  5916                           
  5917                           ; BSR set to: 57
  5918                           ;mcc_generated_files/memory.c: 178:     while (NVMCON1bits.WR)
  5919   001478  B3E5               	btfsc	229,1,b	;volsfr
  5920   00147A  EF41  F00A         	goto	i2u139_41
  5921   00147E  EF43  F00A         	goto	i2u139_40
  5922   001482                     i2u139_41:
  5923   001482  EF3C  F00A         	goto	i2l148
  5924   001486                     i2u139_40:
  5925   001486                     
  5926                           ; BSR set to: 57
  5927                           ;mcc_generated_files/memory.c: 182:     NVMCON1bits.WREN = 0;
  5928   001486  95E5               	bcf	229,2,b	;volsfr
  5929                           
  5930                           ;mcc_generated_files/memory.c: 183:     INTCON0bits.GIE = GIEBitValue;
  5931   001488  B02C               	btfsc	i2DATAEE_WriteByte@GIEBitValue^0,0,c
  5932   00148A  D002               	bra	i2u140_45
  5933   00148C  9ED2               	bcf	210,7,c	;volatile
  5934   00148E  D001               	bra	i2u140_46
  5935   001490                     i2u140_45:
  5936   001490  8ED2               	bsf	210,7,c	;volatile
  5937   001492                     i2u140_46:
  5938   001492  0012               	return		;funcret
  5939   001494                     __end_ofi2_DATAEE_WriteByte:
  5940                           	callstack 0
  5941                           
  5942 ;; *************** function i2_DATAEE_ReadByte *****************
  5943 ;; Defined at:
  5944 ;;		line 186 in file "mcc_generated_files/memory.c"
  5945 ;; Parameters:    Size  Location     Type
  5946 ;;  bAdd            1    wreg     unsigned char 
  5947 ;; Auto vars:     Size  Location     Type
  5948 ;;  bAdd            1    0[COMRAM] unsigned char 
  5949 ;; Return value:  Size  Location     Type
  5950 ;;                  1    wreg      unsigned char 
  5951 ;; Registers used:
  5952 ;;		wreg, status,2
  5953 ;; Tracked objects:
  5954 ;;		On entry : 0/0
  5955 ;;		On exit  : 0/0
  5956 ;;		Unchanged: 0/0
  5957 ;; Data sizes:     COMRAM   BANK0   BANK1   BANK2   BANK3   BANK4   BANK5   BANK6   BANK7
  5958 ;;      Params:         0       0       0       0       0       0       0       0       0
  5959 ;;      Locals:         1       0       0       0       0       0       0       0       0
  5960 ;;      Temps:          0       0       0       0       0       0       0       0       0
  5961 ;;      Totals:         1       0       0       0       0       0       0       0       0
  5962 ;;Total ram usage:        1 bytes
  5963 ;; Hardware stack levels used: 1
  5964 ;; This function calls:
  5965 ;;		Nothing
  5966 ;; This function is called by:
  5967 ;;		i2_credit_add
  5968 ;;		i2_mdb_init
  5969 ;; This function uses a non-reentrant model
  5970 ;;
  5971                           
  5972                           	psect	text63
  5973   0018CA                     __ptext63:
  5974                           	callstack 0
  5975   0018CA                     i2_DATAEE_ReadByte:
  5976                           	callstack 20
  5977                           
  5978                           ;incstack = 0
  5979                           ;i2DATAEE_ReadByte@bAdd stored from wreg
  5980   0018CA  6E2A               	movwf	i2DATAEE_ReadByte@bAdd^0,c
  5981   0018CC                     
  5982                           ;mcc_generated_files/memory.c: 186: uint8_t DATAEE_ReadByte(uint8_t bAdd);mcc_generated_
      +                          files/memory.c: 187: {;mcc_generated_files/memory.c: 188:     NVMADRL = (uint8_t)(bAdd &
      +                           0xFF);
  5983   0018CC  0060  F0AB  F9E0   	movff	i2DATAEE_ReadByte@bAdd,14816	;volatile
  5984   0018D2                     
  5985                           ;mcc_generated_files/memory.c: 189:     NVMCON1bits.NVMREG = 0;
  5986   0018D2  0E3F               	movlw	-193
  5987   0018D4  0139               	movlb	57	; () banked
  5988   0018D6  17E5               	andwf	229,f,b	;volsfr
  5989   0018D8                     
  5990                           ; BSR set to: 57
  5991                           ;mcc_generated_files/memory.c: 190:     NVMCON1bits.RD = 1;
  5992   0018D8  81E5               	bsf	229,0,b	;volsfr
  5993   0018DA                     
  5994                           ; BSR set to: 57
  5995                           ;mcc_generated_files/memory.c: 191:     __nop();
  5996   0018DA  F000               	nop	
  5997   0018DC                     
  5998                           ;mcc_generated_files/memory.c: 192:     __nop();
  5999   0018DC  F000               	nop	
  6000   0018DE                     
  6001                           ;mcc_generated_files/memory.c: 194:     return (NVMDAT);
  6002   0018DE  0139               	movlb	57	; () banked
  6003   0018E0  51E3               	movf	227,w,b	;volatile
  6004   0018E2                     
  6005                           ; BSR set to: 57
  6006   0018E2  0012               	return		;funcret
  6007   0018E4                     __end_ofi2_DATAEE_ReadByte:
  6008                           	callstack 0
  6009                           
  6010 ;; *************** function _mdb_poll *****************
  6011 ;; Defined at:
  6012 ;;		line 215 in file "mdb.c"
  6013 ;; Parameters:    Size  Location     Type
  6014 ;;		None
  6015 ;; Auto vars:     Size  Location     Type
  6016 ;;  i               1    0        unsigned char 
  6017 ;; Return value:  Size  Location     Type
  6018 ;;                  1    wreg      unsigned char 
  6019 ;; Registers used:
  6020 ;;		wreg, fsr2l, fsr2h, status,2, status,0, cstack
  6021 ;; Tracked objects:
  6022 ;;		On entry : 0/0
  6023 ;;		On exit  : 0/0
  6024 ;;		Unchanged: 0/0
  6025 ;; Data sizes:     COMRAM   BANK0   BANK1   BANK2   BANK3   BANK4   BANK5   BANK6   BANK7
  6026 ;;      Params:         0       0       0       0       0       0       0       0       0
  6027 ;;      Locals:         0       0       0       0       0       0       0       0       0
  6028 ;;      Temps:          2       0       0       0       0       0       0       0       0
  6029 ;;      Totals:         2       0       0       0       0       0       0       0       0
  6030 ;;Total ram usage:        2 bytes
  6031 ;; Hardware stack levels used: 1
  6032 ;; Hardware stack levels required when called: 3
  6033 ;; This function calls:
  6034 ;;		i2_mdb_comm
  6035 ;; This function is called by:
  6036 ;;		_poll_mdb
  6037 ;; This function uses a non-reentrant model
  6038 ;;
  6039                           
  6040                           	psect	text64
  6041   0009E0                     __ptext64:
  6042                           	callstack 0
  6043   0009E0                     _mdb_poll:
  6044                           	callstack 18
  6045   0009E0  0E00               	movlw	0
  6046   0009E2  6E2C               	movwf	i2mdb_comm@mcount^0,c
  6047   0009E4  0E33               	movlw	51
  6048   0009E6  EC66  F006         	call	i2_mdb_comm
  6049   0009EA                     
  6050                           ;mdb.c: 221:     notebyte = mdbdata[0];
  6051   0009EA  C060  F01F         	movff	_mdbdata,_notebyte
  6052   0009EE                     
  6053                           ;mdb.c: 223:     if((mdbdata[0] & 0x80) != 0)
  6054   0009EE  0100               	movlb	0	; () banked
  6055   0009F0  AF60               	btfss	_mdbdata& (0+255),7,b
  6056   0009F2  EFFD  F004         	goto	i2u143_41
  6057   0009F6  EFFF  F004         	goto	i2u143_40
  6058   0009FA                     i2u143_41:
  6059   0009FA  EF7F  F005         	goto	i2l3629
  6060   0009FE                     i2u143_40:
  6061   0009FE                     
  6062                           ; BSR set to: 0
  6063                           ;mdb.c: 224:     {;mdb.c: 225:         notebyte = mdbdata[0] & 0x7F;
  6064   0009FE  5160               	movf	_mdbdata& (0+255),w,b
  6065   000A00  0B7F               	andlw	127
  6066   000A02  6E1F               	movwf	_notebyte^0,c
  6067                           
  6068                           ;mdb.c: 226:         switch(notebyte)
  6069   000A04  EF23  F005         	goto	i2l3593
  6070   000A08                     i2l3565:
  6071                           
  6072                           ; BSR set to: 0
  6073   000A08  0E0A               	movlw	10
  6074   000A0A  6E25               	movwf	_credit^0,c	;volatile
  6075                           
  6076                           ;mdb.c: 229:             return credit;
  6077   000A0C  5025               	movf	_credit^0,w,c	;volatile
  6078   000A0E  EFC2  F005         	goto	i2l1287
  6079   000A12                     i2l3569:
  6080                           
  6081                           ; BSR set to: 0
  6082   000A12  0E14               	movlw	20
  6083   000A14  6E25               	movwf	_credit^0,c	;volatile
  6084                           
  6085                           ;mdb.c: 231:             return credit;
  6086   000A16  5025               	movf	_credit^0,w,c	;volatile
  6087   000A18  EFC2  F005         	goto	i2l1287
  6088   000A1C                     i2l3573:
  6089                           
  6090                           ; BSR set to: 0
  6091   000A1C  0E32               	movlw	50
  6092   000A1E  6E25               	movwf	_credit^0,c	;volatile
  6093                           
  6094                           ;mdb.c: 233:             return credit;
  6095   000A20  5025               	movf	_credit^0,w,c	;volatile
  6096   000A22  EFC2  F005         	goto	i2l1287
  6097   000A26                     i2l3577:
  6098                           
  6099                           ; BSR set to: 0
  6100   000A26  0E64               	movlw	100
  6101   000A28  6E25               	movwf	_credit^0,c	;volatile
  6102                           
  6103                           ;mdb.c: 235:             return credit;
  6104   000A2A  5025               	movf	_credit^0,w,c	;volatile
  6105   000A2C  EFC2  F005         	goto	i2l1287
  6106   000A30                     i2l3581:
  6107                           
  6108                           ; BSR set to: 0
  6109   000A30  0EC8               	movlw	200
  6110   000A32  6E25               	movwf	_credit^0,c	;volatile
  6111                           
  6112                           ;mdb.c: 237:             return credit;
  6113   000A34  5025               	movf	_credit^0,w,c	;volatile
  6114   000A36  EFC2  F005         	goto	i2l1287
  6115   000A3A                     i2l3585:
  6116                           
  6117                           ; BSR set to: 0
  6118   000A3A  0E10               	movlw	16
  6119   000A3C  6E25               	movwf	_credit^0,c	;volatile
  6120   000A3E                     
  6121                           ; BSR set to: 0
  6122                           ;mdb.c: 239:             mdbflags.noteerr = 1;
  6123   000A3E  821D               	bsf	_mdbflags^0,1,c
  6124                           
  6125                           ;mdb.c: 240:             return credit;
  6126   000A40  5025               	movf	_credit^0,w,c	;volatile
  6127   000A42  EFC2  F005         	goto	i2l1287
  6128   000A46                     i2l3593:
  6129                           
  6130                           ; BSR set to: 0
  6131   000A46  501F               	movf	_notebyte^0,w,c
  6132   000A48  6E2F               	movwf	??_mdb_poll^0,c
  6133   000A4A  6A30               	clrf	(??_mdb_poll+1)^0,c
  6134                           
  6135                           ; Switch on 2 bytes has been partitioned into a top level switch of size 1, and 1 sub-sw
      +                          itches
  6136                           ; Switch size 1, requested type "simple"
  6137                           ; Number of cases is 1, Range of values is 0 to 0
  6138                           ; switch strategies available:
  6139                           ; Name         Instructions Cycles
  6140                           ; simple_byte            4     3 (average)
  6141                           ;	Chosen strategy is simple_byte
  6142   000A4C  5030               	movf	(??_mdb_poll+1)^0,w,c
  6143   000A4E  0A00               	xorlw	0	; case 0
  6144   000A50  B4D8               	btfsc	status,2,c
  6145   000A52  EF2D  F005         	goto	i2l4259
  6146   000A56  EF1D  F005         	goto	i2l3585
  6147   000A5A                     i2l4259:
  6148                           
  6149                           ; BSR set to: 0
  6150                           ; Switch size 1, requested type "simple"
  6151                           ; Number of cases is 5, Range of values is 0 to 4
  6152                           ; switch strategies available:
  6153                           ; Name         Instructions Cycles
  6154                           ; simple_byte           16     9 (average)
  6155                           ;	Chosen strategy is simple_byte
  6156   000A5A  502F               	movf	??_mdb_poll^0,w,c
  6157   000A5C  0A00               	xorlw	0	; case 0
  6158   000A5E  B4D8               	btfsc	status,2,c
  6159   000A60  EF04  F005         	goto	i2l3565
  6160   000A64  0A01               	xorlw	1	; case 1
  6161   000A66  B4D8               	btfsc	status,2,c
  6162   000A68  EF09  F005         	goto	i2l3569
  6163   000A6C  0A03               	xorlw	3	; case 2
  6164   000A6E  B4D8               	btfsc	status,2,c
  6165   000A70  EF0E  F005         	goto	i2l3573
  6166   000A74  0A01               	xorlw	1	; case 3
  6167   000A76  B4D8               	btfsc	status,2,c
  6168   000A78  EF13  F005         	goto	i2l3577
  6169   000A7C  0A07               	xorlw	7	; case 4
  6170   000A7E  B4D8               	btfsc	status,2,c
  6171   000A80  EF18  F005         	goto	i2l3581
  6172   000A84  EF1D  F005         	goto	i2l3585
  6173   000A88                     i2l3595:
  6174                           
  6175                           ; BSR set to: 0
  6176   000A88  0E00               	movlw	0
  6177   000A8A  6E25               	movwf	_credit^0,c	;volatile
  6178                           
  6179                           ;mdb.c: 249:             return credit;
  6180   000A8C  5025               	movf	_credit^0,w,c	;volatile
  6181   000A8E  EFC2  F005         	goto	i2l1287
  6182   000A92                     i2l3599:
  6183                           
  6184                           ; BSR set to: 0
  6185   000A92  0E01               	movlw	1
  6186   000A94  6E25               	movwf	_credit^0,c	;volatile
  6187                           
  6188                           ;mdb.c: 252:             break;
  6189   000A96  EFC0  F005         	goto	i2l1298
  6190   000A9A                     i2l3601:
  6191                           
  6192                           ; BSR set to: 0
  6193   000A9A  0E02               	movlw	2
  6194   000A9C  6E25               	movwf	_credit^0,c	;volatile
  6195                           
  6196                           ;mdb.c: 255:             break;
  6197   000A9E  EFC0  F005         	goto	i2l1298
  6198   000AA2                     i2l3603:
  6199                           
  6200                           ; BSR set to: 0
  6201   000AA2  0E00               	movlw	0
  6202   000AA4  6E25               	movwf	_credit^0,c	;volatile
  6203   000AA6                     
  6204                           ; BSR set to: 0
  6205                           ;mdb.c: 258:             mdbflags.noteerr = 0;
  6206   000AA6  921D               	bcf	_mdbflags^0,1,c
  6207                           
  6208                           ;mdb.c: 259:             return credit;
  6209   000AA8  5025               	movf	_credit^0,w,c	;volatile
  6210   000AAA  EFC2  F005         	goto	i2l1287
  6211   000AAE                     i2l3609:
  6212                           
  6213                           ; BSR set to: 0
  6214   000AAE  0E04               	movlw	4
  6215   000AB0  6E25               	movwf	_credit^0,c	;volatile
  6216                           
  6217                           ;mdb.c: 262:             break;
  6218   000AB2  EFC0  F005         	goto	i2l1298
  6219   000AB6                     i2l3611:
  6220                           
  6221                           ; BSR set to: 0
  6222   000AB6  0E05               	movlw	5
  6223   000AB8  6E25               	movwf	_credit^0,c	;volatile
  6224                           
  6225                           ;mdb.c: 265:             break;
  6226   000ABA  EFC0  F005         	goto	i2l1298
  6227   000ABE                     i2l3613:
  6228                           
  6229                           ; BSR set to: 0
  6230   000ABE  0E06               	movlw	6
  6231   000AC0  6E25               	movwf	_credit^0,c	;volatile
  6232                           
  6233                           ;mdb.c: 268:             break;
  6234   000AC2  EFC0  F005         	goto	i2l1298
  6235   000AC6                     i2l3615:
  6236                           
  6237                           ; BSR set to: 0
  6238   000AC6  0E07               	movlw	7
  6239   000AC8  6E25               	movwf	_credit^0,c	;volatile
  6240                           
  6241                           ;mdb.c: 271:             break;
  6242   000ACA  EFC0  F005         	goto	i2l1298
  6243   000ACE                     i2l3617:
  6244                           
  6245                           ; BSR set to: 0
  6246   000ACE  0E08               	movlw	8
  6247   000AD0  6E25               	movwf	_credit^0,c	;volatile
  6248                           
  6249                           ;mdb.c: 274:             break;
  6250   000AD2  EFC0  F005         	goto	i2l1298
  6251   000AD6                     i2l3619:
  6252                           
  6253                           ; BSR set to: 0
  6254   000AD6  0E09               	movlw	9
  6255   000AD8  6E25               	movwf	_credit^0,c	;volatile
  6256                           
  6257                           ;mdb.c: 277:             break;
  6258   000ADA  EFC0  F005         	goto	i2l1298
  6259   000ADE                     i2l3621:
  6260                           
  6261                           ; BSR set to: 0
  6262   000ADE  0E0A               	movlw	10
  6263   000AE0  6E25               	movwf	_credit^0,c	;volatile
  6264                           
  6265                           ;mdb.c: 280:             break;
  6266   000AE2  EFC0  F005         	goto	i2l1298
  6267   000AE6                     i2l3623:
  6268                           
  6269                           ; BSR set to: 0
  6270   000AE6  0E0B               	movlw	11
  6271   000AE8  6E25               	movwf	_credit^0,c	;volatile
  6272                           
  6273                           ;mdb.c: 283:             break;
  6274   000AEA  EFC0  F005         	goto	i2l1298
  6275   000AEE                     i2l3625:
  6276                           
  6277                           ; BSR set to: 0
  6278   000AEE  0E0C               	movlw	12
  6279   000AF0  6E25               	movwf	_credit^0,c	;volatile
  6280                           
  6281                           ;mdb.c: 286:             break;
  6282   000AF2  EFC0  F005         	goto	i2l1298
  6283   000AF6                     i2l3627:
  6284                           
  6285                           ; BSR set to: 0
  6286   000AF6  0E00               	movlw	0
  6287   000AF8  6E25               	movwf	_credit^0,c	;volatile
  6288                           
  6289                           ;mdb.c: 288:         }
  6290   000AFA  EFC0  F005         	goto	i2l1298
  6291   000AFE                     i2l3629:
  6292                           
  6293                           ; BSR set to: 0
  6294   000AFE  5160               	movf	_mdbdata& (0+255),w,b
  6295   000B00  6E2F               	movwf	??_mdb_poll^0,c
  6296   000B02  6A30               	clrf	(??_mdb_poll+1)^0,c
  6297                           
  6298                           ; Switch on 2 bytes has been partitioned into a top level switch of size 1, and 1 sub-sw
      +                          itches
  6299                           ; Switch size 1, requested type "simple"
  6300                           ; Number of cases is 1, Range of values is 0 to 0
  6301                           ; switch strategies available:
  6302                           ; Name         Instructions Cycles
  6303                           ; simple_byte            4     3 (average)
  6304                           ;	Chosen strategy is simple_byte
  6305   000B04  5030               	movf	(??_mdb_poll+1)^0,w,c
  6306   000B06  0A00               	xorlw	0	; case 0
  6307   000B08  B4D8               	btfsc	status,2,c
  6308   000B0A  EF89  F005         	goto	i2l4261
  6309   000B0E  EF7B  F005         	goto	i2l3627
  6310   000B12                     i2l4261:
  6311                           
  6312                           ; BSR set to: 0
  6313                           ; Switch size 1, requested type "simple"
  6314                           ; Number of cases is 13, Range of values is 0 to 12
  6315                           ; switch strategies available:
  6316                           ; Name         Instructions Cycles
  6317                           ; simple_byte           40    21 (average)
  6318                           ;	Chosen strategy is simple_byte
  6319   000B12  502F               	movf	??_mdb_poll^0,w,c
  6320   000B14  0A00               	xorlw	0	; case 0
  6321   000B16  B4D8               	btfsc	status,2,c
  6322   000B18  EF44  F005         	goto	i2l3595
  6323   000B1C  0A01               	xorlw	1	; case 1
  6324   000B1E  B4D8               	btfsc	status,2,c
  6325   000B20  EF49  F005         	goto	i2l3599
  6326   000B24  0A03               	xorlw	3	; case 2
  6327   000B26  B4D8               	btfsc	status,2,c
  6328   000B28  EF4D  F005         	goto	i2l3601
  6329   000B2C  0A01               	xorlw	1	; case 3
  6330   000B2E  B4D8               	btfsc	status,2,c
  6331   000B30  EF51  F005         	goto	i2l3603
  6332   000B34  0A07               	xorlw	7	; case 4
  6333   000B36  B4D8               	btfsc	status,2,c
  6334   000B38  EF57  F005         	goto	i2l3609
  6335   000B3C  0A01               	xorlw	1	; case 5
  6336   000B3E  B4D8               	btfsc	status,2,c
  6337   000B40  EF5B  F005         	goto	i2l3611
  6338   000B44  0A03               	xorlw	3	; case 6
  6339   000B46  B4D8               	btfsc	status,2,c
  6340   000B48  EF5F  F005         	goto	i2l3613
  6341   000B4C  0A01               	xorlw	1	; case 7
  6342   000B4E  B4D8               	btfsc	status,2,c
  6343   000B50  EF63  F005         	goto	i2l3615
  6344   000B54  0A0F               	xorlw	15	; case 8
  6345   000B56  B4D8               	btfsc	status,2,c
  6346   000B58  EF67  F005         	goto	i2l3617
  6347   000B5C  0A01               	xorlw	1	; case 9
  6348   000B5E  B4D8               	btfsc	status,2,c
  6349   000B60  EF6B  F005         	goto	i2l3619
  6350   000B64  0A03               	xorlw	3	; case 10
  6351   000B66  B4D8               	btfsc	status,2,c
  6352   000B68  EF6F  F005         	goto	i2l3621
  6353   000B6C  0A01               	xorlw	1	; case 11
  6354   000B6E  B4D8               	btfsc	status,2,c
  6355   000B70  EF73  F005         	goto	i2l3623
  6356   000B74  0A07               	xorlw	7	; case 12
  6357   000B76  B4D8               	btfsc	status,2,c
  6358   000B78  EF77  F005         	goto	i2l3625
  6359   000B7C  EF7B  F005         	goto	i2l3627
  6360   000B80                     i2l1298:
  6361                           
  6362                           ; BSR set to: 0
  6363                           ;mdb.c: 289:         mdbflags.noteerr = 1;
  6364   000B80  821D               	bsf	_mdbflags^0,1,c
  6365   000B82                     
  6366                           ; BSR set to: 0
  6367                           ;mdb.c: 290:         return credit;
  6368   000B82  5025               	movf	_credit^0,w,c	;volatile
  6369   000B84                     i2l1287:
  6370                           
  6371                           ; BSR set to: 0
  6372   000B84  0012               	return		;funcret
  6373   000B86                     __end_of_mdb_poll:
  6374                           	callstack 0
  6375                           
  6376 ;; *************** function i2_mdb_comm *****************
  6377 ;; Defined at:
  6378 ;;		line 295 in file "mdb.c"
  6379 ;; Parameters:    Size  Location     Type
  6380 ;;  slvadd          1    wreg     unsigned char 
  6381 ;;  mcount          1    2[COMRAM] unsigned char 
  6382 ;; Auto vars:     Size  Location     Type
  6383 ;;  slvadd          1    3[COMRAM] unsigned char 
  6384 ;;  i               1    4[COMRAM] unsigned char 
  6385 ;; Return value:  Size  Location     Type
  6386 ;;                  1    wreg      unsigned char 
  6387 ;; Registers used:
  6388 ;;		wreg, fsr2l, fsr2h, status,2, status,0, cstack
  6389 ;; Tracked objects:
  6390 ;;		On entry : 0/0
  6391 ;;		On exit  : 0/0
  6392 ;;		Unchanged: 0/0
  6393 ;; Data sizes:     COMRAM   BANK0   BANK1   BANK2   BANK3   BANK4   BANK5   BANK6   BANK7
  6394 ;;      Params:         1       0       0       0       0       0       0       0       0
  6395 ;;      Locals:         2       0       0       0       0       0       0       0       0
  6396 ;;      Temps:          0       0       0       0       0       0       0       0       0
  6397 ;;      Totals:         3       0       0       0       0       0       0       0       0
  6398 ;;Total ram usage:        3 bytes
  6399 ;; Hardware stack levels used: 1
  6400 ;; Hardware stack levels required when called: 2
  6401 ;; This function calls:
  6402 ;;		i2_TMR0_Initialize
  6403 ;;		i2_UART1_SetAddresstoTransmit
  6404 ;;		i2_UART9_Read
  6405 ;;		i2_init_mdbdata
  6406 ;;		i2_mdb_transmit
  6407 ;;		i2_mdb_waitr
  6408 ;; This function is called by:
  6409 ;;		_mdb_poll
  6410 ;;		i2_mdb_init
  6411 ;;		i2_mdb_reset
  6412 ;;		i2_mdb_noten
  6413 ;;		i2_mdb_security
  6414 ;; This function uses a non-reentrant model
  6415 ;;
  6416                           
  6417                           	psect	text65
  6418   000CCC                     __ptext65:
  6419                           	callstack 0
  6420   000CCC                     i2_mdb_comm:
  6421                           	callstack 17
  6422                           
  6423                           ; BSR set to: 0
  6424                           ;incstack = 0
  6425                           ;i2mdb_comm@slvadd stored from wreg
  6426   000CCC  6E2D               	movwf	i2mdb_comm@slvadd^0,c
  6427   000CCE                     
  6428                           ;mdb.c: 307:     dbcount = 0;
  6429   000CCE  0E00               	movlw	0
  6430   000CD0  6E04               	movwf	(_dbcount+1)^0,c
  6431   000CD2  0E00               	movlw	0
  6432   000CD4  6E03               	movwf	_dbcount^0,c
  6433   000CD6                     
  6434                           ;mdb.c: 308:     UART1_SetAddresstoTransmit(slvadd);
  6435   000CD6  502D               	movf	i2mdb_comm@slvadd^0,w,c
  6436   000CD8  EC2F  F00D         	call	i2_UART1_SetAddresstoTransmit
  6437   000CDC                     
  6438                           ;mdb.c: 309:     mdbflags.nodata = 0;
  6439   000CDC  9E1D               	bcf	_mdbflags^0,7,c
  6440   000CDE                     
  6441                           ;mdb.c: 310:     if(!mcount)
  6442   000CDE  502C               	movf	i2mdb_comm@mcount^0,w,c
  6443   000CE0  A4D8               	btfss	status,2,c
  6444   000CE2  EF75  F006         	goto	i2u126_41
  6445   000CE6  EF77  F006         	goto	i2u126_40
  6446   000CEA                     i2u126_41:
  6447   000CEA  EF7B  F006         	goto	i2l3419
  6448   000CEE                     i2u126_40:
  6449   000CEE                     
  6450                           ;mdb.c: 311:     {;mdb.c: 312:         mdb_transmit(slvadd);
  6451   000CEE  502D               	movf	i2mdb_comm@slvadd^0,w,c
  6452   000CF0  ECEF  F00C         	call	i2_mdb_transmit
  6453   000CF4                     
  6454                           ;mdb.c: 313:         mdbflags.nodata = 1;
  6455   000CF4  8E1D               	bsf	_mdbflags^0,7,c
  6456   000CF6                     i2l3419:
  6457                           
  6458                           ;mdb.c: 318:     chkbyte = slvadd;
  6459   000CF6  C02D  F01E         	movff	i2mdb_comm@slvadd,_chkbyte
  6460   000CFA                     
  6461                           ;mdb.c: 319:     if(!mdbflags.nodata)
  6462   000CFA  BE1D               	btfsc	_mdbflags^0,7,c
  6463   000CFC  EF82  F006         	goto	i2u127_41
  6464   000D00  EF84  F006         	goto	i2u127_40
  6465   000D04                     i2u127_41:
  6466   000D04  EFA4  F006         	goto	i2l1314
  6467   000D08                     i2u127_40:
  6468   000D08                     
  6469                           ;mdb.c: 320:     {;mdb.c: 321:         i = mcount + 1;
  6470   000D08  282C               	incf	i2mdb_comm@mcount^0,w,c
  6471   000D0A  6E2E               	movwf	i2mdb_comm@i^0,c
  6472                           
  6473                           ;mdb.c: 322:         while(i != 0)
  6474   000D0C  EF9C  F006         	goto	i2l3433
  6475   000D10                     i2l3425:
  6476                           
  6477                           ;mdb.c: 323:         {;mdb.c: 324:             mdb_transmit(mdbdata[mcount]);
  6478   000D10  0E60               	movlw	low _mdbdata
  6479   000D12  242C               	addwf	i2mdb_comm@mcount^0,w,c
  6480   000D14  6ED9               	movwf	fsr2l,c
  6481   000D16  6ADA               	clrf	fsr2h,c
  6482   000D18  0E00               	movlw	high _mdbdata
  6483   000D1A  22DA               	addwfc	fsr2h,f,c
  6484   000D1C  50DF               	movf	indf2,w,c
  6485   000D1E  ECEF  F00C         	call	i2_mdb_transmit
  6486   000D22                     
  6487                           ;mdb.c: 327:             chkbyte = chkbyte + mdbdata[mcount];
  6488   000D22  0E60               	movlw	low _mdbdata
  6489   000D24  242C               	addwf	i2mdb_comm@mcount^0,w,c
  6490   000D26  6ED9               	movwf	fsr2l,c
  6491   000D28  6ADA               	clrf	fsr2h,c
  6492   000D2A  0E00               	movlw	high _mdbdata
  6493   000D2C  22DA               	addwfc	fsr2h,f,c
  6494   000D2E  50DF               	movf	indf2,w,c
  6495   000D30  241E               	addwf	_chkbyte^0,w,c
  6496   000D32  6E1E               	movwf	_chkbyte^0,c
  6497   000D34                     
  6498                           ;mdb.c: 328:             i--;
  6499   000D34  062E               	decf	i2mdb_comm@i^0,f,c
  6500   000D36                     
  6501                           ;mdb.c: 329:             mcount--;
  6502   000D36  062C               	decf	i2mdb_comm@mcount^0,f,c
  6503   000D38                     i2l3433:
  6504                           
  6505                           ;mdb.c: 322:         while(i != 0)
  6506   000D38  502E               	movf	i2mdb_comm@i^0,w,c
  6507   000D3A  A4D8               	btfss	status,2,c
  6508   000D3C  EFA2  F006         	goto	i2u128_41
  6509   000D40  EFA4  F006         	goto	i2u128_40
  6510   000D44                     i2u128_41:
  6511   000D44  EF88  F006         	goto	i2l3425
  6512   000D48                     i2u128_40:
  6513   000D48                     i2l1314:
  6514                           
  6515                           ;mdb.c: 332:     if(!mdbflags.nodata)
  6516   000D48  BE1D               	btfsc	_mdbflags^0,7,c
  6517   000D4A  EFA9  F006         	goto	i2u129_41
  6518   000D4E  EFAB  F006         	goto	i2u129_40
  6519   000D52                     i2u129_41:
  6520   000D52  EFAE  F006         	goto	i2l3437
  6521   000D56                     i2u129_40:
  6522   000D56                     
  6523                           ;mdb.c: 333:     {;mdb.c: 334:         mdb_transmit(chkbyte);
  6524   000D56  501E               	movf	_chkbyte^0,w,c
  6525   000D58  ECEF  F00C         	call	i2_mdb_transmit
  6526   000D5C                     i2l3437:
  6527                           
  6528                           ;mdb.c: 347:     init_mdbdata(0xFF);
  6529   000D5C  0EFF               	movlw	255
  6530   000D5E  EC38  F00D         	call	i2_init_mdbdata
  6531   000D62                     
  6532                           ;mdb.c: 348:     TMR0_Initialize();
  6533   000D62  EC96  F00C         	call	i2_TMR0_Initialize	;wreg free
  6534   000D66                     
  6535                           ;mdb.c: 349:     mdbflags.isdata = 0;
  6536   000D66  901D               	bcf	_mdbflags^0,0,c
  6537   000D68                     
  6538                           ;mdb.c: 350:     i = 0;
  6539   000D68  0E00               	movlw	0
  6540   000D6A  6E2E               	movwf	i2mdb_comm@i^0,c
  6541                           
  6542                           ;mdb.c: 353:     while(!PIR3bits.TMR0IF && !mdbflags.isdata)
  6543   000D6C  EFDA  F006         	goto	i2l1319
  6544   000D70                     i2l3445:
  6545                           
  6546                           ; BSR set to: 57
  6547                           ;mdb.c: 354:     {;mdb.c: 356:         dbcount++;
  6548   000D70  4A03               	infsnz	_dbcount^0,f,c
  6549   000D72  2A04               	incf	(_dbcount+1)^0,f,c
  6550   000D74                     
  6551                           ; BSR set to: 57
  6552                           ;mdb.c: 357:         mdbflags.isdata = 0;
  6553   000D74  901D               	bcf	_mdbflags^0,0,c
  6554                           
  6555                           ;mdb.c: 360:         while(PIR3bits.U1RXIF && !mdbflags.isdata)
  6556   000D76  EFCB  F006         	goto	i2l3457
  6557   000D7A                     i2l3449:
  6558                           
  6559                           ; BSR set to: 57
  6560                           ;mdb.c: 361:         {;mdb.c: 364:             mdbdata[i] = UART9_Read();
  6561   000D7A  0E60               	movlw	low _mdbdata
  6562   000D7C  242E               	addwf	i2mdb_comm@i^0,w,c
  6563   000D7E  6ED9               	movwf	fsr2l,c
  6564   000D80  6ADA               	clrf	fsr2h,c
  6565   000D82  0E00               	movlw	high _mdbdata
  6566   000D84  22DA               	addwfc	fsr2h,f,c
  6567   000D86  EC3A  F00C         	call	i2_UART9_Read	;wreg free
  6568   000D8A  6EDF               	movwf	indf2,c
  6569   000D8C                     
  6570                           ;mdb.c: 365:             mdb_waitr();
  6571   000D8C  ECCF  F00C         	call	i2_mdb_waitr	;wreg free
  6572   000D90                     
  6573                           ;mdb.c: 368:             TMR0_Initialize();
  6574   000D90  EC96  F00C         	call	i2_TMR0_Initialize	;wreg free
  6575   000D94                     
  6576                           ;mdb.c: 369:             i++;
  6577   000D94  2A2E               	incf	i2mdb_comm@i^0,f,c
  6578   000D96                     i2l3457:
  6579                           
  6580                           ;mdb.c: 360:         while(PIR3bits.U1RXIF && !mdbflags.isdata)
  6581   000D96  0139               	movlb	57	; () banked
  6582   000D98  A7A3               	btfss	163,3,b	;volatile
  6583   000D9A  EFD1  F006         	goto	i2u130_41
  6584   000D9E  EFD3  F006         	goto	i2u130_40
  6585   000DA2                     i2u130_41:
  6586   000DA2  EFDA  F006         	goto	i2l1319
  6587   000DA6                     i2u130_40:
  6588   000DA6                     
  6589                           ; BSR set to: 57
  6590   000DA6  A01D               	btfss	_mdbflags^0,0,c
  6591   000DA8  EFD8  F006         	goto	i2u131_41
  6592   000DAC  EFDA  F006         	goto	i2u131_40
  6593   000DB0                     i2u131_41:
  6594   000DB0  EFBD  F006         	goto	i2l3449
  6595   000DB4                     i2u131_40:
  6596   000DB4                     i2l1319:
  6597                           
  6598                           ;mdb.c: 353:     while(!PIR3bits.TMR0IF && !mdbflags.isdata)
  6599   000DB4  0139               	movlb	57	; () banked
  6600   000DB6  BFA3               	btfsc	163,7,b	;volatile
  6601   000DB8  EFE0  F006         	goto	i2u132_41
  6602   000DBC  EFE2  F006         	goto	i2u132_40
  6603   000DC0                     i2u132_41:
  6604   000DC0  EFE9  F006         	goto	i2l3463
  6605   000DC4                     i2u132_40:
  6606   000DC4                     
  6607                           ; BSR set to: 57
  6608   000DC4  A01D               	btfss	_mdbflags^0,0,c
  6609   000DC6  EFE7  F006         	goto	i2u133_41
  6610   000DCA  EFE9  F006         	goto	i2u133_40
  6611   000DCE                     i2u133_41:
  6612   000DCE  EFB8  F006         	goto	i2l3445
  6613   000DD2                     i2u133_40:
  6614   000DD2                     i2l3463:
  6615                           
  6616                           ; BSR set to: 57
  6617                           ;mdb.c: 375:     i--;
  6618   000DD2  062E               	decf	i2mdb_comm@i^0,f,c
  6619   000DD4                     
  6620                           ; BSR set to: 57
  6621                           ;mdb.c: 377:     mdbflags.timeout = PIR3bits.TMR0IF;
  6622   000DD4  AFA3               	btfss	163,7,b	;volatile
  6623   000DD6  D002               	bra	i2u134_45
  6624   000DD8  861D               	bsf	_mdbflags^0,3,c
  6625   000DDA  D001               	bra	i2u134_47
  6626   000DDC                     i2u134_45:
  6627   000DDC  961D               	bcf	_mdbflags^0,3,c
  6628   000DDE                     i2u134_47:
  6629   000DDE                     
  6630                           ;mdb.c: 379:     if(mdbflags.isdata == 1 && mdbdata[i] != 0x00)
  6631   000DDE  A01D               	btfss	_mdbflags^0,0,c
  6632   000DE0  EFF4  F006         	goto	i2u135_41
  6633   000DE4  EFF6  F006         	goto	i2u135_40
  6634   000DE8                     i2u135_41:
  6635   000DE8  EF07  F007         	goto	i2l3473
  6636   000DEC                     i2u135_40:
  6637   000DEC  0E60               	movlw	low _mdbdata
  6638   000DEE  242E               	addwf	i2mdb_comm@i^0,w,c
  6639   000DF0  6ED9               	movwf	fsr2l,c
  6640   000DF2  6ADA               	clrf	fsr2h,c
  6641   000DF4  0E00               	movlw	high _mdbdata
  6642   000DF6  22DA               	addwfc	fsr2h,f,c
  6643   000DF8  50DF               	movf	indf2,w,c
  6644   000DFA  B4D8               	btfsc	status,2,c
  6645   000DFC  EF02  F007         	goto	i2u136_41
  6646   000E00  EF04  F007         	goto	i2u136_40
  6647   000E04                     i2u136_41:
  6648   000E04  EF07  F007         	goto	i2l3473
  6649   000E08                     i2u136_40:
  6650   000E08                     
  6651                           ;mdb.c: 380:     {;mdb.c: 381:         mdb_transmit(0x00);
  6652   000E08  0E00               	movlw	0
  6653   000E0A  ECEF  F00C         	call	i2_mdb_transmit
  6654   000E0E                     i2l3473:
  6655                           
  6656                           ;mdb.c: 385:     return(i);
  6657   000E0E  502E               	movf	i2mdb_comm@i^0,w,c
  6658   000E10  0012               	return		;funcret
  6659   000E12                     __end_ofi2_mdb_comm:
  6660                           	callstack 0
  6661                           
  6662 ;; *************** function i2_mdb_waitr *****************
  6663 ;; Defined at:
  6664 ;;		line 420 in file "mdb.c"
  6665 ;; Parameters:    Size  Location     Type
  6666 ;;		None
  6667 ;; Auto vars:     Size  Location     Type
  6668 ;;		None
  6669 ;; Return value:  Size  Location     Type
  6670 ;;                  1    wreg      void 
  6671 ;; Registers used:
  6672 ;;		None
  6673 ;; Tracked objects:
  6674 ;;		On entry : 0/0
  6675 ;;		On exit  : 0/0
  6676 ;;		Unchanged: 0/0
  6677 ;; Data sizes:     COMRAM   BANK0   BANK1   BANK2   BANK3   BANK4   BANK5   BANK6   BANK7
  6678 ;;      Params:         0       0       0       0       0       0       0       0       0
  6679 ;;      Locals:         0       0       0       0       0       0       0       0       0
  6680 ;;      Temps:          0       0       0       0       0       0       0       0       0
  6681 ;;      Totals:         0       0       0       0       0       0       0       0       0
  6682 ;;Total ram usage:        0 bytes
  6683 ;; Hardware stack levels used: 1
  6684 ;; This function calls:
  6685 ;;		Nothing
  6686 ;; This function is called by:
  6687 ;;		i2_mdb_comm
  6688 ;; This function uses a non-reentrant model
  6689 ;;
  6690                           
  6691                           	psect	text66
  6692   00199E                     __ptext66:
  6693                           	callstack 0
  6694   00199E                     i2_mdb_waitr:
  6695                           	callstack 18
  6696   00199E                     i2l1348:
  6697                           
  6698                           ;mdb.c: 422:     while(!U1FIFObits.RXIDL )
  6699   00199E  013D               	movlb	61	; () banked
  6700   0019A0  A7F7               	btfss	247,3,b	;volatile
  6701   0019A2  EFD5  F00C         	goto	i2u125_41
  6702   0019A6  EFD7  F00C         	goto	i2u125_40
  6703   0019AA                     i2u125_41:
  6704   0019AA  EFCF  F00C         	goto	i2l1348
  6705   0019AE                     i2u125_40:
  6706   0019AE                     
  6707                           ; BSR set to: 61
  6708   0019AE  0012               	return		;funcret
  6709   0019B0                     __end_ofi2_mdb_waitr:
  6710                           	callstack 0
  6711                           
  6712 ;; *************** function i2_mdb_transmit *****************
  6713 ;; Defined at:
  6714 ;;		line 516 in file "mdb.c"
  6715 ;; Parameters:    Size  Location     Type
  6716 ;;  txbyte          1    wreg     unsigned char 
  6717 ;; Auto vars:     Size  Location     Type
  6718 ;;  txbyte          1    1[COMRAM] unsigned char 
  6719 ;; Return value:  Size  Location     Type
  6720 ;;                  1    wreg      void 
  6721 ;; Registers used:
  6722 ;;		wreg, status,2, cstack
  6723 ;; Tracked objects:
  6724 ;;		On entry : 0/0
  6725 ;;		On exit  : 0/0
  6726 ;;		Unchanged: 0/0
  6727 ;; Data sizes:     COMRAM   BANK0   BANK1   BANK2   BANK3   BANK4   BANK5   BANK6   BANK7
  6728 ;;      Params:         0       0       0       0       0       0       0       0       0
  6729 ;;      Locals:         1       0       0       0       0       0       0       0       0
  6730 ;;      Temps:          0       0       0       0       0       0       0       0       0
  6731 ;;      Totals:         1       0       0       0       0       0       0       0       0
  6732 ;;Total ram usage:        1 bytes
  6733 ;; Hardware stack levels used: 1
  6734 ;; Hardware stack levels required when called: 1
  6735 ;; This function calls:
  6736 ;;		i2_UART1_Write
  6737 ;;		i2_mdb_waitx
  6738 ;; This function is called by:
  6739 ;;		i2_mdb_comm
  6740 ;; This function uses a non-reentrant model
  6741 ;;
  6742                           
  6743                           	psect	text67
  6744   0019DE                     __ptext67:
  6745                           	callstack 0
  6746   0019DE                     i2_mdb_transmit:
  6747                           	callstack 17
  6748                           
  6749                           ; BSR set to: 61
  6750                           ;incstack = 0
  6751                           ;i2mdb_transmit@txbyte stored from wreg
  6752   0019DE  6E2B               	movwf	i2mdb_transmit@txbyte^0,c
  6753   0019E0                     
  6754                           ;mdb.c: 516: void mdb_transmit(uint8_t txbyte);mdb.c: 517: {;mdb.c: 518:     UART1_Write
      +                          (txbyte);
  6755   0019E0  502B               	movf	i2mdb_transmit@txbyte^0,w,c
  6756   0019E2  EC72  F00C         	call	i2_UART1_Write
  6757   0019E6                     
  6758                           ;mdb.c: 519:     mdb_waitx();
  6759   0019E6  ECD8  F00C         	call	i2_mdb_waitx	;wreg free
  6760   0019EA  0012               	return		;funcret
  6761   0019EC                     __end_ofi2_mdb_transmit:
  6762                           	callstack 0
  6763                           
  6764 ;; *************** function i2_mdb_waitx *****************
  6765 ;; Defined at:
  6766 ;;		line 401 in file "mdb.c"
  6767 ;; Parameters:    Size  Location     Type
  6768 ;;		None
  6769 ;; Auto vars:     Size  Location     Type
  6770 ;;		None
  6771 ;; Return value:  Size  Location     Type
  6772 ;;                  1    wreg      void 
  6773 ;; Registers used:
  6774 ;;		None
  6775 ;; Tracked objects:
  6776 ;;		On entry : 0/0
  6777 ;;		On exit  : 0/0
  6778 ;;		Unchanged: 0/0
  6779 ;; Data sizes:     COMRAM   BANK0   BANK1   BANK2   BANK3   BANK4   BANK5   BANK6   BANK7
  6780 ;;      Params:         0       0       0       0       0       0       0       0       0
  6781 ;;      Locals:         0       0       0       0       0       0       0       0       0
  6782 ;;      Temps:          0       0       0       0       0       0       0       0       0
  6783 ;;      Totals:         0       0       0       0       0       0       0       0       0
  6784 ;;Total ram usage:        0 bytes
  6785 ;; Hardware stack levels used: 1
  6786 ;; This function calls:
  6787 ;;		Nothing
  6788 ;; This function is called by:
  6789 ;;		i2_mdb_transmit
  6790 ;; This function uses a non-reentrant model
  6791 ;;
  6792                           
  6793                           	psect	text68
  6794   0019B0                     __ptext68:
  6795                           	callstack 0
  6796   0019B0                     i2_mdb_waitx:
  6797                           	callstack 17
  6798   0019B0                     i2l1336:
  6799                           
  6800                           ;mdb.c: 403:     while(!U1ERRIRbits.TXMTIF)
  6801   0019B0  013D               	movlb	61	; () banked
  6802   0019B2  AFF9               	btfss	249,7,b	;volatile
  6803   0019B4  EFDE  F00C         	goto	i2u122_41
  6804   0019B8  EFE0  F00C         	goto	i2u122_40
  6805   0019BC                     i2u122_41:
  6806   0019BC  EFD8  F00C         	goto	i2l1336
  6807   0019C0                     i2u122_40:
  6808   0019C0                     
  6809                           ; BSR set to: 61
  6810   0019C0  0012               	return		;funcret
  6811   0019C2                     __end_ofi2_mdb_waitx:
  6812                           	callstack 0
  6813                           
  6814 ;; *************** function i2_UART1_Write *****************
  6815 ;; Defined at:
  6816 ;;		line 170 in file "mcc_generated_files/uart1.c"
  6817 ;; Parameters:    Size  Location     Type
  6818 ;;  txData          1    wreg     unsigned char 
  6819 ;; Auto vars:     Size  Location     Type
  6820 ;;  txData          1    0[COMRAM] unsigned char 
  6821 ;; Return value:  Size  Location     Type
  6822 ;;                  1    wreg      void 
  6823 ;; Registers used:
  6824 ;;		wreg
  6825 ;; Tracked objects:
  6826 ;;		On entry : 0/0
  6827 ;;		On exit  : 0/0
  6828 ;;		Unchanged: 0/0
  6829 ;; Data sizes:     COMRAM   BANK0   BANK1   BANK2   BANK3   BANK4   BANK5   BANK6   BANK7
  6830 ;;      Params:         0       0       0       0       0       0       0       0       0
  6831 ;;      Locals:         1       0       0       0       0       0       0       0       0
  6832 ;;      Temps:          0       0       0       0       0       0       0       0       0
  6833 ;;      Totals:         1       0       0       0       0       0       0       0       0
  6834 ;;Total ram usage:        1 bytes
  6835 ;; Hardware stack levels used: 1
  6836 ;; This function calls:
  6837 ;;		Nothing
  6838 ;; This function is called by:
  6839 ;;		i2_mdb_transmit
  6840 ;; This function uses a non-reentrant model
  6841 ;;
  6842                           
  6843                           	psect	text69
  6844   0018E4                     __ptext69:
  6845                           	callstack 0
  6846   0018E4                     i2_UART1_Write:
  6847                           	callstack 17
  6848                           
  6849                           ; BSR set to: 61
  6850                           ;incstack = 0
  6851                           ;i2UART1_Write@txData stored from wreg
  6852   0018E4  6E2A               	movwf	i2UART1_Write@txData^0,c
  6853   0018E6                     i2l454:
  6854                           
  6855                           ;mcc_generated_files/uart1.c: 172:     while(0 == PIR3bits.U1TXIF)
  6856   0018E6  0139               	movlb	57	; () banked
  6857   0018E8  A9A3               	btfss	163,4,b	;volatile
  6858   0018EA  EF79  F00C         	goto	i2u121_41
  6859   0018EE  EF7B  F00C         	goto	i2u121_40
  6860   0018F2                     i2u121_41:
  6861   0018F2  EF73  F00C         	goto	i2l454
  6862   0018F6                     i2u121_40:
  6863   0018F6                     
  6864                           ; BSR set to: 57
  6865                           ;mcc_generated_files/uart1.c: 176:     U1TXB = txData;
  6866   0018F6  0060  F0AB  FDEA   	movff	i2UART1_Write@txData,15850	;volatile
  6867   0018FC                     
  6868                           ; BSR set to: 57
  6869   0018FC  0012               	return		;funcret
  6870   0018FE                     __end_ofi2_UART1_Write:
  6871                           	callstack 0
  6872                           
  6873 ;; *************** function i2_init_mdbdata *****************
  6874 ;; Defined at:
  6875 ;;		line 13 in file "mdb.c"
  6876 ;; Parameters:    Size  Location     Type
  6877 ;;  initdata        1    wreg     unsigned char 
  6878 ;; Auto vars:     Size  Location     Type
  6879 ;;  initdata        1    0[COMRAM] unsigned char 
  6880 ;; Return value:  Size  Location     Type
  6881 ;;                  1    wreg      void 
  6882 ;; Registers used:
  6883 ;;		wreg
  6884 ;; Tracked objects:
  6885 ;;		On entry : 0/0
  6886 ;;		On exit  : 0/0
  6887 ;;		Unchanged: 0/0
  6888 ;; Data sizes:     COMRAM   BANK0   BANK1   BANK2   BANK3   BANK4   BANK5   BANK6   BANK7
  6889 ;;      Params:         0       0       0       0       0       0       0       0       0
  6890 ;;      Locals:         1       0       0       0       0       0       0       0       0
  6891 ;;      Temps:          0       0       0       0       0       0       0       0       0
  6892 ;;      Totals:         1       0       0       0       0       0       0       0       0
  6893 ;;Total ram usage:        1 bytes
  6894 ;; Hardware stack levels used: 1
  6895 ;; This function calls:
  6896 ;;		Nothing
  6897 ;; This function is called by:
  6898 ;;		i2_mdb_noten
  6899 ;;		i2_mdb_security
  6900 ;;		i2_mdb_comm
  6901 ;; This function uses a non-reentrant model
  6902 ;;
  6903                           
  6904                           	psect	text70
  6905   001A70                     __ptext70:
  6906                           	callstack 0
  6907   001A70                     i2_init_mdbdata:
  6908                           	callstack 18
  6909                           
  6910                           ; BSR set to: 57
  6911                           ;incstack = 0
  6912                           ;i2init_mdbdata@initdata stored from wreg
  6913   001A70  6E2A               	movwf	i2init_mdbdata@initdata^0,c
  6914   001A72                     
  6915                           ;mdb.c: 13: void init_mdbdata(uint8_t initdata);mdb.c: 14: {;mdb.c: 15:     mdbdata[0] =
      +                           initdata;
  6916   001A72  C02A  F060         	movff	i2init_mdbdata@initdata,_mdbdata
  6917   001A76  0012               	return		;funcret
  6918   001A78                     __end_ofi2_init_mdbdata:
  6919                           	callstack 0
  6920                           
  6921 ;; *************** function i2_UART9_Read *****************
  6922 ;; Defined at:
  6923 ;;		line 409 in file "mdb.c"
  6924 ;; Parameters:    Size  Location     Type
  6925 ;;		None
  6926 ;; Auto vars:     Size  Location     Type
  6927 ;;		None
  6928 ;; Return value:  Size  Location     Type
  6929 ;;                  1    wreg      unsigned char 
  6930 ;; Registers used:
  6931 ;;		wreg, status,2
  6932 ;; Tracked objects:
  6933 ;;		On entry : 0/0
  6934 ;;		On exit  : 0/0
  6935 ;;		Unchanged: 0/0
  6936 ;; Data sizes:     COMRAM   BANK0   BANK1   BANK2   BANK3   BANK4   BANK5   BANK6   BANK7
  6937 ;;      Params:         0       0       0       0       0       0       0       0       0
  6938 ;;      Locals:         0       0       0       0       0       0       0       0       0
  6939 ;;      Temps:          0       0       0       0       0       0       0       0       0
  6940 ;;      Totals:         0       0       0       0       0       0       0       0       0
  6941 ;;Total ram usage:        0 bytes
  6942 ;; Hardware stack levels used: 1
  6943 ;; This function calls:
  6944 ;;		Nothing
  6945 ;; This function is called by:
  6946 ;;		i2_mdb_comm
  6947 ;; This function uses a non-reentrant model
  6948 ;;
  6949                           
  6950                           	psect	text71
  6951   001874                     __ptext71:
  6952                           	callstack 0
  6953   001874                     i2_UART9_Read:
  6954                           	callstack 18
  6955   001874                     i2l1342:
  6956                           
  6957                           ;mdb.c: 411:     while(!PIR3bits.U1RXIF)
  6958   001874  0139               	movlb	57	; () banked
  6959   001876  A7A3               	btfss	163,3,b	;volatile
  6960   001878  EF40  F00C         	goto	i2u123_41
  6961   00187C  EF42  F00C         	goto	i2u123_40
  6962   001880                     i2u123_41:
  6963   001880  EF3A  F00C         	goto	i2l1342
  6964   001884                     i2u123_40:
  6965   001884                     
  6966                           ; BSR set to: 57
  6967                           ;mdb.c: 415:     mdbflags.isdata = U1ERRIRbits.PERIF;
  6968   001884  013D               	movlb	61	; () banked
  6969   001886  ADF9               	btfss	249,6,b	;volatile
  6970   001888  D002               	bra	i2u124_45
  6971   00188A  801D               	bsf	_mdbflags^0,0,c
  6972   00188C  D001               	bra	i2u124_47
  6973   00188E                     i2u124_45:
  6974   00188E  901D               	bcf	_mdbflags^0,0,c
  6975   001890                     i2u124_47:
  6976   001890                     
  6977                           ;mdb.c: 416:     return U1RXB;
  6978   001890  013D               	movlb	61	; () banked
  6979   001892  51E8               	movf	232,w,b	;volatile
  6980   001894                     
  6981                           ; BSR set to: 61
  6982   001894  0012               	return		;funcret
  6983   001896                     __end_ofi2_UART9_Read:
  6984                           	callstack 0
  6985                           
  6986 ;; *************** function i2_UART1_SetAddresstoTransmit *****************
  6987 ;; Defined at:
  6988 ;;		line 179 in file "mcc_generated_files/uart1.c"
  6989 ;; Parameters:    Size  Location     Type
  6990 ;;  txAddress       1    wreg     unsigned char 
  6991 ;; Auto vars:     Size  Location     Type
  6992 ;;  txAddress       1    0[COMRAM] unsigned char 
  6993 ;; Return value:  Size  Location     Type
  6994 ;;                  1    wreg      void 
  6995 ;; Registers used:
  6996 ;;		wreg
  6997 ;; Tracked objects:
  6998 ;;		On entry : 0/0
  6999 ;;		On exit  : 0/0
  7000 ;;		Unchanged: 0/0
  7001 ;; Data sizes:     COMRAM   BANK0   BANK1   BANK2   BANK3   BANK4   BANK5   BANK6   BANK7
  7002 ;;      Params:         0       0       0       0       0       0       0       0       0
  7003 ;;      Locals:         1       0       0       0       0       0       0       0       0
  7004 ;;      Temps:          0       0       0       0       0       0       0       0       0
  7005 ;;      Totals:         1       0       0       0       0       0       0       0       0
  7006 ;;Total ram usage:        1 bytes
  7007 ;; Hardware stack levels used: 1
  7008 ;; This function calls:
  7009 ;;		Nothing
  7010 ;; This function is called by:
  7011 ;;		i2_mdb_comm
  7012 ;; This function uses a non-reentrant model
  7013 ;;
  7014                           
  7015                           	psect	text72
  7016   001A5E                     __ptext72:
  7017                           	callstack 0
  7018   001A5E                     i2_UART1_SetAddresstoTransmit:
  7019                           	callstack 18
  7020                           
  7021                           ; BSR set to: 61
  7022                           ;incstack = 0
  7023                           ;i2UART1_SetAddresstoTransmit@txAddress stored from wreg
  7024   001A5E  6E2A               	movwf	i2UART1_SetAddresstoTransmit@txAddress^0,c
  7025   001A60                     
  7026                           ;mcc_generated_files/uart1.c: 179: void UART1_SetAddresstoTransmit(uint8_t txAddress);mc
      +                          c_generated_files/uart1.c: 180: {;mcc_generated_files/uart1.c: 181:     U1P1L = txAddres
      +                          s;
  7027   001A60  0060  F0AB  FDEC   	movff	i2UART1_SetAddresstoTransmit@txAddress,15852	;volatile
  7028   001A66  0012               	return		;funcret
  7029   001A68                     __end_ofi2_UART1_SetAddresstoTransmit:
  7030                           	callstack 0
  7031                           
  7032 ;; *************** function i2_TMR0_Initialize *****************
  7033 ;; Defined at:
  7034 ;;		line 60 in file "mcc_generated_files/tmr0.c"
  7035 ;; Parameters:    Size  Location     Type
  7036 ;;		None
  7037 ;; Auto vars:     Size  Location     Type
  7038 ;;		None
  7039 ;; Return value:  Size  Location     Type
  7040 ;;                  1    wreg      void 
  7041 ;; Registers used:
  7042 ;;		wreg, status,2
  7043 ;; Tracked objects:
  7044 ;;		On entry : 0/0
  7045 ;;		On exit  : 0/0
  7046 ;;		Unchanged: 0/0
  7047 ;; Data sizes:     COMRAM   BANK0   BANK1   BANK2   BANK3   BANK4   BANK5   BANK6   BANK7
  7048 ;;      Params:         0       0       0       0       0       0       0       0       0
  7049 ;;      Locals:         0       0       0       0       0       0       0       0       0
  7050 ;;      Temps:          0       0       0       0       0       0       0       0       0
  7051 ;;      Totals:         0       0       0       0       0       0       0       0       0
  7052 ;;Total ram usage:        0 bytes
  7053 ;; Hardware stack levels used: 1
  7054 ;; This function calls:
  7055 ;;		Nothing
  7056 ;; This function is called by:
  7057 ;;		i2_mdb_comm
  7058 ;; This function uses a non-reentrant model
  7059 ;;
  7060                           
  7061                           	psect	text73
  7062   00192C                     __ptext73:
  7063                           	callstack 0
  7064   00192C                     i2_TMR0_Initialize:
  7065                           	callstack 18
  7066   00192C                     
  7067                           ;mcc_generated_files/tmr0.c: 65:     T0CON1 = 0x82;
  7068   00192C  0E82               	movlw	130
  7069   00192E  6EB9               	movwf	185,c	;volatile
  7070                           
  7071                           ;mcc_generated_files/tmr0.c: 68:     TMR0H = 0x9A;
  7072   001930  0E9A               	movlw	154
  7073   001932  6EB7               	movwf	183,c	;volatile
  7074                           
  7075                           ;mcc_generated_files/tmr0.c: 71:     TMR0L = 0x00;
  7076   001934  0E00               	movlw	0
  7077   001936  6EB6               	movwf	182,c	;volatile
  7078   001938                     
  7079                           ;mcc_generated_files/tmr0.c: 74:     PIR3bits.TMR0IF = 0;
  7080   001938  0139               	movlb	57	; () banked
  7081   00193A  9FA3               	bcf	163,7,b	;volatile
  7082                           
  7083                           ;mcc_generated_files/tmr0.c: 77:     T0CON0 = 0x80;
  7084   00193C  0E80               	movlw	128
  7085   00193E  6EB8               	movwf	184,c	;volatile
  7086   001940                     
  7087                           ; BSR set to: 57
  7088   001940  0012               	return		;funcret
  7089   001942                     __end_ofi2_TMR0_Initialize:
  7090                           	callstack 0
  7091                           
  7092                           ;
  7093                           ; Interrupt Vector Table @ 0x8
  7094                           ;
  7095                           
  7096                           	psect	ivt0x8
  7097   000008                     __pivt0x8:
  7098                           	callstack 0
  7099   000008                     ivt0x8_base:
  7100                           	callstack 0
  7101                           
  7102                           ; high-priority vector
  7103   000008  EFAF  F00A         	goto	_INTERRUPT_InterruptManager
  7104   000018                     	org	16
  7105                           
  7106                           ; low-priority vector
  7107   000018  00FF               	reset	
  7108                           
  7109                           	psect	text74
  7110   000000                     __ptext74:
  7111                           	callstack 0
  7112   000000                     
  7113                           	psect	rparam
  7114   000000                     
  7115                           	psect	idloc
  7116                           
  7117                           ;Config register IDLOC0 @ 0x200000
  7118                           ;	unspecified, using default values
  7119   200000                     	org	2097152
  7120   200000  0FFF               	dw	4095
  7121                           
  7122                           ;Config register IDLOC1 @ 0x200002
  7123                           ;	unspecified, using default values
  7124   200002                     	org	2097154
  7125   200002  0FFF               	dw	4095
  7126                           
  7127                           ;Config register IDLOC2 @ 0x200004
  7128                           ;	unspecified, using default values
  7129   200004                     	org	2097156
  7130   200004  0FFF               	dw	4095
  7131                           
  7132                           ;Config register IDLOC3 @ 0x200006
  7133                           ;	unspecified, using default values
  7134   200006                     	org	2097158
  7135   200006  0FFF               	dw	4095
  7136                           
  7137                           ;Config register IDLOC4 @ 0x200008
  7138                           ;	unspecified, using default values
  7139   200008                     	org	2097160
  7140   200008  0FFF               	dw	4095
  7141                           
  7142                           ;Config register IDLOC5 @ 0x20000A
  7143                           ;	unspecified, using default values
  7144   20000A                     	org	2097162
  7145   20000A  0FFF               	dw	4095
  7146                           
  7147                           ;Config register IDLOC6 @ 0x20000C
  7148                           ;	unspecified, using default values
  7149   20000C                     	org	2097164
  7150   20000C  0FFF               	dw	4095
  7151                           
  7152                           ;Config register IDLOC7 @ 0x20000E
  7153                           ;	unspecified, using default values
  7154   20000E                     	org	2097166
  7155   20000E  0FFF               	dw	4095
  7156                           
  7157                           	psect	config
  7158                           
  7159                           ;Config register CONFIG1L @ 0x300000
  7160                           ;	External Oscillator Selection
  7161                           ;	FEXTOSC = OFF, Oscillator not enabled
  7162                           ;	Reset Oscillator Selection
  7163                           ;	RSTOSC = HFINTOSC_64MHZ, HFINTOSC with HFFRQ = 64 MHz and CDIV = 1:1
  7164   300000                     	org	3145728
  7165   300000  8C                 	db	140
  7166                           
  7167                           ;Config register CONFIG1H @ 0x300001
  7168                           ;	Clock out Enable bit
  7169                           ;	CLKOUTEN = OFF, CLKOUT function is disabled
  7170                           ;	PRLOCKED One-Way Set Enable bit
  7171                           ;	PR1WAY = OFF, PRLOCK bit can be set and cleared repeatedly
  7172                           ;	Clock Switch Enable bit
  7173                           ;	CSWEN = ON, Writing to NOSC and NDIV is allowed
  7174                           ;	Fail-Safe Clock Monitor Enable bit
  7175                           ;	FCMEN = ON, Fail-Safe Clock Monitor enabled
  7176   300001                     	org	3145729
  7177   300001  FD                 	db	253
  7178                           
  7179                           ;Config register CONFIG2L @ 0x300002
  7180                           ;	MCLR Enable bit
  7181                           ;	MCLRE = EXTMCLR, If LVP = 0, MCLR pin is MCLR; If LVP = 1, RE3 pin function is MCLR
  7182                           ;	Power-up timer selection bits
  7183                           ;	PWRTS = PWRT_OFF, PWRT is disabled
  7184                           ;	Multi-vector enable bit
  7185                           ;	MVECEN = OFF, Interrupt contoller does not use vector table to prioritze interrupts
  7186                           ;	IVTLOCK bit One-way set enable bit
  7187                           ;	IVT1WAY = OFF, IVTLOCK bit can be cleared and set repeatedly
  7188                           ;	Low Power BOR Enable bit
  7189                           ;	LPBOREN = OFF, ULPBOR disabled
  7190                           ;	Brown-out Reset Enable bits
  7191                           ;	BOREN = NOSLP, Brown-out Reset enabled while running, disabled in Sleep; SBOREN is ign
      +                          ored
  7192   300002                     	org	3145730
  7193   300002  A7                 	db	167
  7194                           
  7195                           ;Config register CONFIG2H @ 0x300003
  7196                           ;	Brown-out Reset Voltage Selection bits
  7197                           ;	BORV = VBOR_2P85, Brown-out Reset Voltage (VBOR) set to 2.8V
  7198                           ;	ZCD Disable bit
  7199                           ;	ZCD = OFF, ZCD disabled. ZCD can be enabled by setting the ZCDSEN bit of ZCDCON
  7200                           ;	PPSLOCK bit One-Way Set Enable bit
  7201                           ;	PPS1WAY = OFF, PPSLOCK bit can be set and cleared repeatedly (subject to the unlock se
      +                          quence)
  7202                           ;	Stack Full/Underflow Reset Enable bit
  7203                           ;	STVREN = ON, Stack full/underflow will cause Reset
  7204                           ;	Debugger Enable bit
  7205                           ;	DEBUG = OFF, Background debugger disabled
  7206                           ;	Extended Instruction Set Enable bit
  7207                           ;	XINST = OFF, Extended Instruction Set and Indexed Addressing Mode disabled
  7208   300003                     	org	3145731
  7209   300003  F4                 	db	244
  7210                           
  7211                           ;Config register CONFIG3L @ 0x300004
  7212                           ;	WDT Period selection bits
  7213                           ;	WDTCPS = WDTCPS_31, Divider ratio 1:65536; software control of WDTPS
  7214                           ;	WDT operating mode
  7215                           ;	WDTE = OFF, WDT Disabled; SWDTEN is ignored
  7216   300004                     	org	3145732
  7217   300004  9F                 	db	159
  7218                           
  7219                           ;Config register CONFIG3H @ 0x300005
  7220                           ;	WDT Window Select bits
  7221                           ;	WDTCWS = WDTCWS_7, window always open (100%); software control; keyed access not requi
      +                          red
  7222                           ;	WDT input clock selector
  7223                           ;	WDTCCS = SC, Software Control
  7224   300005                     	org	3145733
  7225   300005  FF                 	db	255
  7226                           
  7227                           ;Config register CONFIG4L @ 0x300006
  7228                           ;	Boot Block Size selection bits
  7229                           ;	BBSIZE = BBSIZE_512, Boot Block size is 512 words
  7230                           ;	Boot Block enable bit
  7231                           ;	BBEN = OFF, Boot block disabled
  7232                           ;	Storage Area Flash enable bit
  7233                           ;	SAFEN = OFF, SAF disabled
  7234                           ;	Application Block write protection bit
  7235                           ;	WRTAPP = OFF, Application Block not write protected
  7236   300006                     	org	3145734
  7237   300006  FF                 	db	255
  7238                           
  7239                           ;Config register CONFIG4H @ 0x300007
  7240                           ;	Boot Block Write Protection bit
  7241                           ;	WRTB = OFF, Boot Block not write-protected
  7242                           ;	Configuration Register Write Protection bit
  7243                           ;	WRTC = OFF, Configuration registers not write-protected
  7244                           ;	Data EEPROM Write Protection bit
  7245                           ;	WRTD = OFF, Data EEPROM not write-protected
  7246                           ;	SAF Write protection bit
  7247                           ;	WRTSAF = OFF, SAF not Write Protected
  7248                           ;	Low Voltage Programming Enable bit
  7249                           ;	LVP = ON, Low voltage programming enabled. MCLR/VPP pin function is MCLR. MCLRE config
      +                          uration bit is ignored
  7250   300007                     	org	3145735
  7251   300007  FF                 	db	255
  7252                           
  7253                           ;Config register CONFIG5L @ 0x300008
  7254                           ;	PFM and Data EEPROM Code Protection bit
  7255                           ;	CP = OFF, PFM and Data EEPROM code protection disabled
  7256   300008                     	org	3145736
  7257   300008  FF                 	db	255
  7258                           
  7259                           ;Config register CONFIG5H @ 0x300009
  7260                           ;	unspecified, using default values
  7261   300009                     	org	3145737
  7262   300009  FF                 	db	255
  7263                           tosu	equ	0x3FFF
  7264                           tosh	equ	0x3FFE
  7265                           tosl	equ	0x3FFD
  7266                           stkptr	equ	0x3FFC
  7267                           pclatu	equ	0x3FFB
  7268                           pclath	equ	0x3FFA
  7269                           pcl	equ	0x3FF9
  7270                           tblptru	equ	0x3FF8
  7271                           tblptrh	equ	0x3FF7
  7272                           tblptrl	equ	0x3FF6
  7273                           tablat	equ	0x3FF5
  7274                           prodh	equ	0x3FF4
  7275                           prodl	equ	0x3FF3
  7276                           indf0	equ	0x3FEF
  7277                           postinc0	equ	0x3FEE
  7278                           postdec0	equ	0x3FED
  7279                           preinc0	equ	0x3FEC
  7280                           plusw0	equ	0x3FEB
  7281                           fsr0h	equ	0x3FEA
  7282                           fsr0l	equ	0x3FE9
  7283                           wreg	equ	0x3FE8
  7284                           indf1	equ	0x3FE7
  7285                           postinc1	equ	0x3FE6
  7286                           postdec1	equ	0x3FE5
  7287                           preinc1	equ	0x3FE4
  7288                           plusw1	equ	0x3FE3
  7289                           fsr1h	equ	0x3FE2
  7290                           fsr1l	equ	0x3FE1
  7291                           bsr	equ	0x3FE0
  7292                           indf2	equ	0x3FDF
  7293                           postinc2	equ	0x3FDE
  7294                           postdec2	equ	0x3FDD
  7295                           preinc2	equ	0x3FDC
  7296                           plusw2	equ	0x3FDB
  7297                           fsr2h	equ	0x3FDA
  7298                           fsr2l	equ	0x3FD9
  7299                           status	equ	0x3FD8

Data Sizes:
    Strings     0
    Constant    44
    Data        1
    BSS         74
    Persistent  0
    Stack       0

Auto Spaces:
    Space          Size  Autos    Used
    COMRAM           95     30      72
    BANK0           160      0      33
    BANK1           256      0       0
    BANK2           256      0       0
    BANK3           256      0       0
    BANK4           256      0       0
    BANK5           256      0       0
    BANK6           256      0       0
    BANK7           256      0       0

Pointer List with Targets:

    Set_Timeout@timeval	PTR unsigned char  size(2) Largest target is 2
		 -> timeout(COMRAM[2]), 

    vend_init@timeval	PTR unsigned char  size(2) Largest target is 2
		 -> timeout(COMRAM[2]), 

    TMR2_SetInterruptHandler@InterruptHandler	PTR FTN()void  size(2) Largest target is 1
		 -> InterruptTMR2(), TMR2_DefaultInterruptHandler(), 

    TMR2_InterruptHandler	PTR FTN()void  size(2) Largest target is 1
		 -> InterruptTMR2(), Absolute function(), TMR2_DefaultInterruptHandler(), 

    UART2_SetErrorHandler@interruptHandler	PTR FTN()void  size(2) Largest target is 1
		 -> UART2_DefaultErrorHandler(), 

    UART2_SetOverrunErrorHandler@interruptHandler	PTR FTN()void  size(2) Largest target is 1
		 -> UART2_DefaultOverrunErrorHandler(), 

    UART2_SetFramingErrorHandler@interruptHandler	PTR FTN()void  size(2) Largest target is 1
		 -> UART2_DefaultFramingErrorHandler(), 

    UART2_ErrorHandler	PTR FTN()void  size(2) Largest target is 1
		 -> Absolute function(), UART2_DefaultErrorHandler(), 

    UART2_OverrunErrorHandler	PTR FTN()void  size(2) Largest target is 1
		 -> Absolute function(), UART2_DefaultOverrunErrorHandler(), 

    UART2_FramingErrorHandler	PTR FTN()void  size(2) Largest target is 1
		 -> Absolute function(), UART2_DefaultFramingErrorHandler(), 

    UART1_SetErrorHandler@interruptHandler	PTR FTN()void  size(2) Largest target is 1
		 -> UART1_DefaultErrorHandler(), 

    UART1_SetOverrunErrorHandler@interruptHandler	PTR FTN()void  size(2) Largest target is 1
		 -> UART1_DefaultOverrunErrorHandler(), 

    UART1_SetFramingErrorHandler@interruptHandler	PTR FTN()void  size(2) Largest target is 1
		 -> UART1_DefaultFramingErrorHandler(), 

    UART1_ErrorHandler	PTR FTN()void  size(2) Largest target is 1
		 -> Absolute function(), UART1_DefaultErrorHandler(), 

    UART1_OverrunErrorHandler	PTR FTN()void  size(2) Largest target is 1
		 -> Absolute function(), UART1_DefaultOverrunErrorHandler(), 

    UART1_FramingErrorHandler	PTR FTN()void  size(2) Largest target is 1
		 -> Absolute function(), UART1_DefaultFramingErrorHandler(), 


Critical Paths under _main in COMRAM

    _main->_enter_service
    _vend_init->_DATAEE_ReadByte
    _mdb_init->_mdb_reset
    _mdb_security->_mdb_comm
    _mdb_reset->_mdb_comm
    _mdb_noten->_mdb_comm
    _mdb_comm->_mdb_transmit
    _mdb_transmit->_UART1_Write
    _enter_service->_Set_Timeout
    _button_flash->_TMR3_Initialize
    _Set_Timeout->_TMR1_ReadTimer
    _dispense->_credit_subtract
    _credit_subtract->_DATAEE_WriteByte
    _coin_in->_credit_add
    _credit_check->_DATAEE_ReadByte
    _credit_add->_DATAEE_WriteByte
    _SYSTEM_Initialize->_TMR1_Initialize
    _SYSTEM_Initialize->_TMR3_Initialize
    _SYSTEM_Initialize->_TMR5_Initialize
    _UART2_Initialize->_UART2_SetErrorHandler
    _UART2_Initialize->_UART2_SetFramingErrorHandler
    _UART2_Initialize->_UART2_SetOverrunErrorHandler
    _UART1_Initialize->_UART1_SetErrorHandler
    _UART1_Initialize->_UART1_SetFramingErrorHandler
    _UART1_Initialize->_UART1_SetOverrunErrorHandler
    _TMR2_Initialize->_TMR2_SetInterruptHandler

Critical Paths under _INTERRUPT_InterruptManager in COMRAM

    _InterruptTMR2->_poll_mdb
    i2_TMR2_Initialize->i2_TMR2_SetInterruptHandler
    _poll_mdb->i2_mdb_init
    i2_mdb_init->i2_mdb_reset
    i2_mdb_security->i2_mdb_comm
    i2_mdb_reset->i2_mdb_comm
    i2_mdb_noten->i2_mdb_comm
    i2_credit_add->i2_DATAEE_WriteByte
    _mdb_poll->i2_mdb_comm
    i2_mdb_comm->i2_mdb_transmit
    i2_mdb_transmit->i2_UART1_Write

Critical Paths under _main in BANK0

    None.

Critical Paths under _INTERRUPT_InterruptManager in BANK0

    None.

Critical Paths under _main in BANK1

    None.

Critical Paths under _INTERRUPT_InterruptManager in BANK1

    None.

Critical Paths under _main in BANK2

    None.

Critical Paths under _INTERRUPT_InterruptManager in BANK2

    None.

Critical Paths under _main in BANK3

    None.

Critical Paths under _INTERRUPT_InterruptManager in BANK3

    None.

Critical Paths under _main in BANK4

    None.

Critical Paths under _INTERRUPT_InterruptManager in BANK4

    None.

Critical Paths under _main in BANK5

    None.

Critical Paths under _INTERRUPT_InterruptManager in BANK5

    None.

Critical Paths under _main in BANK6

    None.

Critical Paths under _INTERRUPT_InterruptManager in BANK6

    None.

Critical Paths under _main in BANK7

    None.

Critical Paths under _INTERRUPT_InterruptManager in BANK7

    None.

Call Graph Tables:

 ---------------------------------------------------------------------------------
 (Depth) Function   	        Calls       Base Space   Used Autos Params    Refs
 ---------------------------------------------------------------------------------
 (0) _main                                                 3     3      0   10366
                                             27 COMRAM     3     3      0
                   _DATAEE_WriteByte
                  _SYSTEM_Initialize
           _TMR2_SetInterruptHandler
                       _button_flash
                            _coin_in
                       _credit_check
                           _dispense
                      _enter_service
                           _mdb_init
                          _vend_init
 ---------------------------------------------------------------------------------
 (1) _vend_init                                            4     4      0      45
                                             14 COMRAM     4     4      0
                    _DATAEE_ReadByte
 ---------------------------------------------------------------------------------
 (1) _mdb_init                                             3     3      0    3463
                                             20 COMRAM     2     2      0
                    _DATAEE_ReadByte
                           _mdb_comm
                          _mdb_noten
                          _mdb_reset
                       _mdb_security
 ---------------------------------------------------------------------------------
 (2) _mdb_security                                         0     0      0     865
                       _init_mdbdata
                           _mdb_comm
 ---------------------------------------------------------------------------------
 (2) _mdb_reset                                            3     3      0     874
                                             18 COMRAM     2     2      0
                           _mdb_comm
 ---------------------------------------------------------------------------------
 (2) _mdb_noten                                            0     0      0     865
                       _init_mdbdata
                           _mdb_comm
 ---------------------------------------------------------------------------------
 (3) _mdb_comm                                             3     2      1     843
                                             15 COMRAM     3     2      1
                    _TMR0_Initialize
         _UART1_SetAddresstoTransmit
                         _UART9_Read
                       _init_mdbdata
                       _mdb_transmit
                          _mdb_waitr
 ---------------------------------------------------------------------------------
 (4) _mdb_waitr                                            0     0      0       0
 ---------------------------------------------------------------------------------
 (4) _mdb_transmit                                         1     1      0      44
                                             14 COMRAM     1     1      0
                        _UART1_Write
                          _mdb_waitx
 ---------------------------------------------------------------------------------
 (5) _mdb_waitx                                            0     0      0       0
 ---------------------------------------------------------------------------------
 (5) _UART1_Write                                          1     1      0      22
                                             13 COMRAM     1     1      0
 ---------------------------------------------------------------------------------
 (4) _init_mdbdata                                         1     1      0      22
                                             13 COMRAM     1     1      0
 ---------------------------------------------------------------------------------
 (4) _UART9_Read                                           0     0      0       0
 ---------------------------------------------------------------------------------
 (4) _UART1_SetAddresstoTransmit                           1     1      0      22
                                             13 COMRAM     1     1      0
 ---------------------------------------------------------------------------------
 (1) _enter_service                                        2     2      0    1966
                                             25 COMRAM     2     2      0
                   _DATAEE_WriteByte
                        _Set_Timeout
                       _button_flash
                        _switch_read
 ---------------------------------------------------------------------------------
 (2) _button_flash                                         1     1      0       0
                                             15 COMRAM     1     1      0
                    _TMR3_Initialize
 ---------------------------------------------------------------------------------
 (2) _Set_Timeout                                          4     4      0    1063
                                             21 COMRAM     4     4      0
                   _DATAEE_WriteByte
                    _TMR1_Initialize
                     _TMR1_ReadTimer
                     _TMR1_StopTimer
 ---------------------------------------------------------------------------------
 (3) _TMR1_ReadTimer                                       8     6      2      69
                                             13 COMRAM     8     6      2
 ---------------------------------------------------------------------------------
 (1) _dispense                                             0     0      0    2083
                   _DATAEE_WriteByte
                    _TMR1_Initialize
                    _TMR1_StartTimer
                     _TMR1_StopTimer
                    _TMR1_WriteTimer
                    _credit_subtract
 ---------------------------------------------------------------------------------
 (2) _credit_subtract                                      1     1      0     940
                                             16 COMRAM     1     1      0
                    _DATAEE_ReadByte
                   _DATAEE_WriteByte
 ---------------------------------------------------------------------------------
 (2) _TMR1_WriteTimer                                      2     0      2     240
                                             13 COMRAM     2     0      2
 ---------------------------------------------------------------------------------
 (3) _TMR1_StopTimer                                       0     0      0       0
 ---------------------------------------------------------------------------------
 (2) _TMR1_StartTimer                                      0     0      0       0
 ---------------------------------------------------------------------------------
 (1) _coin_in                                              1     1      0     955
                                             17 COMRAM     1     1      0
                    _TMR5_Initialize
                         _credit_add
                       _credit_check
                        _switch_read
 ---------------------------------------------------------------------------------
 (2) _switch_read                                          1     1      0       0
                                             13 COMRAM     1     1      0
 ---------------------------------------------------------------------------------
 (1) _credit_check                                         0     0      0      15
                    _DATAEE_ReadByte
 ---------------------------------------------------------------------------------
 (2) _credit_add                                           1     1      0     940
                                             16 COMRAM     1     1      0
                    _DATAEE_ReadByte
                   _DATAEE_WriteByte
 ---------------------------------------------------------------------------------
 (3) _DATAEE_WriteByte                                     3     2      1     903
                                             13 COMRAM     3     2      1
 ---------------------------------------------------------------------------------
 (2) _DATAEE_ReadByte                                      1     1      0      15
                                             13 COMRAM     1     1      0
 ---------------------------------------------------------------------------------
 (1) _SYSTEM_Initialize                                    0     0      0     762
                    _CMP1_Initialize
                    _DAC1_Initialize
               _INTERRUPT_Initialize
              _OSCILLATOR_Initialize
             _PIN_MANAGER_Initialize
                     _PMD_Initialize
                    _TMR0_Initialize
                    _TMR1_Initialize
                    _TMR2_Initialize
                    _TMR3_Initialize
                    _TMR5_Initialize
                   _UART1_Initialize
                   _UART2_Initialize
 ---------------------------------------------------------------------------------
 (2) _UART2_Initialize                                     0     0      0     294
              _UART2_SetErrorHandler
       _UART2_SetFramingErrorHandler
       _UART2_SetOverrunErrorHandler
 ---------------------------------------------------------------------------------
 (3) _UART2_SetOverrunErrorHandler                         2     0      2      98
                                             13 COMRAM     2     0      2
 ---------------------------------------------------------------------------------
 (3) _UART2_SetFramingErrorHandler                         2     0      2      98
                                             13 COMRAM     2     0      2
 ---------------------------------------------------------------------------------
 (3) _UART2_SetErrorHandler                                2     0      2      98
                                             13 COMRAM     2     0      2
 ---------------------------------------------------------------------------------
 (2) _UART1_Initialize                                     0     0      0     294
              _UART1_SetErrorHandler
       _UART1_SetFramingErrorHandler
       _UART1_SetOverrunErrorHandler
 ---------------------------------------------------------------------------------
 (3) _UART1_SetOverrunErrorHandler                         2     0      2      98
                                             13 COMRAM     2     0      2
 ---------------------------------------------------------------------------------
 (3) _UART1_SetFramingErrorHandler                         2     0      2      98
                                             13 COMRAM     2     0      2
 ---------------------------------------------------------------------------------
 (3) _UART1_SetErrorHandler                                2     0      2      98
                                             13 COMRAM     2     0      2
 ---------------------------------------------------------------------------------
 (2) _TMR5_Initialize                                      2     2      0       0
                                             13 COMRAM     2     2      0
 ---------------------------------------------------------------------------------
 (3) _TMR3_Initialize                                      2     2      0       0
                                             13 COMRAM     2     2      0
 ---------------------------------------------------------------------------------
 (2) _TMR2_Initialize                                      0     0      0     174
           _TMR2_SetInterruptHandler
 ---------------------------------------------------------------------------------
 (1) _TMR2_SetInterruptHandler                             2     0      2     174
                                             13 COMRAM     2     0      2
 ---------------------------------------------------------------------------------
 (3) _TMR1_Initialize                                      2     2      0       0
                                             13 COMRAM     2     2      0
 ---------------------------------------------------------------------------------
 (4) _TMR0_Initialize                                      0     0      0       0
 ---------------------------------------------------------------------------------
 (2) _PMD_Initialize                                       0     0      0       0
 ---------------------------------------------------------------------------------
 (2) _PIN_MANAGER_Initialize                               0     0      0       0
 ---------------------------------------------------------------------------------
 (2) _OSCILLATOR_Initialize                                0     0      0       0
 ---------------------------------------------------------------------------------
 (2) _INTERRUPT_Initialize                                 0     0      0       0
 ---------------------------------------------------------------------------------
 (2) _DAC1_Initialize                                      0     0      0       0
 ---------------------------------------------------------------------------------
 (2) _CMP1_Initialize                                      0     0      0       0
 ---------------------------------------------------------------------------------
 Estimated maximum stack depth 5
 ---------------------------------------------------------------------------------
 (Depth) Function   	        Calls       Base Space   Used Autos Params    Refs
 ---------------------------------------------------------------------------------
 (6) _INTERRUPT_InterruptManager                           2     2      0    2879
                                             11 COMRAM     2     2      0
                           _TMR2_ISR
 ---------------------------------------------------------------------------------
 (7) _TMR2_ISR                                             0     0      0    2879
                   Absolute function *
                      _InterruptTMR2 *
       _TMR2_DefaultInterruptHandler *
 ---------------------------------------------------------------------------------
 (8) _TMR2_DefaultInterruptHandler                         0     0      0       0
 ---------------------------------------------------------------------------------
 (8) _InterruptTMR2                                        0     0      0    2879
                           _poll_mdb
                  i2_TMR2_Initialize
 ---------------------------------------------------------------------------------
 (9) i2_TMR2_Initialize                                    0     0      0      48
         i2_TMR2_SetInterruptHandler
 ---------------------------------------------------------------------------------
 (10) i2_TMR2_SetInterruptHandler                          2     0      2      48
                                              0 COMRAM     2     0      2
 ---------------------------------------------------------------------------------
 (9) _poll_mdb                                             2     2      0    2831
                                              9 COMRAM     2     2      0
                           _mdb_poll
                       i2_credit_add
                         i2_mdb_init
 ---------------------------------------------------------------------------------
 (10) i2_mdb_init                                          3     3      0    2174
                                              7 COMRAM     2     2      0
                  i2_DATAEE_ReadByte
                         i2_mdb_comm
                        i2_mdb_noten
                        i2_mdb_reset
                     i2_mdb_security
 ---------------------------------------------------------------------------------
 (11) i2_mdb_security                                      0     0      0     541
                     i2_init_mdbdata
                         i2_mdb_comm
 ---------------------------------------------------------------------------------
 (11) i2_mdb_reset                                         3     3      0     550
                                              5 COMRAM     2     2      0
                         i2_mdb_comm
 ---------------------------------------------------------------------------------
 (11) i2_mdb_noten                                         0     0      0     541
                     i2_init_mdbdata
                         i2_mdb_comm
 ---------------------------------------------------------------------------------
 (10) i2_credit_add                                        1     1      0     137
                                              3 COMRAM     1     1      0
                  i2_DATAEE_ReadByte
                 i2_DATAEE_WriteByte
 ---------------------------------------------------------------------------------
 (11) i2_DATAEE_WriteByte                                  3     2      1      93
                                              0 COMRAM     3     2      1
 ---------------------------------------------------------------------------------
 (11) i2_DATAEE_ReadByte                                   1     1      0      22
                                              0 COMRAM     1     1      0
 ---------------------------------------------------------------------------------
 (10) _mdb_poll                                            3     3      0     520
                                              5 COMRAM     2     2      0
                         i2_mdb_comm
 ---------------------------------------------------------------------------------
 (12) i2_mdb_comm                                          3     2      1     519
                                              2 COMRAM     3     2      1
                  i2_TMR0_Initialize
       i2_UART1_SetAddresstoTransmit
                       i2_UART9_Read
                     i2_init_mdbdata
                     i2_mdb_transmit
                        i2_mdb_waitr
 ---------------------------------------------------------------------------------
 (13) i2_mdb_waitr                                         0     0      0       0
 ---------------------------------------------------------------------------------
 (13) i2_mdb_transmit                                      1     1      0      44
                                              1 COMRAM     1     1      0
                      i2_UART1_Write
                        i2_mdb_waitx
 ---------------------------------------------------------------------------------
 (14) i2_mdb_waitx                                         0     0      0       0
 ---------------------------------------------------------------------------------
 (14) i2_UART1_Write                                       1     1      0      22
                                              0 COMRAM     1     1      0
 ---------------------------------------------------------------------------------
 (13) i2_init_mdbdata                                      1     1      0      22
                                              0 COMRAM     1     1      0
 ---------------------------------------------------------------------------------
 (13) i2_UART9_Read                                        0     0      0       0
 ---------------------------------------------------------------------------------
 (13) i2_UART1_SetAddresstoTransmit                        1     1      0      22
                                              0 COMRAM     1     1      0
 ---------------------------------------------------------------------------------
 (13) i2_TMR0_Initialize                                   0     0      0       0
 ---------------------------------------------------------------------------------
 (8) Absolute function(Fake)                               0     0      0       0
 ---------------------------------------------------------------------------------
 Estimated maximum stack depth 14
 ---------------------------------------------------------------------------------

 Call Graph Graphs:

 _main (ROOT)
   _DATAEE_WriteByte
   _SYSTEM_Initialize
     _CMP1_Initialize
     _DAC1_Initialize
     _INTERRUPT_Initialize
     _OSCILLATOR_Initialize
     _PIN_MANAGER_Initialize
     _PMD_Initialize
     _TMR0_Initialize
     _TMR1_Initialize
     _TMR2_Initialize
       _TMR2_SetInterruptHandler
     _TMR3_Initialize
     _TMR5_Initialize
     _UART1_Initialize
       _UART1_SetErrorHandler
       _UART1_SetFramingErrorHandler
       _UART1_SetOverrunErrorHandler
     _UART2_Initialize
       _UART2_SetErrorHandler
       _UART2_SetFramingErrorHandler
       _UART2_SetOverrunErrorHandler
   _TMR2_SetInterruptHandler
   _button_flash
     _TMR3_Initialize
   _coin_in
     _TMR5_Initialize
     _credit_add
       _DATAEE_ReadByte
       _DATAEE_WriteByte
     _credit_check
       _DATAEE_ReadByte
     _switch_read
   _credit_check
   _dispense
     _DATAEE_WriteByte
     _TMR1_Initialize
     _TMR1_StartTimer
     _TMR1_StopTimer
     _TMR1_WriteTimer
     _credit_subtract
       _DATAEE_ReadByte
       _DATAEE_WriteByte
   _enter_service
     _DATAEE_WriteByte
     _Set_Timeout
       _DATAEE_WriteByte
       _TMR1_Initialize
       _TMR1_ReadTimer
       _TMR1_StopTimer
     _button_flash
     _switch_read
   _mdb_init
     _DATAEE_ReadByte
     _mdb_comm
       _TMR0_Initialize
       _UART1_SetAddresstoTransmit
       _UART9_Read
       _init_mdbdata
       _mdb_transmit
         _UART1_Write
         _mdb_waitx
       _mdb_waitr
     _mdb_noten
       _init_mdbdata
       _mdb_comm
     _mdb_reset
       _mdb_comm
     _mdb_security
       _init_mdbdata
       _mdb_comm
   _vend_init
     _DATAEE_ReadByte

 _INTERRUPT_InterruptManager (ROOT)
   _TMR2_ISR
     Absolute function(Fake) *
     _InterruptTMR2 *
       _poll_mdb
         _mdb_poll
           i2_mdb_comm
             i2_TMR0_Initialize
             i2_UART1_SetAddresstoTransmit
             i2_UART9_Read
             i2_init_mdbdata
             i2_mdb_transmit
               i2_UART1_Write
               i2_mdb_waitx
             i2_mdb_waitr
         i2_credit_add
           i2_DATAEE_ReadByte
           i2_DATAEE_WriteByte
         i2_mdb_init
           i2_DATAEE_ReadByte
           i2_mdb_comm
           i2_mdb_noten
             i2_init_mdbdata
             i2_mdb_comm
           i2_mdb_reset
             i2_mdb_comm
           i2_mdb_security
             i2_init_mdbdata
             i2_mdb_comm
       i2_TMR2_Initialize
         i2_TMR2_SetInterruptHandler
     _TMR2_DefaultInterruptHandler *

 Address spaces:
Name               Size   Autos  Total    Cost      Usage
BIGRAM             7FF      0       0      63        0.0%
BITBIGSFRllhhhh    2E7      0       0      39        0.0%
BITBIGSFRllllll    194      0       0      61        0.0%
EEDATA             100      0       0       0        0.0%
BITBANK7           100      0       0      18        0.0%
BANK7              100      0       0      19        0.0%
BITBANK6           100      0       0      16        0.0%
BANK6              100      0       0      17        0.0%
BITBANK5           100      0       0      14        0.0%
BANK5              100      0       0      15        0.0%
BITBANK4           100      0       0      12        0.0%
BANK4              100      0       0      13        0.0%
BITBANK3           100      0       0      10        0.0%
BANK3              100      0       0      11        0.0%
BITBANK2           100      0       0       8        0.0%
BANK2              100      0       0       9        0.0%
BITBANK1           100      0       0       6        0.0%
BANK1              100      0       0       7        0.0%
BITBIGSFRhlhlll     D7      0       0      27        0.0%
BITBIGSFRllhhhh     A1      0       0      30        0.0%
BITBANK0            A0      0       0       4        0.0%
BANK0               A0      0      21       5       20.6%
BITBIGSFRllhhhl     60      0       0      41        0.0%
BITCOMRAM           5F      0       0       0        0.0%
COMRAM              5F     1E      48       1       75.8%
BITBIGSFRlllllh     2E      0       0      48        0.0%
BITBIGSFRllllll     22      0       0      50        0.0%
BITBIGSFRhhhlhl     1D      0       0      22        0.0%
BITBIGSFRhll        1D      0       0      28        0.0%
BITBIGSFRllllll     17      0       0      56        0.0%
BITBIGSFRllhlh      15      0       0      43        0.0%
BITBIGSFRllllll     11      0       0      55        0.0%
BITBIGSFRllllll      B      0       0      60        0.0%
BITBIGSFRllllh       B      0       0      47        0.0%
BITBIGSFRhhhllh      7      0       0      23        0.0%
BITBIGSFRhhhh        7      0       0      20        0.0%
BITBIGSFRlllllh      7      0       0      49        0.0%
BITBIGSFRhlhlll      6      0       0      26        0.0%
BITBIGSFRllhhhh      5      0       0      33        0.0%
BITBIGSFRlllhl       5      0       0      46        0.0%
BITBIGSFRllhll       5      0       0      44        0.0%
BITBIGSFRhhhlll      5      0       0      24        0.0%
BITBIGSFRhhl         5      0       0      25        0.0%
BITBIGSFRlllhh       4      0       0      45        0.0%
BITBIGSFRhhhlhh      3      0       0      21        0.0%
BITBIGSFRllllll      2      0       0      59        0.0%
BITBIGSFRllllll      2      0       0      52        0.0%
BITBIGSFRllhhhl      2      0       0      40        0.0%
BITBIGSFRllhhl       2      0       0      42        0.0%
BITBIGSFRllhhhh      1      0       0      37        0.0%
BITBIGSFRllhhhh      1      0       0      38        0.0%
BITBIGSFRllhhhh      1      0       0      34        0.0%
BITBIGSFRllhhhh      1      0       0      35        0.0%
BITBIGSFRllhhhh      1      0       0      36        0.0%
BITBIGSFRllhhhh      1      0       0      31        0.0%
BITBIGSFRllhhhh      1      0       0      32        0.0%
BITBIGSFRllllll      1      0       0      57        0.0%
BITBIGSFRllllll      1      0       0      58        0.0%
BITBIGSFRllllll      1      0       0      53        0.0%
BITBIGSFRllllll      1      0       0      54        0.0%
BITBIGSFRllllll      1      0       0      51        0.0%
BITBIGSFRlh          1      0       0      29        0.0%
BIGSFR               0      0       0     200        0.0%
BITSFR_8             0      0       0     200        0.0%
SFR_8                0      0       0     200        0.0%
BITSFR_7             0      0       0     200        0.0%
SFR_7                0      0       0     200        0.0%
BITSFR_6             0      0       0     200        0.0%
SFR_6                0      0       0     200        0.0%
BITSFR_5             0      0       0     200        0.0%
SFR_5                0      0       0     200        0.0%
BITSFR_4             0      0       0     200        0.0%
SFR_4                0      0       0     200        0.0%
BITSFR_3             0      0       0     200        0.0%
SFR_3                0      0       0     200        0.0%
BITSFR_2             0      0       0     200        0.0%
SFR_2                0      0       0     200        0.0%
BITSFR_1             0      0       0     200        0.0%
SFR_1                0      0       0     200        0.0%
BITSFR               0      0       0     200        0.0%
SFR                  0      0       0     200        0.0%
STACK                0      0       0       2        0.0%
NULL                 0      0       0       0        0.0%
ABS                  0      0      69      62        0.0%
DATA                 0      0      69       3        0.0%
CODE                 0      0       0       0        0.0%


Microchip Technology PIC18 Macro Assembler V2.40 build 20220703182018 
Symbol Table                                                                                   Sun Aug 21 17:17:31 2022

            __end_of_TMR2_SetInterruptHandler 1A54                                             l7 1A02  
                           ??_CMP1_Initialize 0037                                            l94 1954  
                                          l78 1180                         __end_ofi2_UART1_Write 18FE  
                             _DAC1_Initialize 19F8                                           l212 15CE  
                                         l150 1440                                           l215 1914  
                                         l151 144C                                           l241 1670  
                                         l218 1850                                           l154 18C8  
                                         l250 182C                                           l148 1432  
                                         l244 1A7E                                           l247 1A7A  
                                         l255 1784                                           l290 163A  
                                         l339 1604                                           l428 125A  
                                         l460 1A0C                                           l454 1898  
                                         l535 12B6                                           l472 1A3E  
                                         l457 18AE                                           l650 17B0  
                                         l707 1A82                                           l475 1A34  
                                         l900 09B4                                           l478 1A48  
                                         l582 1A2A                                           l902 09B6  
                                         l576 1A20                                           l579 1A16  
                                         l597 192A                                           l693 1A52  
                                         l880 08D8                                           l890 0934  
                                         l891 0932                                           l885 08F6  
                                         l894 0958                                           l886 091E  
                                         l878 08D6                                           l895 0976  
                                         l896 0978                                           l888 092C  
                                         l897 098A                                           l899 09B8  
                                         l996 100A                                           l999 107E  
                                         u500 10C2                                           u501 10BE  
                                         u510 10D0                                           _PR2 003FAB  
                                         u511 10CC                                           u520 1100  
                                         u521 10FC                                           u450 1376  
                                         u451 1372                                           u460 138E  
                                         u461 138A                                           u470 139E  
                                         u630 107E                                           u471 1398  
                                         u631 107A                                           u480 109C  
                                         u481 1096                                           u490 10B0  
                                         u482 109E                                           u491 10AA  
                                         u492 10B2                                           u476 13A0  
                             _timer1ReloadVal 0017                               _TMR2_Initialize 1786  
                                         tosl 003FFD                                           wreg 003FE8  
                              ??_credit_check 0038                                 ?_mdb_security 002A  
                                        l1000 1080                                          l1002 1086  
                                        l1003 1088                                          l1012 1404  
                                        l1004 108A                                          l1021 16FE  
                                        l1014 1406                                          l1030 11A8  
                                        l1007 13EC                                          l1032 11A6  
                                        l1017 19F6                                          l1025 16D0  
                                        l1041 11F2                                          l1051 13B6  
                                        l1028 1182                                          l1037 11C8  
                                        l1038 11CA                                          l1062 0E76  
                                        l1080 0F08                                          l1072 0EEC  
                                        l1056 0E2E                                          l1090 110C  
                                        l1242 1A6E                                          l1330 0CCA  
                                        l1314 0C02                                          l1250 12D6  
                                        l1083 0F7A                                          l1075 0F6A  
                                        l1068 0EBA                                          l1252 130E  
                                        l1077 0EF6                                          l1261 1758  
                                        l1245 14D6                                          l1078 0EF8  
                                        l1342 1852                                          l1351 1978  
                                        l1319 0C6E                                          l1344 1862  
                                        l1336 197A                                          l1360 19CE  
                                        l1264 1966                                          l2401 18C0  
                                        l1089 1108                                          l1345 1872  
                                        l4001 1494                                          l2411 161A  
                                        l2403 18C2                                          l1339 198A  
                                        l4011 14BA                                          l4003 14AA  
                             _timer3ReloadVal 0015                                          l1348 1968  
                                        l2421 1654                                          l2413 161E  
                                        l2405 18C4                                          l4021 14D4  
                                        l4013 14BE                                          l4005 14B2  
                                        l4101 089A                                          l2423 166C  
                                        l2415 1636                                          l4031 0E3C  
                                        l4023 0E12                                          l4015 14C2  
                                        l4007 14B6                                          l4111 08B0  
                                        l4103 089C                                          l2417 163C  
                                        l2409 1606                                          l2425 1A78  
                                        l4041 0E7E                                          l4033 0E56  
                                        l4025 0E26                                          l4017 14C6  
                                        l4009 14B8                                          l4121 08BC  
                                        l4113 08B2                                          l4105 08A8  
                                        l2419 1650                                          l4051 0EC8  
                                        l4043 0E92                                          l4035 0E5A  
                                        l4027 0E2A                                          l4019 14D0  
                                        l4131 08F4                                          l4123 08C0  
                                        l4115 08B4                                          l4107 08AA  
                                        l4061 13BE                                          l4053 0ED2  
                                        l4045 0E94                                          l4037 0E68  
                                        l4029 0E2C                                          l4141 0970  
                                        l4125 08CE                                          l4133 090E  
                                        l4117 08B6                                          l4109 08AC  
                                        l4071 1188                                          l4055 0ED4  
                                        l4047 0EA8                                          l4039 0E78  
                                        l4151 09D4                                          l4143 0988  
                                        l4135 0942                                          l4127 08DA  
                                        l4119 08BA                                          l4065 13D2  
                                        l4057 13B8                                          l2625 1A7C  
                                        l4081 11DA                                          l4073 118C  
                                        l2641 1368                                          l4049 0EAC  
                                        l4145 0998                                          l4137 0946  
                                        l4129 08F2                                          l2563 19F8  
                                        l2571 1164                                          l2395 18B2  
                                        l4067 13E6                                          l4059 13BC  
                                        l4083 11EA                                          l4075 1198  
                                        l2651 138E                                          l2643 1376  
                                        l4147 09A6                                          l4139 0954  
                                        l2581 1A80                                          l2573 1166  
                                        l2565 110E                                          l2397 18B8  
                                        l3701 1424                                          l2661 108C  
                                        l4077 119C                                          l4069 1184  
                                        l2653 13B2                                          l2645 1378  
                                        l4149 09C6                                          l4093 082E  
                                        l2575 1168                                          l2567 1160  
                                        l2583 182E                                          l3551 1922  
                                        l2591 15E8                                          l2399 18BE  
                                        l3703 1426                                          l2655 19EC  
                                        l2671 1100                                          l2663 10C2  
                                        l4079 11B8                                          l3711 180A  
                                        l2647 137C                                          l4095 087E  
                                        l2585 18FE                                          l2577 116A  
                                        l2569 1162                                          l2593 1600  
                                        l3721 1A2C                                          l3705 1428  
                                        l2657 19F4                                          l2673 1102  
                                        l2665 10D0                                          l3713 1818  
                                        l2649 137E                                          l3553 1A06  
                                        l3481 197A                                          l4097 0892  
                                        l2579 1942                                          l3731 1A4A  
                                        l2587 15D0                                          l3723 1A40  
                                        l3707 142C                                          l2667 10E4  
                                        l3715 1824                                          l3651 1852  
                                        l3555 1A6A                                          l2851 1028  
                                        l4099 0896                                          l3549 1916  
                                        l2589 15E4                                          l3725 1A18  
                                        l3709 1430                                          l2669 10F2  
                                        l3901 16A6                                          l3653 186E  
                                        l3477 1898                                          l3741 0BA8  
                                        l3733 0B88                                          l2853 103C  
                                        l2845 1006                                          l3719 1A36  
                                        l3727 1A0E                                          l2679 110A  
                                        l3903 16AE                                          l3911 0EEE  
                                        l3479 18A8                                          l3647 19C4  
                                        l3751 0BCA                                          l3743 0BAE  
                                        l3735 0B90                                          l2855 1044  
                                        l2847 100C                                          l3729 1A22  
                                        l3905 16B4                                          l3921 0F32  
                                        l3913 0F0A                                          l3649 19CA  
                                        l3657 1968                                          l3761 0C10  
                                        l3753 0BDC                                          l3745 0BB0  
                                        l3737 0B96                                          l2857 1052  
                                        l2849 1014                                          l3851 179E  
                                        l3907 16BE                                          l3923 0F42  
                                        l3915 0F0E                                          l3771 0C2A  
                                        l3763 0C16                                          l3755 0BEE  
                                        l3747 0BB4                                          l3739 0B98  
                                        l3931 12BE                                          l2859 1068  
                                        l3853 17A0                                          l3861 129A  
                                        l3693 140A                                          l3909 16CE  
                                        l3925 0F52                                          l3917 0F1A  
                                        l3781 0C4E                                          l3773 0C2E  
                                        l3765 0C1C                                          l3757 0BF0  
                                        l3749 0BC2                                          l3933 12C8  
                                        l3855 17AC                                          l3847 1786  
                                        l3871 123E                                          l3863 12A6  
                                        l3695 1412                                          l3927 0F5C  
                                        l3919 0F2A                                          l3791 0C8E  
                                        l3775 0C34                                          l3783 0C50  
                                        l3767 0C20                                          l3759 0BF2  
                                        l3951 1742                                          l3943 172E  
                                        l3935 12D8                                          l3849 179A  
                                        l3873 124A                                          l3865 12B2  
                                        l3857 125C                                          l3697 1418  
                                        l3881 176A                                          l3793 0C98  
                                        l3785 0C60                                          l3777 0C46  
                                        l3769 0C22                                          l3953 1746  
                                        l3945 1734                                          l3937 12E4  
                                        l3929 12B8                                          l3961 195C  
                                        l3875 1256                                          l3867 11F4  
                                        l3859 128E                                          l3971 159E  
                                        l3699 141E                                          l3891 16D4  
                                        l3883 176E                                          l3795 0CA6  
                                        l3787 0C7E                                          l3779 0C4A  
                                        l3955 174A                                          l3947 1738  
                                        l3939 1304                                          l3869 1232  
                                        l3981 15B2                                          l3973 15A2  
                                        l3893 16DC                                          l3885 1774  
                                        l3877 175A                                          l3797 0CC2  
                                        l3789 0C8C                                          l3957 1756  
                                        l3949 173E                                          l3991 15C6  
                                        l3983 15B6                                          l3975 15A6  
                                        l3895 16E2                                          l3879 1768  
                                        l3887 177A                                          l3799 0CC8  
                                        l3959 1956                                          l3993 15CA  
                                        l3985 15BA                                          l3977 15AA  
                                        l3969 159A                                          l3897 16EC  
                                        l3889 177E                                          l3987 15BE  
                                        l3979 15AE                                          l3899 16FC  
                                  i2_mdb_comm 0CCC                                          l3989 15C2  
                                  i2_mdb_init 14D8                                          u2000 09A6  
                                        u2001 09A2                                          u2010 09B4  
                                        u2011 09B0                                          u2020 09C6  
                                        u2021 09C2                                          u2030 09D4  
                                        u2031 09D0                                          u2107 0EDE  
                                        u1500 0BA8                                          u2117 10D6  
                                        u1501 0BA4                                          _LATA 003FBA  
                                        u1510 0BC2                                          _LATB 003FBB  
                                        u2127 10EA                                          u1511 0BBE  
                                        _LATC 003FBC                                          u1440 1862  
                                        u1600 0CC2                                          u1520 0C02  
                                        u1441 185E                                          u1601 0CBE  
                                        u1521 0BFE                                          u2057 08E4  
                                        u1370 18A8                                          u1530 0C10  
                                        u1371 18A4                                          u1531 0C0C  
                                        u2067 0900                                          u1380 198A  
                                        u1460 1978                                          u1540 0C60  
                                        u1700 1304                                          u1381 1986  
                                        u1461 1974                                          u1541 0C5C  
                                        u1701 1300                                          u2077 105C  
                                        u1550 0C6E                                          u1455 186C  
                                        u1551 0C6A                                          u2087 149E  
                                        u1480 1440                                          u1800 13D2  
                                        u1640 1768                                          u1560 0C7E  
                                        u1481 143C                                          u1801 13CE  
                                        u1641 1764                                          u2097 0E46  
                                        u1457 186E                                          u1561 0C7A  
                                        u1650 16FC                                          u1810 13E6  
                                        u1730 0E3C                                          u1570 0C8C  
                                        _T2PR 003FAB                                          u1651 16F8  
                                        u1811 13E2                                          u1731 0E38  
                                        u1571 0C88                                          u1820 1404  
                                        u1660 16CE                                          u1740 0E68  
                                        u1900 0862                                          u1821 1400  
                                        u1661 16CA                                          u1741 0E64  
                                        u1901 085A                                          u1830 11B8  
                                        u1670 0F08                                          u1750 0E76  
                                        u1590 0CA6                                          u1910 087E  
                                        u1495 144A                                          u1831 11B4  
                                        u1671 0F04                                          u1751 0E72  
                                        u1591 0CA2                                          u1911 087A  
                                        u1496 144C                                          u1840 11C8  
                                        u1680 0F7A                                          u1760 0E92  
                                        u1920 08CE                                          u1841 11C4  
                                        u1681 0F76                                          u1761 0E8E  
                                        u1585 0C96                                          u1921 08CA  
                                        u1850 11DA                                          u1770 0EA8  
                                        u1690 12D6                                          u1930 091E  
                                        u1851 11D6                                          u1771 0EA4  
                                        u1587 0C98                                          u1691 12D2  
                                        u1931 091A                                          u1780 0EBA  
                                        u1940 092C                                          u1908 0864  
                                        u1781 0EB6                                          u1941 0928  
                                        u1790 0EC8                                          u1950 0942  
                                        u1791 0EC4                                          u1951 093E  
                                        u1960 0954                                          u1880 0842  
                                        u1961 0950                                          u1881 083C  
                                        u1970 0970                                          u1890 0844  
                                        u1971 096C                                          u1980 0988  
                                        _PMD0 0039C0                                          u1981 0984  
                                        _PMD1 0039C1                                          u1990 0998  
                                        _PMD2 0039C2                                          u1991 0994  
                                        _PMD3 0039C3                                          _PMD4 0039C4  
                                        _PMD5 0039C5                                          _PMD6 0039C6  
                                        _PMD7 0039C7                                          _TMR2 003FAA  
                                        _WPUA 003A41                                          _WPUB 003A51  
                                        _WPUC 003A61                                          _WPUE 003A81  
                                        _cash 0024                                          _main 082E  
                               ?_mdb_transmit 002A                                          fsr2h 003FDA  
                                        indf2 003FDF                                          fsr2l 003FD9  
                                        start 001A                               _timer5ReloadVal 0013  
                 ?_UART1_SetAddresstoTransmit 002A                               _TMR3_Initialize 1606  
                                ___param_bank 000000                                   _switch_read 108C  
                                 ?_UART9_Read 002A                       __end_of_TMR0_Initialize 192C  
               __end_of_OSCILLATOR_Initialize 1916                                         ?_main 002A  
                             _TMR1_StartTimer 1A7C                                         _T1CLK 003FB5  
                                       _T1CON 003FB2                                         _U1P1H 003DED  
                                       _U1P2H 003DEF                                         _U1P3H 003DF1  
                                       _U1P1L 003DEC                                         _T3CLK 003FA9  
                                       _U1P2L 003DEE                                         _T2CON 003FAC  
                                       _U1P3L 003DF0                                         _U2P1L 003DD4  
                                       _U2P2L 003DD6                                         _T3CON 003FA6  
                                       _U2P3L 003DD8                                         _CMOUT 003EC0  
                                       _T5CLK 003F9D                                         _T2HLT 003FAD  
                                       _T5CON 003F9A                                   i2_mdb_reset 1310  
                                       _T2TMR 003FAA                                         _U1UIR 003DF8  
                                       _U1RXB 003DE8                                         _T2RST 003FAF  
                                 i2_mdb_noten 17DE                                         _U2UIR 003DE0  
                                       _U1TXB 003DEA                                         _U2RXB 003DD0  
                                       i2l150 1486                                         i2l151 1492  
                                       _PCON0 003FF0                                         i2l154 18E2  
                                       _U2TXB 003DD2                                         i2l148 1478  
                                 i2_mdb_waitr 199E                                         i2l460 1A66  
                                       i2l454 18E6                                   i2_mdb_waitx 19B0  
                                       i2l457 18FC                                         i2l650 17DC  
                                       i2l714 158C                                         i2l690 16A2  
                                       i2l597 1940                                         i2l693 1A5C  
                                       i2l696 1A84                                         _OSCEN 0039DD  
                                       _TMR0H 003FB7                                         _TMR1H 003FB1  
                                       _TMR0L 003FB6                                         _TMR1L 003FB0  
                                       _TMR3H 003FA5                                         _TMR3L 003FA4  
                                       _TMR5H 003F99                                         _TMR5L 003F98  
                                       _TRISA 003FC2                                         _TRISB 003FC3  
                                       _TRISC 003FC4                               __end_of_cashint 0807  
                             __end_of_cashinv 080B                              ??i2_mdb_security 002F  
                       Set_Timeout@readValLow 003F                               __end_of_credmem 0811  
                             __end_of_coin_in 1408                              __end_of_TMR2_ISR 16A4  
                             _DATAEE_ReadByte 18B0                                ??_mdb_security 003C  
                             __end_of_second1 0817                              ??i2_mdb_transmit 002B  
                     __end_of_TMR1_Initialize 1672                                         pclath 003FFA  
                                       pclatu 003FFB                                         tablat 003FF5  
                             __end_of_sensval 0803                                ??_mdb_transmit 0038  
                                       status 003FD8              _UART1_DefaultFramingErrorHandler 000000  
                             _TMR1_WriteTimer 175A                               _TMR5_Initialize 15D0  
              ??_UART2_SetOverrunErrorHandler 0039                               __initialization 151C  
                                __end_of_main 09E0                       __end_of_DAC1_Initialize 1A04  
                     __end_of_TMR2_Initialize 17B2                   ?_INTERRUPT_InterruptManager 002A  
                          Set_Timeout@timeval 0041                                  ?_UART1_Write 002A  
                 ?i2_TMR2_SetInterruptHandler 002A                      _TMR2_SetInterruptHandler 1A4A  
                                      ??_main 0045                                 __activetblptr 000002  
                                i2_credit_add 1700                                   i2mdb_comm@i 002E  
                               _enter_service 0E12                              _UART1_Initialize 11F4  
                               ??_Set_Timeout 003F                                        _CM1NCH 003EBE  
                                      _CM1PCH 003EBF                                        _ANSELA 003A40  
                                      _ANSELB 003A50                                        _ANSELC 003A60  
                                 ?i2_mdb_comm 002C                                        _T0CON0 003FB8  
                                      _T0CON1 003FB9                                        _RB1I2C 003A5A  
                                 ?i2_mdb_init 002A                                        _T1GATE 003FB4  
                                      _RB2I2C 003A5B                                        _T1GCON 003FB3  
                                      _U1CON0 003DF2                                        _U1CON1 003DF3  
                                      _U1CON2 003DF4                                        _RC3I2C 003A6A  
                                      _T3GATE 003FA8                                        _RC4I2C 003A6B  
                                      _U1BRGH 003DF6                                        _U1FIFO 003DF7  
                                      _U2CON0 003DDA                                        _T3GCON 003FA7  
                                      _U2CON1 003DDB                                        _U2CON2 003DDC  
                                      _U1BRGL 003DF5                                        _U2BRGH 003DDE  
                                      _U2FIFO 003DDF                                        _U2BRGL 003DDD  
                                      _T5GATE 003F9C                                        _T5GCON 003F9B  
                                      _RB1PPS 003A09                           i2UART1_Write@txData 002A  
                                      _RC1PPS 003A11                       TMR1_WriteTimer@timerVal 0037  
                                      _ODCONA 003A42                                        _ODCONB 003A52  
                                      _ODCONC 003A62                                        i2l1021 172C  
                            credit_add@credit 003A                       __end_of_TMR3_Initialize 163C  
                                      i2l1242 1A76                                        i2l1330 0E10  
                                      i2l1314 0D48                                        i2l1250 132E  
                                      i2l1252 1366                                        i2l1261 1808  
                                      i2l1245 151A                                        i2l1342 1874  
                                      i2l1351 19AE                                        i2l1319 0DB4  
                                      i2l1344 1884                                        i2l1336 19B0  
                                      i2l1360 19EA                                        i2l1264 199C  
                                      i2l1345 1894                                        i2l1281 1004  
                                      i2l1339 19C0                                        i2l1275 0FB0  
                                      i2l1267 19DC                                        i2l1348 199E  
                                      i2l1287 0B84                                        i2l3401 199E  
                                      i2l1298 0B80                                        i2l3403 19E0  
                                      i2l3411 0CDC                                        i2l3405 19E6  
                                      i2l3421 0CFA                                        i2l3413 0CDE  
                                      i2l3501 18CC                                        i2l3431 0D36  
                                      i2l3423 0D08                                        i2l3415 0CEE  
                                      i2l3407 0CCE                                        i2l3511 18DE  
                                      i2l3503 18D2                                        i2l3441 0D66  
                                      i2l3425 0D10                                        i2l3433 0D38  
                                      i2l3417 0CF4                                        i2l3409 0CD6  
                                      i2l3601 0A9A                                        i2l3505 18D8  
                                      i2l3521 1330                                        i2l3451 0D8C  
                                      i2l3443 0D68                                        i2l3435 0D56  
                                      i2l3427 0D22                                        i2l3419 0CF6  
                                      i2l3611 0AB6                                        i2l3603 0AA2  
                                      i2l3507 18DA                                        i2l3531 17E4  
                                      i2l3523 133C                                        i2l3515 1310  
                                      i2l4091 1588                                        i2l3381 18E6  
                                      i2l3461 0DC4                                        i2l3453 0D90  
                                      i2l3445 0D70                                        i2l3437 0D5C  
                                      i2l3429 0D34                                        i2l4261 0B12  
                                      i2l3621 0ADE                                        i2l3613 0ABE  
                                      i2l3605 0AA6                                        i2l3509 18DC  
                                      i2l3541 17FA                                        i2l3533 17E8  
                                      i2l3525 135C                                        i2l3517 1316  
                                      i2l3391 1938                                        i2l3383 18F6  
                                      i2l3471 0E08                                        i2l3463 0DD2  
                                      i2l3455 0D94                                        i2l3447 0D74  
                                      i2l3439 0D62                                        i2l3631 0B82  
                                      i2l3623 0AE6                                        i2l3615 0AC6  
                                      i2l3543 1806                                        i2l3535 17EE  
                                      i2l3519 1320                                        i2l4087 156A  
                                      i2l3393 1A72                                        i2l3385 19B0  
                                      i2l3473 0E0E                                        i2l3465 0DD4  
                                      i2l3449 0D7A                                        i2l3457 0D96  
                                      i2l3625 0AEE                                        i2l3617 0ACE  
                                      i2l3609 0AAE                                        i2l3561 09EE  
                                      i2l3537 17F2                                        i2l3529 17DE  
                                      i2l3545 198C                                        i2l4257 0FD6  
                                      i2l4089 157A                                        i2l3387 1A60  
                                      i2l3395 1874                                        i2l3467 0DDE  
                                      i2l3459 0DA6                                        i2l3627 0AF6  
                                      i2l3619 0AD6                                        i2l4259 0A5A  
                                      i2l3563 09FE                                        i2l3491 146A  
                                      i2l3483 1450                                        i2l3539 17F6  
                                      i2l3547 1992                                        i2l3811 0FA4  
                                      i2l3803 0F7C                                        i2l3389 192C  
                                      i2l3397 1890                                        i2l3469 0DEC  
                                      i2l3581 0A30                                        i2l3573 0A1C  
                                      i2l3565 0A08                                        i2l3629 0AFE  
                                      i2l3557 09E0                                        i2l3493 146C  
                                      i2l3485 1458                                        i2l3661 1702  
                                      i2l3813 0FA8                                        i2l3805 0F82  
                                      i2l3559 09EA                                        i2l3495 146E  
                                      i2l3487 145E                                        i2l3663 170A  
                                      i2l3671 14D8                                        i2l3831 1002  
                                      i2l3807 0F92                                        i2l3585 0A3A  
                                      i2l3577 0A26                                        i2l3569 0A12  
                                      i2l3593 0A46                                        i2l3497 1472  
                                      i2l3489 1464                                        i2l3665 1710  
                                      i2l3681 14FE                                        i2l3673 14EE  
                                      i2l3841 17CA                                        _INLVLA 003A44  
                                      _INLVLB 003A54                                        i2l3595 0A88  
                                      i2l3587 0A3E                                        i2l3499 1476  
                                      i2l3667 171A                                        i2l3691 1518  
                                      i2l3683 1502                                        i2l3675 14F6  
                                      i2l3827 0FC2                                        i2l3659 1A54  
                                      i2l3843 17CC                                        _INLVLC 003A64  
                                      i2l3669 172A                                        i2l3685 1506  
                                      i2l3677 14FA                                        i2l3829 0FFC  
                                      i2l3845 17D8                                        i2l3837 17B2  
                                      _INLVLE 003A84                                        i2l3599 0A92  
                                      i2l3687 150A                                        i2l3679 14FC  
                                      i2l3839 17C6                                        i2l3689 1514  
                                      i2l3963 19D0                                        i2l3965 19D4  
                                      i2l3967 19D8                                        i2l3995 1672  
                                      i2l3997 1676                                        _TABLAT 003FF5  
                                      i2l3999 1688                                 ?_init_mdbdata 002A  
                                      _OSCFRQ 0039DF                                        _NVMDAT 0039E3  
                       _UART1_SetErrorHandler 1A40                                 ?_button_flash 002A  
                      Set_Timeout@readValHigh 0040                              _UART2_Initialize 125C  
                   _UART2_OverrunErrorHandler 0009                              __end_of_dispense 11F4  
                            __end_of_mdb_comm 0CCC                              __end_of_mdb_init 14D8  
                            __end_of_mdb_poll 0B86                          __end_of_credit_check 19F8  
                     __end_of_TMR1_StartTimer 1A80                               mdb_reset@i_2612 003D  
                                      _credit 0025                              fp__InterruptTMR2 0000  
                            ?_TMR0_Initialize 002A                                        _mcount 0020  
                                      clear_0 1536                                        clear_1 1542  
                                      _noteen 001C                                        isa$std 000001  
                                      _slvadd 0021                                     ??_coin_in 003B  
                     __end_of_DATAEE_ReadByte 18CA                              __end_of_second_5 0815  
                              _PMD_Initialize 182E                                  __pdataCOMRAM 0048  
                              ?_enter_service 002A                              __end_of_notebits 0805  
                            __end_of_poll_mdb 1006                              __end_of_mototime 082D  
                                __mediumconst 0000                                        tblptrh 003FF7  
                                      tblptrl 003FF6                                        tblptru 003FF8  
                            ??i2_init_mdbdata 002A      TMR2_SetInterruptHandler@InterruptHandler 0037  
  i2TMR2_SetInterruptHandler@InterruptHandler 002A          __end_of_UART1_SetOverrunErrorHandler 1A36  
                _UART1_SetOverrunErrorHandler 1A2C                     _UART1_DefaultErrorHandler 000000  
                            i2mdb_comm@mcount 002C                       __end_of_TMR1_WriteTimer 1786  
                              ??_init_mdbdata 0037                        i2init_mdbdata@initdata 002A  
                            i2mdb_comm@slvadd 002D                              ?_TMR1_Initialize 002A  
                     __end_of_TMR5_Initialize 1606                             _SYSTEM_Initialize 159A  
                                  __accesstop 0060                       __end_of__initialization 1554  
                         __end_of_Set_Timeout 0F7C                                ??_button_flash 0039  
                       __end_of_note_features 0824                               _CMP1_Initialize 1942  
                          ?_SYSTEM_Initialize 002A                         __end_of_theft_attempt 0818  
                               ___rparam_used 000001                                __pcstackCOMRAM 002A  
                       _UART2_SetErrorHandler 1A22                           ??_SYSTEM_Initialize 0039  
                            ?_DAC1_Initialize 002A                                     ?_TMR2_ISR 002A  
                        __end_of_mdb_security 1968                              _DATAEE_WriteByte 1408  
                               ?i2_UART9_Read 002A                         __end_of_note_rejected 0819  
                            ?_TMR2_Initialize 002A                         __end_of_note_security 0829  
                      __end_of_PMD_Initialize 1852                          __end_of_mdb_transmit 19D0  
                   _UART1_FramingErrorHandler 0011                     __end_of_SYSTEM_Initialize 15D0  
                               _InterruptTMR2 19D0                                    __pbssBANK0 0060  
               ?_UART1_SetOverrunErrorHandler 0037                        ?_UART1_SetErrorHandler 0037  
                            ?_TMR3_Initialize 002A                                       IVTBASEH 003FD6  
                                     IVTBASEL 003FD5                                       IVTBASEU 003FD7  
                           ??_credit_subtract 003A                    __end_ofi2_DATAEE_WriteByte 1494  
                                ?_switch_read 002A                              ?_TMR1_StartTimer 002A  
                                  ??_TMR2_ISR 0035          __end_of_UART2_SetFramingErrorHandler 1A22  
                _UART2_SetFramingErrorHandler 1A18                                ??i2_UART9_Read 002A  
                                ??_UART9_Read 0037                                       _CM1CON0 003EBC  
                                     _CM1CON1 003EBD                               ?_PMD_Initialize 002A  
                             ??_enter_service 0043                              ?_DATAEE_ReadByte 002A  
                                ?i2_mdb_reset 002A                                  ?i2_mdb_noten 002A  
                                ?i2_mdb_waitr 002A                                  ?i2_mdb_waitx 002A  
                                     _U1ERRIE 003DFA                                       _U1ERRIR 003DF9  
                                     _U2ERRIE 003DE2                                       _U2ERRIR 003DE1  
                                  _credit_add 16D2                                       _U1RXPPS 003AE5  
                                     _U2RXPPS 003AE8                                       _OSCCON1 0039D9  
                                     _OSCCON3 0039DB                                       _TBLPTRH 003FF7  
                                     _TBLPTRL 003FF6                                       _TBLPTRU 003FF8  
                                     _NVMADRL 0039E0                                    _jammed_err 081E  
                                     _OSCTUNE 0039DE                                       _NVMCON2 0039E6  
                                 _Set_Timeout 0EEE                                       _SLRCONA 003A43  
                                     _SLRCONB 003A53                                       _SLRCONC 003A63  
                              ?_InterruptTMR2 002A                       __end_of_CMP1_Initialize 1956  
                                   ?_mdb_comm 0039                                     ?_dispense 002A  
                            ?_TMR1_WriteTimer 0037                                     ?_mdb_init 002A  
                                   ?_mdb_poll 002A                              ?_TMR5_Initialize 002A  
                        DATAEE_WriteByte@bAdd 0038                            __end_of_UART9_Read 1874  
                       i2DATAEE_ReadByte@bAdd 002A                                       __Hparam 0000  
                      ?_UART2_SetErrorHandler 0037                                       __Lparam 0000  
                    __end_of_UART1_Initialize 125C                    ??_TMR2_SetInterruptHandler 0039  
                                   ?_poll_mdb 002A                                mdb_comm@mcount 0039  
                              mdb_comm@slvadd 003A                             __end_of_mdb_reset 1310  
                           __end_of_mdb_noten 175A                             __end_of_mdb_waitr 197A  
                           __end_of_mdb_waitx 198C                                  __psmallconst 0800  
               ?_UART2_SetFramingErrorHandler 0037                                       _dbcount 0003  
                                     __pcinit 151C                                       _cashint 0805  
                        __end_of_init_mdbdata 1A70                                       _cashinv 0809  
                                     __ramtop 0800                      TMR1_ReadTimer@readValLow 003E  
                                     _chkbyte 001E                                    _errorflags 001A  
                                     __ptext0 082E                                       __ptext1 1006  
                                     __ptext2 1494                                       __ptext3 1956  
                                     __ptext4 12B8                                       __ptext5 172E  
                                     __ptext6 0B86                                       __ptext7 1968  
                                     __ptext8 19C2                                       __ptext9 197A  
                                     _credmem 080F                                       _coin_in 13B8  
                                     _mdbdata 0060                     TMR1_ReadTimer@readValHigh 003D  
                                   _T1CONbits 003FB2                          __end_of_button_flash 13B8  
            _UART2_DefaultOverrunErrorHandler 000000                         _OSCILLATOR_Initialize 18FE  
                                   _T2CONbits 003FAC                                       _buttons 0023  
                                   _T3CONbits 003FA6                                       _second1 0815  
                    ??_PIN_MANAGER_Initialize 0037                                     _T2HLTbits 003FAD  
                                   _T5CONbits 003F9A                      __end_of_UART2_Initialize 12B8  
                                     _notenum 0048                                       _sensval 0801  
                                     _timeout 0028                                  _credit_check 19EC  
                                ??i2_mdb_comm 002D                                    ??_dispense 003B  
                                  ??_mdb_comm 003A                                  ??i2_mdb_init 0031  
                                  ??_mdb_init 003E                          end_of_initialization 1554  
                           __end_of_secondadd 0813                                    ??_mdb_poll 002F  
                                   _T2RSTbits 003FAF                                     _PCON1bits 003FF1  
                               __Lmediumconst 0000                             __end_of_note_poll 0828  
                           __end_of_note_type 0827                             __end_of_just_busy 0821  
                           __end_of_vend_init 108C                ??_UART1_SetOverrunErrorHandler 0039  
                           __end_of_rom_error 0820                             __end_of_vendstore 0809  
                                  ??_poll_mdb 0033                                    _note_reset 082A  
                                  _sens_error 0821                                    _note_setup 0829  
                                     postinc0 003FEE                                       postinc2 003FDE  
                                  _motr_error 0822                                    _just_reset 081D  
                                  _pricestore 080D                             UART1_Write@txData 0037  
                            vend_init@timeval 003A                            __end_ofi2_mdb_comm 0E12  
                          __end_ofi2_mdb_init 151C                                     _PORTAbits 003FCA  
                                  _venderrors 080B                                 i2_UART1_Write 18E4  
                                 ?_credit_add 002A                                _TMR1_ReadTimer 180A  
                             ??_InterruptTMR2 0035                              ?_CMP1_Initialize 002A  
                    __end_of_DATAEE_WriteByte 144E                                  _mdb_security 1956  
                        __end_ofi2_UART9_Read 1896                                   _CM1CON0bits 003EBC  
                         __end_of_cashbox_err 081C                                  _mdb_transmit 19C2  
                          i2credit_add@credit 002D                  __end_of_INTERRUPT_Initialize 1A84  
        __end_of_TMR2_DefaultInterruptHandler 1A86                  _TMR2_DefaultInterruptHandler 1A84  
                          mdb_transmit@txbyte 0038                                 __pidataCOMRAM 1A86  
                              ?i2_UART1_Write 002A                                _TMR1_StopTimer 1A78  
                      ?_OSCILLATOR_Initialize 002A                        __end_of_TMR1_ReadTimer 182E  
              ??_UART2_SetFramingErrorHandler 0039                           start_initialization 151C  
                     ??_UART1_SetErrorHandler 0039                     _UART2_DefaultErrorHandler 000000  
                             _credit_subtract 16A4                                    ivt0x8_base 0008  
                         DATAEE_ReadByte@bAdd 0037                  ??_UART1_SetAddresstoTransmit 0037  
                            ??_PMD_Initialize 0037                        __end_of_TMR1_StopTimer 1A7C  
             fp__TMR2_DefaultInterruptHandler 0000                 ?_TMR2_DefaultInterruptHandler 002A  
                             ?_TMR1_ReadTimer 0037                            i2_DATAEE_WriteByte 144E  
                                 __pbssCOMRAM 0001                            _UART1_ErrorHandler 000D  
                   _UART2_FramingErrorHandler 000B                                  ?_Set_Timeout 002A  
                           i2_TMR0_Initialize 192C                                   _cashbox_err 081B  
                         ?i2_DATAEE_WriteByte 002A                          __end_of_note_removed 081D  
                          ?i2_TMR0_Initialize 002A                         credit_subtract@credit 003A  
                        __end_of_note_stacker 0825                          init_mdbdata@initdata 0037  
                                _init_mdbdata 1A68                       ??_UART2_SetErrorHandler 0039  
                                _button_flash 1368                           ??i2_TMR0_Initialize 002A  
                      _PIN_MANAGER_Initialize 110E                             ?_UART1_Initialize 002A  
        __end_of_UART1_SetFramingErrorHandler 1A40                  _UART1_SetFramingErrorHandler 1A36  
                        ??i2_DATAEE_WriteByte 002B                            ??_UART1_Initialize 0039  
                             ??i2_UART1_Write 002A                               ?_TMR1_StopTimer 002A  
                            _uart1RxLastError 0027                                 ??_UART1_Write 0037  
                                    _DAC1CON0 003E9E                                      _DAC1CON1 003E9C  
                ??_INTERRUPT_InterruptManager 0035                                      ?_coin_in 002A  
                                   _mdb_reset 12B8                                     _mdb_noten 172E  
                                   _mdb_waitr 1968                                     _mdb_waitx 197A  
                ??i2_TMR2_SetInterruptHandler 002C                                   __smallconst 0800  
                     __end_of_credit_subtract 16D2                         __end_of_enter_service 0EEE  
            _UART1_DefaultOverrunErrorHandler 000000                                 ?i2_credit_add 002A  
                   __end_ofi2_TMR0_Initialize 1942                 i2DATAEE_WriteByte@GIEBitValue 002C  
                                   _mdbtxbyte 0019                             ?_UART2_Initialize 002A  
                           i2_TMR2_Initialize 17B2                                _acept_disabled 081A  
                                    _T2CLKCON 003FAE                                   _U1ERRIRbits 003DF9  
                          ??_UART2_Initialize 0039                          _INTERRUPT_Initialize 1A80  
                          ?i2_TMR2_Initialize 002A                              _uart2RxLastError 0026  
                           ??_TMR0_Initialize 0037          __end_ofi2_UART1_SetAddresstoTransmit 1A68  
                i2_UART1_SetAddresstoTransmit 1A5E                                   _U2ERRIRbits 003DE1  
                              i2_mdb_security 198C                                      _LATAbits 003FBA  
       UART2_SetErrorHandler@interruptHandler 0037         UART1_SetErrorHandler@interruptHandler 0037  
                                    _LATBbits 003FBB                                      _LATCbits 003FBC  
                                   _secondadd 0811                                 _note_features 0823  
                                    _PIE4bits 003994                                 _theft_attempt 0817  
                         ??i2_TMR2_Initialize 002C                                      i2u121_40 18F6  
                                    i2u121_41 18F2                                      i2u122_40 19C0  
                                    i2u130_40 0DA6                                      i2u122_41 19BC  
                                    i2u130_41 0DA2                                      i2u123_40 1884  
                                    i2u131_40 0DB4                                      i2u123_41 1880  
                                    i2u131_41 0DB0                                      i2u132_40 0DC4  
                                    i2u132_41 0DC0                                      i2u124_45 188E  
                                    i2u140_45 1490                                      i2u140_46 1492  
                                    i2u124_47 1890                                      i2u125_40 19AE  
                                    i2u133_40 0DD2                                      i2u141_40 132E  
                                    i2u125_41 19AA                                      i2u133_41 0DCE  
                                    i2u141_41 132A                                      i2u213_47 14E2  
                                    i2u126_40 0CEE                                      i2u142_40 135C  
                                    i2u126_41 0CEA                                      i2u142_41 1358  
                                    i2u134_45 0DDC                                      i2u134_47 0DDE  
                                    i2u135_40 0DEC                                      i2u127_40 0D08  
                                    i2u143_40 09FE                                      i2u135_41 0DE8  
                                    i2u127_41 0D04                                      i2u143_41 09FA  
                                    i2u136_40 0E08                                      i2u128_40 0D48  
                                    i2u136_41 0E04                                      i2u128_41 0D44  
                                    i2u129_40 0D56                                      i2u161_40 0F92  
                                    i2u129_41 0D52                                      i2u161_41 0F8E  
                                    i2u162_40 0FA0                                      i2u162_41 0F9C  
                                    i2u139_40 1486                                      i2u147_40 172A  
                                    i2u163_40 0FBE                                      i2u171_40 1688  
                                    i2u139_41 1482                                      i2u147_41 1726  
                                    i2u163_41 0FBA                                      i2u171_41 1684  
                                    i2u172_48 168E                                      i2u172_49 16A2  
                                    _PIR0bits 0039A0                                i2_mdb_transmit 19DE  
                                    i2u186_40 157A                                      i2u186_41 1576  
                                    i2u187_40 1588                                      i2u187_41 1584  
                                    _PIR3bits 0039A3                                      _PIR4bits 0039A4  
                                    _PIR6bits 0039A6                                      _PIR8bits 0039A8  
                                   _note_poll 0827                                     _note_type 0826  
                                   _just_busy 0820                                     _vend_init 1006  
                                    _TMR2_ISR 1672                                     _rom_error 081F  
               ?_UART1_SetFramingErrorHandler 0037                                     _vendprice 0022  
                                   _vendstore 0807                                  i2_UART9_Read 1874  
                               _note_rejected 0818                             ??_TMR1_Initialize 0037  
                               _note_security 0828                                    ?_mdb_reset 002A  
                                  ?_mdb_noten 002A                                    ?_mdb_waitr 002A  
                                  ?_mdb_waitx 002A                                ??i2_credit_add 002D  
                                ??_credit_add 003A                     __end_ofi2_TMR2_Initialize 17DE  
                                   mdb_comm@i 003B                        __end_of_acept_disabled 081B  
              ??_TMR2_DefaultInterruptHandler 002A                     ?_TMR2_SetInterruptHandler 0037  
                         __end_of_UART1_Write 18B0                            _UART2_ErrorHandler 0007  
                       DATAEE_WriteByte@bData 0037                                   _INTCON0bits 003FD2  
                       ?_INTERRUPT_Initialize 002A                             ??_DAC1_Initialize 0037  
                      __end_ofi2_mdb_security 199E                             i2_DATAEE_ReadByte 18CA  
                           ?_DATAEE_WriteByte 0037                             ??_TMR2_Initialize 0039  
                          ?i2_DATAEE_ReadByte 002A                            ??_DATAEE_WriteByte 0038  
                      __end_ofi2_mdb_transmit 19EC            __end_of_UART1_SetAddresstoTransmit 1A0E  
               ?i2_UART1_SetAddresstoTransmit 002A                    _UART1_SetAddresstoTransmit 1A04  
                                    __Hrparam 0000                                      __Lrparam 0000  
                          __end_of_credit_add 1700                         TMR1_ReadTimer@readVal 003B  
                         ??i2_DATAEE_ReadByte 002A                                    ?_vend_init 002A  
                     ??_OSCILLATOR_Initialize 0037                            __end_of_jammed_err 081F  
         UART1_SetAddresstoTransmit@txAddress 0037         i2UART1_SetAddresstoTransmit@txAddress 002A  
                              _invalid_escrow 0819                           __end_of_note_escrow 0826  
                           ??_TMR3_Initialize 0037                              ?_credit_subtract 002A  
                                  _T0CON0bits 003FB8                                      __pivt0x8 0008  
                   __end_ofi2_DATAEE_ReadByte 18E4                                      __ptext10 1896  
                                    __ptext11 1A68                                      __ptext20 175A  
                                    __ptext12 1852                                      __ptext21 1A78  
                                    __ptext13 1A04                                    _T1GCONbits 003FB3  
                                    __ptext30 125C                                      __ptext22 1A7C  
                                    __ptext14 0E12                                      __ptext31 1A0E  
                                    __ptext23 13B8                                      __ptext15 1368  
                                    __ptext40 1786                                      __ptext32 1A18  
                                    __ptext24 108C                                      __ptext16 0EEE  
                                    __ptext41 1A4A                                      __ptext33 1A22  
                                    __ptext25 19EC                                      __ptext17 180A  
                                    __ptext50 155E                                      __ptext42 163C  
                                    __ptext34 11F4                                      __ptext26 16D2  
                                    __ptext18 1182                                      __ptext51 1672  
                                    __ptext43 1916                                      __ptext35 1A2C  
                                    __ptext27 1408                                      __ptext19 16A4  
                                    __ptext60 17DE                                      __ptext52 19D0  
                                    __ptext44 182E                                      __ptext36 1A36  
                                    __ptext28 18B0                                      __ptext61 1700  
                                    __ptext53 1A84                                      __ptext45 110E  
                                    __ptext37 1A40                                      __ptext29 159A  
                                    __ptext70 1A70                                      __ptext62 144E  
                                    __ptext54 17B2                                      __ptext46 18FE  
                                    __ptext38 15D0                                      __ptext71 1874  
                                    __ptext63 18CA                                      __ptext55 1A54  
                                    __ptext47 1A80                                      __ptext39 1606  
                                    __ptext72 1A5E                                      __ptext64 09E0  
                                    __ptext56 0F7C                                      __ptext48 19F8  
                                    __ptext73 192C                                      __ptext65 0CCC  
                                    __ptext57 14D8                                      __ptext49 1942  
                                    __ptext74 0000                                      __ptext66 199E  
                                    __ptext58 198C                                      __ptext67 19DE  
                                    __ptext59 1310                                      __ptext68 19B0  
                                    __ptext69 18E4                         __end_of_InterruptTMR2 19DE  
                                  _U1CON0bits 003DF2                                      _mdb_comm 0B86  
                                    _dispense 1182                                      _mdb_init 1494  
                           ??_TMR1_StartTimer 0037                 __end_of_UART1_SetErrorHandler 1A4A  
                                    _mdb_poll 09E0                                      _mdbflags 001D  
                             ?i2_mdb_security 002A                                    _U1FIFObits 003DF7  
                                  _T3GCONbits 003FA7                                    _U2CON0bits 003DDA  
                 DATAEE_WriteByte@GIEBitValue 0039                                    _T5GCONbits 003F9B  
            _UART2_DefaultFramingErrorHandler 000000                               ?i2_mdb_transmit 002A  
                           ??_DATAEE_ReadByte 0037                                i2_init_mdbdata 1A70  
                                    _second_5 0813                     _UART1_OverrunErrorHandler 000F  
                                    _notebits 0803  UART2_SetOverrunErrorHandler@interruptHandler 0037  
UART1_SetOverrunErrorHandler@interruptHandler 0037                                      _notebyte 001F  
                                    _poll_mdb 0F7C                                      isa$xinst 000000  
                                    _mototime 082B                                 ??_switch_read 0037  
                                    _venflags 0001                              ??_TMR1_ReadTimer 0039  
                      __end_of_invalid_escrow 081A                                  _note_removed 081C  
          __end_of_INTERRUPT_InterruptManager 159A                    _INTERRUPT_InterruptManager 155E  
                           ??_TMR1_WriteTimer 0039                                  _note_stacker 0824  
                           i2mdb_reset@i_2612 0030                                   _UART1_Write 1896  
          __end_ofi2_TMR2_SetInterruptHandler 1A5E                    i2_TMR2_SetInterruptHandler 1A54  
                           ??_TMR5_Initialize 0037                                 ??i2_mdb_reset 002F  
                               ??i2_mdb_noten 002F                                 ??i2_mdb_waitr 002A  
                               ??i2_mdb_waitx 002A                                   ??_mdb_reset 003C  
                                 ??_mdb_noten 003C                                   ??_mdb_waitr 0037  
                                 ??_mdb_waitx 0037                ??_UART1_SetFramingErrorHandler 0039  
                                 _NVMCON1bits 0039E5                        ??_INTERRUPT_Initialize 0037  
        __end_of_UART2_SetOverrunErrorHandler 1A18                  _UART2_SetOverrunErrorHandler 1A0E  
                          __end_of_note_reset 082B                            __end_of_sens_error 0822  
                          __end_of_note_setup 082A                                      intlevel2 0000  
                          __end_of_motr_error 0823                            __end_of_just_reset 081E  
                      __end_ofi2_init_mdbdata 1A78                       ?_PIN_MANAGER_Initialize 002A  
                          __end_of_pricestore 080F                          __end_ofi2_credit_add 172E  
                          __end_of_venderrors 080D                 __end_of_UART2_SetErrorHandler 1A2C  
                            ??_TMR1_StopTimer 0037                                   _note_escrow 0825  
                                 ??_vend_init 0038                ??i2_UART1_SetAddresstoTransmit 002A  
                                 _noteen_byte 001B  UART2_SetFramingErrorHandler@interruptHandler 0037  
UART1_SetFramingErrorHandler@interruptHandler 0037                                    _UART9_Read 1852  
                        i2mdb_transmit@txbyte 002B                           __end_of_switch_read 110E  
                     i2DATAEE_WriteByte@bData 002A                               _TMR0_Initialize 1916  
                               ?_credit_check 002A                           __end_ofi2_mdb_reset 1368  
                         __end_ofi2_mdb_noten 180A                           __end_ofi2_mdb_waitr 19B0  
                         __end_ofi2_mdb_waitx 19C2                __end_of_PIN_MANAGER_Initialize 1182  
                      i2DATAEE_WriteByte@bAdd 002B                 ?_UART2_SetOverrunErrorHandler 0037  
                             ?i2_init_mdbdata 002A                         _TMR2_InterruptHandler 0005  
                             _TMR1_Initialize 163C  
